
/home/zhouxin/gap_sdk/examples/nntool/mnist/BUILD/GAP8_V2/GCC_RISCV/test:     file format elf32-littleriscv


Disassembly of section .data_tiny_fc:

00000004 <.data_tiny_fc>:
	...

Disassembly of section .stack:

1b0003f4 <.stack>:
1b0003f4:	0000                	unimp
1b0003f6:	0000                	unimp
1b0003f8:	00000003          	lb	zero,0(zero) # 0x0
	...

Disassembly of section .vectors:

1c000000 <.vectors>:
1c000000:	0940006f          	j	0x1c000094
1c000004:	0900006f          	j	0x1c000094
1c000008:	08c0006f          	j	0x1c000094
1c00000c:	0880006f          	j	0x1c000094
1c000010:	0840006f          	j	0x1c000094
1c000014:	0800006f          	j	0x1c000094
1c000018:	07c0006f          	j	0x1c000094
1c00001c:	0780006f          	j	0x1c000094
1c000020:	0740006f          	j	0x1c000094
1c000024:	0700006f          	j	0x1c000094
1c000028:	06c0006f          	j	0x1c000094
1c00002c:	0680006f          	j	0x1c000094
1c000030:	0640006f          	j	0x1c000094
1c000034:	0600006f          	j	0x1c000094
1c000038:	05c0006f          	j	0x1c000094
1c00003c:	0580006f          	j	0x1c000094
1c000040:	0540006f          	j	0x1c000094
1c000044:	0500006f          	j	0x1c000094
1c000048:	04c0006f          	j	0x1c000094
1c00004c:	0480006f          	j	0x1c000094
1c000050:	0440006f          	j	0x1c000094
1c000054:	0400006f          	j	0x1c000094
1c000058:	03c0006f          	j	0x1c000094
1c00005c:	0380006f          	j	0x1c000094
1c000060:	0340006f          	j	0x1c000094
1c000064:	0300006f          	j	0x1c000094
1c000068:	02c0006f          	j	0x1c000094
1c00006c:	0280006f          	j	0x1c000094
1c000070:	0240006f          	j	0x1c000094
1c000074:	0200006f          	j	0x1c000094
1c000078:	01c0006f          	j	0x1c000094
1c00007c:	0180006f          	j	0x1c000094
1c000080:	3740106f          	j	0x1c0013f4
1c000084:	50a0106f          	j	0x1c00158e
	...
1c000090:	a468                	fsd	fa0,200(s0)
1c000092:	1c00                	addi	s0,sp,560
1c000094:	0000006f          	j	0x1c000094
1c000098:	00100073          	ebreak
1c00009c:	00008067          	ret

Disassembly of section .text:

1c0000a0 <.text>:
1c0000a0:	415c                	lw	a5,4(a0)
1c0000a2:	439c                	lw	a5,0(a5)
1c0000a4:	0007a303          	lw	t1,0(a5)
1c0000a8:	c11c                	sw	a5,0(a0)
1c0000aa:	8302                	jr	t1
1c0000ac:	8082                	ret
1c0000ae:	00052023          	sw	zero,0(a0)
1c0000b2:	8082                	ret
1c0000b4:	415c                	lw	a5,4(a0)
1c0000b6:	439c                	lw	a5,0(a5)
1c0000b8:	cb89                	beqz	a5,0x1c0000ca
1c0000ba:	1c00a7b7          	lui	a5,0x1c00a
1c0000be:	08878793          	addi	a5,a5,136 # 0x1c00a088
1c0000c2:	0007a303          	lw	t1,0(a5)
1c0000c6:	c11c                	sw	a5,0(a0)
1c0000c8:	8302                	jr	t1
1c0000ca:	1c00a7b7          	lui	a5,0x1c00a
1c0000ce:	06078793          	addi	a5,a5,96 # 0x1c00a060
1c0000d2:	bfc5                	j	0x1c0000c2
1c0000d4:	411c                	lw	a5,0(a0)
1c0000d6:	0047a303          	lw	t1,4(a5)
1c0000da:	8302                	jr	t1
1c0000dc:	411c                	lw	a5,0(a0)
1c0000de:	0087a303          	lw	t1,8(a5)
1c0000e2:	8302                	jr	t1
1c0000e4:	491c                	lw	a5,16(a0)
1c0000e6:	439c                	lw	a5,0(a5)
1c0000e8:	00c7a303          	lw	t1,12(a5)
1c0000ec:	8302                	jr	t1
1c0000ee:	491c                	lw	a5,16(a0)
1c0000f0:	439c                	lw	a5,0(a5)
1c0000f2:	0107a303          	lw	t1,16(a5)
1c0000f6:	8302                	jr	t1
1c0000f8:	7175                	addi	sp,sp,-144
1c0000fa:	4785                	li	a5,1
1c0000fc:	0054                	addi	a3,sp,4
1c0000fe:	c706                	sw	ra,140(sp)
1c000100:	c522                	sw	s0,136(sp)
1c000102:	cc3e                	sw	a5,24(sp)
1c000104:	d43e                	sw	a5,40(sp)
1c000106:	c202                	sw	zero,4(sp)
1c000108:	00010a23          	sb	zero,20(sp)
1c00010c:	37cd                	jal	0x1c0000ee
1c00010e:	842a                	mv	s0,a0
1c000110:	0048                	addi	a0,sp,4
1c000112:	7bc060ef          	jal	ra,0x1c0068ce
1c000116:	8522                	mv	a0,s0
1c000118:	40ba                	lw	ra,140(sp)
1c00011a:	442a                	lw	s0,136(sp)
1c00011c:	6149                	addi	sp,sp,144
1c00011e:	8082                	ret
1c000120:	491c                	lw	a5,16(a0)
1c000122:	439c                	lw	a5,0(a5)
1c000124:	0187a303          	lw	t1,24(a5)
1c000128:	8302                	jr	t1
1c00012a:	7175                	addi	sp,sp,-144
1c00012c:	4785                	li	a5,1
1c00012e:	0054                	addi	a3,sp,4
1c000130:	c706                	sw	ra,140(sp)
1c000132:	c522                	sw	s0,136(sp)
1c000134:	cc3e                	sw	a5,24(sp)
1c000136:	d43e                	sw	a5,40(sp)
1c000138:	c202                	sw	zero,4(sp)
1c00013a:	00010a23          	sb	zero,20(sp)
1c00013e:	37cd                	jal	0x1c000120
1c000140:	842a                	mv	s0,a0
1c000142:	0048                	addi	a0,sp,4
1c000144:	78a060ef          	jal	ra,0x1c0068ce
1c000148:	8522                	mv	a0,s0
1c00014a:	40ba                	lw	ra,140(sp)
1c00014c:	442a                	lw	s0,136(sp)
1c00014e:	6149                	addi	sp,sp,144
1c000150:	8082                	ret
1c000152:	491c                	lw	a5,16(a0)
1c000154:	439c                	lw	a5,0(a5)
1c000156:	0147a303          	lw	t1,20(a5)
1c00015a:	8302                	jr	t1
1c00015c:	7175                	addi	sp,sp,-144
1c00015e:	4785                	li	a5,1
1c000160:	0054                	addi	a3,sp,4
1c000162:	c706                	sw	ra,140(sp)
1c000164:	c522                	sw	s0,136(sp)
1c000166:	cc3e                	sw	a5,24(sp)
1c000168:	d43e                	sw	a5,40(sp)
1c00016a:	c202                	sw	zero,4(sp)
1c00016c:	00010a23          	sb	zero,20(sp)
1c000170:	37cd                	jal	0x1c000152
1c000172:	842a                	mv	s0,a0
1c000174:	0048                	addi	a0,sp,4
1c000176:	758060ef          	jal	ra,0x1c0068ce
1c00017a:	8522                	mv	a0,s0
1c00017c:	40ba                	lw	ra,140(sp)
1c00017e:	442a                	lw	s0,136(sp)
1c000180:	6149                	addi	sp,sp,144
1c000182:	8082                	ret
1c000184:	01052803          	lw	a6,16(a0)
1c000188:	00082803          	lw	a6,0(a6)
1c00018c:	02082303          	lw	t1,32(a6)
1c000190:	8302                	jr	t1
1c000192:	7175                	addi	sp,sp,-144
1c000194:	4785                	li	a5,1
1c000196:	cc3e                	sw	a5,24(sp)
1c000198:	d43e                	sw	a5,40(sp)
1c00019a:	005c                	addi	a5,sp,4
1c00019c:	c706                	sw	ra,140(sp)
1c00019e:	c522                	sw	s0,136(sp)
1c0001a0:	c202                	sw	zero,4(sp)
1c0001a2:	00010a23          	sb	zero,20(sp)
1c0001a6:	3ff9                	jal	0x1c000184
1c0001a8:	842a                	mv	s0,a0
1c0001aa:	0048                	addi	a0,sp,4
1c0001ac:	722060ef          	jal	ra,0x1c0068ce
1c0001b0:	8522                	mv	a0,s0
1c0001b2:	40ba                	lw	ra,140(sp)
1c0001b4:	442a                	lw	s0,136(sp)
1c0001b6:	6149                	addi	sp,sp,144
1c0001b8:	8082                	ret
1c0001ba:	01052303          	lw	t1,16(a0)
1c0001be:	00032303          	lw	t1,0(t1)
1c0001c2:	02432303          	lw	t1,36(t1)
1c0001c6:	8302                	jr	t1
1c0001c8:	7175                	addi	sp,sp,-144
1c0001ca:	4885                	li	a7,1
1c0001cc:	cc46                	sw	a7,24(sp)
1c0001ce:	d446                	sw	a7,40(sp)
1c0001d0:	00410893          	addi	a7,sp,4
1c0001d4:	c706                	sw	ra,140(sp)
1c0001d6:	c522                	sw	s0,136(sp)
1c0001d8:	c202                	sw	zero,4(sp)
1c0001da:	00010a23          	sb	zero,20(sp)
1c0001de:	3ff1                	jal	0x1c0001ba
1c0001e0:	842a                	mv	s0,a0
1c0001e2:	0048                	addi	a0,sp,4
1c0001e4:	6ea060ef          	jal	ra,0x1c0068ce
1c0001e8:	8522                	mv	a0,s0
1c0001ea:	40ba                	lw	ra,140(sp)
1c0001ec:	442a                	lw	s0,136(sp)
1c0001ee:	6149                	addi	sp,sp,144
1c0001f0:	8082                	ret
1c0001f2:	491c                	lw	a5,16(a0)
1c0001f4:	439c                	lw	a5,0(a5)
1c0001f6:	01c7a303          	lw	t1,28(a5)
1c0001fa:	8302                	jr	t1
1c0001fc:	411c                	lw	a5,0(a0)
1c0001fe:	00c7a303          	lw	t1,12(a5)
1c000202:	8302                	jr	t1
1c000204:	4501                	li	a0,0
1c000206:	8082                	ret
1c000208:	415c                	lw	a5,4(a0)
1c00020a:	00f5f563          	bleu	a5,a1,0x1c000214
1c00020e:	c10c                	sw	a1,0(a0)
1c000210:	4501                	li	a0,0
1c000212:	8082                	ret
1c000214:	557d                	li	a0,-1
1c000216:	8082                	ret
1c000218:	491c                	lw	a5,16(a0)
1c00021a:	1141                	addi	sp,sp,-16
1c00021c:	c422                	sw	s0,8(sp)
1c00021e:	0087a803          	lw	a6,8(a5)
1c000222:	8432                	mv	s0,a2
1c000224:	411c                	lw	a5,0(a0)
1c000226:	4510                	lw	a2,8(a0)
1c000228:	88ae                	mv	a7,a1
1c00022a:	8736                	mv	a4,a3
1c00022c:	00c785b3          	add	a1,a5,a2
1c000230:	4150                	lw	a2,4(a0)
1c000232:	c606                	sw	ra,12(sp)
1c000234:	008786b3          	add	a3,a5,s0
1c000238:	00d67463          	bleu	a3,a2,0x1c000240
1c00023c:	40f60433          	sub	s0,a2,a5
1c000240:	97a2                	add	a5,a5,s0
1c000242:	c11c                	sw	a5,0(a0)
1c000244:	00082503          	lw	a0,0(a6)
1c000248:	86a2                	mv	a3,s0
1c00024a:	8646                	mv	a2,a7
1c00024c:	3f45                	jal	0x1c0001fc
1c00024e:	8522                	mv	a0,s0
1c000250:	40b2                	lw	ra,12(sp)
1c000252:	4422                	lw	s0,8(sp)
1c000254:	0141                	addi	sp,sp,16
1c000256:	8082                	ret
1c000258:	882a                	mv	a6,a0
1c00025a:	4908                	lw	a0,16(a0)
1c00025c:	00882803          	lw	a6,8(a6)
1c000260:	4508                	lw	a0,8(a0)
1c000262:	95c2                	add	a1,a1,a6
1c000264:	4108                	lw	a0,0(a0)
1c000266:	00052883          	lw	a7,0(a0)
1c00026a:	0288a303          	lw	t1,40(a7)
1c00026e:	8302                	jr	t1
1c000270:	832a                	mv	t1,a0
1c000272:	4908                	lw	a0,16(a0)
1c000274:	00832e03          	lw	t3,8(t1)
1c000278:	4508                	lw	a0,8(a0)
1c00027a:	95f2                	add	a1,a1,t3
1c00027c:	4108                	lw	a0,0(a0)
1c00027e:	00052303          	lw	t1,0(a0)
1c000282:	02c32303          	lw	t1,44(t1)
1c000286:	8302                	jr	t1
1c000288:	1101                	addi	sp,sp,-32
1c00028a:	cc22                	sw	s0,24(sp)
1c00028c:	ca26                	sw	s1,20(sp)
1c00028e:	842a                	mv	s0,a0
1c000290:	c84a                	sw	s2,16(sp)
1c000292:	c64e                	sw	s3,12(sp)
1c000294:	ce06                	sw	ra,28(sp)
1c000296:	0a144783          	lbu	a5,161(s0)
1c00029a:	1c0005b7          	lui	a1,0x1c000
1c00029e:	4104                	lw	s1,0(a0)
1c0002a0:	00852903          	lw	s2,8(a0)
1c0002a4:	00c52983          	lw	s3,12(a0)
1c0002a8:	8622                	mv	a2,s0
1c0002aa:	0571                	addi	a0,a0,28
1c0002ac:	58658593          	addi	a1,a1,1414 # 0x1c000586
1c0002b0:	c38d                	beqz	a5,0x1c0002d2
1c0002b2:	508070ef          	jal	ra,0x1c0077ba
1c0002b6:	86aa                	mv	a3,a0
1c0002b8:	864e                	mv	a2,s3
1c0002ba:	85ca                	mv	a1,s2
1c0002bc:	8526                	mv	a0,s1
1c0002be:	3d51                	jal	0x1c000152
1c0002c0:	08a42e23          	sw	a0,156(s0)
1c0002c4:	40f2                	lw	ra,28(sp)
1c0002c6:	4462                	lw	s0,24(sp)
1c0002c8:	44d2                	lw	s1,20(sp)
1c0002ca:	4942                	lw	s2,16(sp)
1c0002cc:	49b2                	lw	s3,12(sp)
1c0002ce:	6105                	addi	sp,sp,32
1c0002d0:	8082                	ret
1c0002d2:	4e8070ef          	jal	ra,0x1c0077ba
1c0002d6:	86aa                	mv	a3,a0
1c0002d8:	864e                	mv	a2,s3
1c0002da:	85ca                	mv	a1,s2
1c0002dc:	8526                	mv	a0,s1
1c0002de:	3d01                	jal	0x1c0000ee
1c0002e0:	b7c5                	j	0x1c0002c0
1c0002e2:	1141                	addi	sp,sp,-16
1c0002e4:	c422                	sw	s0,8(sp)
1c0002e6:	0a452583          	lw	a1,164(a0)
1c0002ea:	842a                	mv	s0,a0
1c0002ec:	4108                	lw	a0,0(a0)
1c0002ee:	c606                	sw	ra,12(sp)
1c0002f0:	3709                	jal	0x1c0001f2
1c0002f2:	4785                	li	a5,1
1c0002f4:	08f40c23          	sb	a5,152(s0)
1c0002f8:	0a044783          	lbu	a5,160(s0)
1c0002fc:	08a42e23          	sw	a0,156(s0)
1c000300:	40b2                	lw	ra,12(sp)
1c000302:	4422                	lw	s0,8(sp)
1c000304:	04078793          	addi	a5,a5,64
1c000308:	00201737          	lui	a4,0x201
1c00030c:	07da                	slli	a5,a5,0x16
1c00030e:	e0470713          	addi	a4,a4,-508 # 0x200e04
1c000312:	0007e723          	p.sw	zero,a4(a5)
1c000316:	0141                	addi	sp,sp,16
1c000318:	8082                	ret
1c00031a:	1141                	addi	sp,sp,-16
1c00031c:	c422                	sw	s0,8(sp)
1c00031e:	842a                	mv	s0,a0
1c000320:	09c52503          	lw	a0,156(a0)
1c000324:	08800593          	li	a1,136
1c000328:	c606                	sw	ra,12(sp)
1c00032a:	7c4060ef          	jal	ra,0x1c006aee
1c00032e:	8522                	mv	a0,s0
1c000330:	4422                	lw	s0,8(sp)
1c000332:	40b2                	lw	ra,12(sp)
1c000334:	0a400593          	li	a1,164
1c000338:	0141                	addi	sp,sp,16
1c00033a:	7b40606f          	j	0x1c006aee
1c00033e:	c915                	beqz	a0,0x1c000372
1c000340:	1141                	addi	sp,sp,-16
1c000342:	c422                	sw	s0,8(sp)
1c000344:	842a                	mv	s0,a0
1c000346:	09052503          	lw	a0,144(a0)
1c00034a:	c606                	sw	ra,12(sp)
1c00034c:	c511                	beqz	a0,0x1c000358
1c00034e:	08c42783          	lw	a5,140(s0)
1c000352:	478c                	lw	a1,8(a5)
1c000354:	79a060ef          	jal	ra,0x1c006aee
1c000358:	08c42503          	lw	a0,140(s0)
1c00035c:	c519                	beqz	a0,0x1c00036a
1c00035e:	4422                	lw	s0,8(sp)
1c000360:	40b2                	lw	ra,12(sp)
1c000362:	45c1                	li	a1,16
1c000364:	0141                	addi	sp,sp,16
1c000366:	7880606f          	j	0x1c006aee
1c00036a:	40b2                	lw	ra,12(sp)
1c00036c:	4422                	lw	s0,8(sp)
1c00036e:	0141                	addi	sp,sp,16
1c000370:	8082                	ret
1c000372:	8082                	ret
1c000374:	4508                	lw	a0,8(a0)
1c000376:	b7e1                	j	0x1c00033e
1c000378:	451c                	lw	a5,8(a0)
1c00037a:	1101                	addi	sp,sp,-32
1c00037c:	c452                	sw	s4,8(sp)
1c00037e:	0907a783          	lw	a5,144(a5)
1c000382:	cc22                	sw	s0,24(sp)
1c000384:	ca26                	sw	s1,20(sp)
1c000386:	0007aa03          	lw	s4,0(a5)
1c00038a:	c84a                	sw	s2,16(sp)
1c00038c:	c64e                	sw	s3,12(sp)
1c00038e:	c256                	sw	s5,4(sp)
1c000390:	ce06                	sw	ra,28(sp)
1c000392:	89aa                	mv	s3,a0
1c000394:	8aae                	mv	s5,a1
1c000396:	00478413          	addi	s0,a5,4
1c00039a:	4901                	li	s2,0
1c00039c:	4481                	li	s1,0
1c00039e:	01494663          	blt	s2,s4,0x1c0003aa
1c0003a2:	03491263          	bne	s2,s4,0x1c0003c6
1c0003a6:	4401                	li	s0,0
1c0003a8:	a0b9                	j	0x1c0003f6
1c0003aa:	85d6                	mv	a1,s5
1c0003ac:	00c40513          	addi	a0,s0,12
1c0003b0:	41a080ef          	jal	ra,0x1c0087ca
1c0003b4:	c901                	beqz	a0,0x1c0003c4
1c0003b6:	441c                	lw	a5,8(s0)
1c0003b8:	84a2                	mv	s1,s0
1c0003ba:	0905                	addi	s2,s2,1
1c0003bc:	97a2                	add	a5,a5,s0
1c0003be:	00c78413          	addi	s0,a5,12
1c0003c2:	bff1                	j	0x1c00039e
1c0003c4:	84a2                	mv	s1,s0
1c0003c6:	0a400513          	li	a0,164
1c0003ca:	716060ef          	jal	ra,0x1c006ae0
1c0003ce:	842a                	mv	s0,a0
1c0003d0:	d979                	beqz	a0,0x1c0003a6
1c0003d2:	08800513          	li	a0,136
1c0003d6:	70a060ef          	jal	ra,0x1c006ae0
1c0003da:	08a42e23          	sw	a0,156(s0)
1c0003de:	c515                	beqz	a0,0x1c00040a
1c0003e0:	40dc                	lw	a5,4(s1)
1c0003e2:	00042023          	sw	zero,0(s0)
1c0003e6:	c05c                	sw	a5,4(s0)
1c0003e8:	409c                	lw	a5,0(s1)
1c0003ea:	01342823          	sw	s3,16(s0)
1c0003ee:	c41c                	sw	a5,8(s0)
1c0003f0:	57fd                	li	a5,-1
1c0003f2:	0af42023          	sw	a5,160(s0)
1c0003f6:	8522                	mv	a0,s0
1c0003f8:	40f2                	lw	ra,28(sp)
1c0003fa:	4462                	lw	s0,24(sp)
1c0003fc:	44d2                	lw	s1,20(sp)
1c0003fe:	4942                	lw	s2,16(sp)
1c000400:	49b2                	lw	s3,12(sp)
1c000402:	4a22                	lw	s4,8(sp)
1c000404:	4a92                	lw	s5,4(sp)
1c000406:	6105                	addi	sp,sp,32
1c000408:	8082                	ret
1c00040a:	0a400593          	li	a1,164
1c00040e:	8522                	mv	a0,s0
1c000410:	6de060ef          	jal	ra,0x1c006aee
1c000414:	bf49                	j	0x1c0003a6
1c000416:	08452783          	lw	a5,132(a0)
1c00041a:	1101                	addi	sp,sp,-32
1c00041c:	cc22                	sw	s0,24(sp)
1c00041e:	ce06                	sw	ra,28(sp)
1c000420:	ca26                	sw	s1,20(sp)
1c000422:	c84a                	sw	s2,16(sp)
1c000424:	c64e                	sw	s3,12(sp)
1c000426:	c452                	sw	s4,8(sp)
1c000428:	842a                	mv	s0,a0
1c00042a:	0627a163          	p.beqimm	a5,2,0x1c00048c
1c00042e:	4709                	li	a4,2
1c000430:	02f74163          	blt	a4,a5,0x1c000452
1c000434:	0217aa63          	p.beqimm	a5,1,0x1c000468
1c000438:	08442783          	lw	a5,132(s0)
1c00043c:	40f2                	lw	ra,28(sp)
1c00043e:	44d2                	lw	s1,20(sp)
1c000440:	0785                	addi	a5,a5,1
1c000442:	08f42223          	sw	a5,132(s0)
1c000446:	4462                	lw	s0,24(sp)
1c000448:	4942                	lw	s2,16(sp)
1c00044a:	49b2                	lw	s3,12(sp)
1c00044c:	4a22                	lw	s4,8(sp)
1c00044e:	6105                	addi	sp,sp,32
1c000450:	8082                	ret
1c000452:	0637a163          	p.beqimm	a5,3,0x1c0004b4
1c000456:	fe47b1e3          	p.bneimm	a5,4,0x1c000438
1c00045a:	10052a23          	sw	zero,276(a0)
1c00045e:	08052503          	lw	a0,128(a0)
1c000462:	448060ef          	jal	ra,0x1c0068aa
1c000466:	bfc9                	j	0x1c000438
1c000468:	4104                	lw	s1,0(a0)
1c00046a:	08c52903          	lw	s2,140(a0)
1c00046e:	1c0005b7          	lui	a1,0x1c000
1c000472:	862a                	mv	a2,a0
1c000474:	41658593          	addi	a1,a1,1046 # 0x1c000416
1c000478:	0511                	addi	a0,a0,4
1c00047a:	340070ef          	jal	ra,0x1c0077ba
1c00047e:	872a                	mv	a4,a0
1c000480:	46a1                	li	a3,8
1c000482:	864a                	mv	a2,s2
1c000484:	4581                	li	a1,0
1c000486:	8526                	mv	a0,s1
1c000488:	3b95                	jal	0x1c0001fc
1c00048a:	b77d                	j	0x1c000438
1c00048c:	08c52483          	lw	s1,140(a0)
1c000490:	00052903          	lw	s2,0(a0)
1c000494:	1c0005b7          	lui	a1,0x1c000
1c000498:	0084a98b          	p.lw	s3,8(s1!)
1c00049c:	862a                	mv	a2,a0
1c00049e:	41658593          	addi	a1,a1,1046 # 0x1c000416
1c0004a2:	0511                	addi	a0,a0,4
1c0004a4:	316070ef          	jal	ra,0x1c0077ba
1c0004a8:	872a                	mv	a4,a0
1c0004aa:	46a1                	li	a3,8
1c0004ac:	8626                	mv	a2,s1
1c0004ae:	85ce                	mv	a1,s3
1c0004b0:	854a                	mv	a0,s2
1c0004b2:	bfd9                	j	0x1c000488
1c0004b4:	08c52783          	lw	a5,140(a0)
1c0004b8:	4784                	lw	s1,8(a5)
1c0004ba:	0007aa03          	lw	s4,0(a5)
1c0004be:	049d                	addi	s1,s1,7
1c0004c0:	c404b4b3          	p.bclr	s1,s1,2,0
1c0004c4:	8526                	mv	a0,s1
1c0004c6:	61a060ef          	jal	ra,0x1c006ae0
1c0004ca:	08a42823          	sw	a0,144(s0)
1c0004ce:	892a                	mv	s2,a0
1c0004d0:	c115                	beqz	a0,0x1c0004f4
1c0004d2:	8522                	mv	a0,s0
1c0004d4:	0045298b          	p.lw	s3,4(a0!)
1c0004d8:	1c0005b7          	lui	a1,0x1c000
1c0004dc:	8622                	mv	a2,s0
1c0004de:	41658593          	addi	a1,a1,1046 # 0x1c000416
1c0004e2:	2d8070ef          	jal	ra,0x1c0077ba
1c0004e6:	872a                	mv	a4,a0
1c0004e8:	86a6                	mv	a3,s1
1c0004ea:	864a                	mv	a2,s2
1c0004ec:	008a0593          	addi	a1,s4,8
1c0004f0:	854e                	mv	a0,s3
1c0004f2:	bf59                	j	0x1c000488
1c0004f4:	57fd                	li	a5,-1
1c0004f6:	10f42a23          	sw	a5,276(s0)
1c0004fa:	08042503          	lw	a0,128(s0)
1c0004fe:	4462                	lw	s0,24(sp)
1c000500:	40f2                	lw	ra,28(sp)
1c000502:	44d2                	lw	s1,20(sp)
1c000504:	4942                	lw	s2,16(sp)
1c000506:	49b2                	lw	s3,12(sp)
1c000508:	4a22                	lw	s4,8(sp)
1c00050a:	6105                	addi	sp,sp,32
1c00050c:	39e0606f          	j	0x1c0068aa
1c000510:	7175                	addi	sp,sp,-144
1c000512:	c326                	sw	s1,132(sp)
1c000514:	c14a                	sw	s2,128(sp)
1c000516:	4144                	lw	s1,4(a0)
1c000518:	892a                	mv	s2,a0
1c00051a:	11800513          	li	a0,280
1c00051e:	c522                	sw	s0,136(sp)
1c000520:	c706                	sw	ra,140(sp)
1c000522:	5be060ef          	jal	ra,0x1c006ae0
1c000526:	842a                	mv	s0,a0
1c000528:	e911                	bnez	a0,0x1c00053c
1c00052a:	8522                	mv	a0,s0
1c00052c:	3d09                	jal	0x1c00033e
1c00052e:	557d                	li	a0,-1
1c000530:	40ba                	lw	ra,140(sp)
1c000532:	442a                	lw	s0,136(sp)
1c000534:	449a                	lw	s1,132(sp)
1c000536:	490a                	lw	s2,128(sp)
1c000538:	6149                	addi	sp,sp,144
1c00053a:	8082                	ret
1c00053c:	40dc                	lw	a5,4(s1)
1c00053e:	08052623          	sw	zero,140(a0)
1c000542:	08052823          	sw	zero,144(a0)
1c000546:	c11c                	sw	a5,0(a0)
1c000548:	4541                	li	a0,16
1c00054a:	596060ef          	jal	ra,0x1c006ae0
1c00054e:	08a42623          	sw	a0,140(s0)
1c000552:	dd61                	beqz	a0,0x1c00052a
1c000554:	4785                	li	a5,1
1c000556:	0044                	addi	s1,sp,4
1c000558:	08f42223          	sw	a5,132(s0)
1c00055c:	08042823          	sw	zero,144(s0)
1c000560:	08942023          	sw	s1,128(s0)
1c000564:	8522                	mv	a0,s0
1c000566:	00892423          	sw	s0,8(s2)
1c00056a:	cc3e                	sw	a5,24(sp)
1c00056c:	d43e                	sw	a5,40(sp)
1c00056e:	c202                	sw	zero,4(sp)
1c000570:	00010a23          	sb	zero,20(sp)
1c000574:	354d                	jal	0x1c000416
1c000576:	8526                	mv	a0,s1
1c000578:	356060ef          	jal	ra,0x1c0068ce
1c00057c:	11442783          	lw	a5,276(s0)
1c000580:	f7cd                	bnez	a5,0x1c00052a
1c000582:	4501                	li	a0,0
1c000584:	b775                	j	0x1c000530
1c000586:	4785                	li	a5,1
1c000588:	08f50c23          	sb	a5,152(a0)
1c00058c:	0a054783          	lbu	a5,160(a0)
1c000590:	00201737          	lui	a4,0x201
1c000594:	e0470713          	addi	a4,a4,-508 # 0x200e04
1c000598:	04078793          	addi	a5,a5,64
1c00059c:	07da                	slli	a5,a5,0x16
1c00059e:	0007e723          	p.sw	zero,a4(a5)
1c0005a2:	8082                	ret
1c0005a4:	495c                	lw	a5,20(a0)
1c0005a6:	7179                	addi	sp,sp,-48
1c0005a8:	d422                	sw	s0,40(sp)
1c0005aa:	d226                	sw	s1,36(sp)
1c0005ac:	d04a                	sw	s2,32(sp)
1c0005ae:	ce4e                	sw	s3,28(sp)
1c0005b0:	cc52                	sw	s4,24(sp)
1c0005b2:	d606                	sw	ra,44(sp)
1c0005b4:	842a                	mv	s0,a0
1c0005b6:	4104                	lw	s1,0(a0)
1c0005b8:	00452903          	lw	s2,4(a0)
1c0005bc:	00852983          	lw	s3,8(a0)
1c0005c0:	4554                	lw	a3,12(a0)
1c0005c2:	01852a03          	lw	s4,24(a0)
1c0005c6:	1c0005b7          	lui	a1,0x1c000
1c0005ca:	0571                	addi	a0,a0,28
1c0005cc:	c3a9                	beqz	a5,0x1c00060e
1c0005ce:	4818                	lw	a4,16(s0)
1c0005d0:	8622                	mv	a2,s0
1c0005d2:	63a58593          	addi	a1,a1,1594 # 0x1c00063a
1c0005d6:	c236                	sw	a3,4(sp)
1c0005d8:	c43a                	sw	a4,8(sp)
1c0005da:	c63e                	sw	a5,12(sp)
1c0005dc:	1de070ef          	jal	ra,0x1c0077ba
1c0005e0:	47b2                	lw	a5,12(sp)
1c0005e2:	4722                	lw	a4,8(sp)
1c0005e4:	4692                	lw	a3,4(sp)
1c0005e6:	88aa                	mv	a7,a0
1c0005e8:	8852                	mv	a6,s4
1c0005ea:	864e                	mv	a2,s3
1c0005ec:	85ca                	mv	a1,s2
1c0005ee:	8526                	mv	a0,s1
1c0005f0:	36e9                	jal	0x1c0001ba
1c0005f2:	08a42e23          	sw	a0,156(s0)
1c0005f6:	09c42783          	lw	a5,156(s0)
1c0005fa:	cb85                	beqz	a5,0x1c00062a
1c0005fc:	8522                	mv	a0,s0
1c0005fe:	5422                	lw	s0,40(sp)
1c000600:	50b2                	lw	ra,44(sp)
1c000602:	5492                	lw	s1,36(sp)
1c000604:	5902                	lw	s2,32(sp)
1c000606:	49f2                	lw	s3,28(sp)
1c000608:	4a62                	lw	s4,24(sp)
1c00060a:	6145                	addi	sp,sp,48
1c00060c:	bfad                	j	0x1c000586
1c00060e:	8622                	mv	a2,s0
1c000610:	63a58593          	addi	a1,a1,1594
1c000614:	c236                	sw	a3,4(sp)
1c000616:	1a4070ef          	jal	ra,0x1c0077ba
1c00061a:	4692                	lw	a3,4(sp)
1c00061c:	87aa                	mv	a5,a0
1c00061e:	8752                	mv	a4,s4
1c000620:	864e                	mv	a2,s3
1c000622:	85ca                	mv	a1,s2
1c000624:	8526                	mv	a0,s1
1c000626:	3eb9                	jal	0x1c000184
1c000628:	b7e9                	j	0x1c0005f2
1c00062a:	50b2                	lw	ra,44(sp)
1c00062c:	5422                	lw	s0,40(sp)
1c00062e:	5492                	lw	s1,36(sp)
1c000630:	5902                	lw	s2,32(sp)
1c000632:	49f2                	lw	s3,28(sp)
1c000634:	4a62                	lw	s4,24(sp)
1c000636:	6145                	addi	sp,sp,48
1c000638:	8082                	ret
1c00063a:	b7b1                	j	0x1c000586
1c00063c:	88ae                	mv	a7,a1
1c00063e:	0a052583          	lw	a1,160(a0)
1c000642:	1141                	addi	sp,sp,-16
1c000644:	c226                	sw	s1,4(sp)
1c000646:	c606                	sw	ra,12(sp)
1c000648:	c422                	sw	s0,8(sp)
1c00064a:	84ba                	mv	s1,a4
1c00064c:	09c52803          	lw	a6,156(a0)
1c000650:	00b66f63          	bltu	a2,a1,0x1c00066e
1c000654:	f8363733          	p.bclr	a4,a2,28,3
1c000658:	08800413          	li	s0,136
1c00065c:	8c19                	sub	s0,s0,a4
1c00065e:	04d45433          	p.minu	s0,s0,a3
1c000662:	008606b3          	add	a3,a2,s0
1c000666:	08858713          	addi	a4,a1,136
1c00066a:	02d77963          	bleu	a3,a4,0x1c00069c
1c00066e:	4918                	lw	a4,16(a0)
1c000670:	c40635b3          	p.bclr	a1,a2,2,0
1c000674:	08800693          	li	a3,136
1c000678:	00872883          	lw	a7,8(a4)
1c00067c:	0ab52023          	sw	a1,160(a0)
1c000680:	873e                	mv	a4,a5
1c000682:	0008a503          	lw	a0,0(a7)
1c000686:	8642                	mv	a2,a6
1c000688:	4401                	li	s0,0
1c00068a:	3e8d                	jal	0x1c0001fc
1c00068c:	4785                	li	a5,1
1c00068e:	c09c                	sw	a5,0(s1)
1c000690:	8522                	mv	a0,s0
1c000692:	40b2                	lw	ra,12(sp)
1c000694:	4422                	lw	s0,8(sp)
1c000696:	4492                	lw	s1,4(sp)
1c000698:	0141                	addi	sp,sp,16
1c00069a:	8082                	ret
1c00069c:	40b605b3          	sub	a1,a2,a1
1c0006a0:	95c2                	add	a1,a1,a6
1c0006a2:	8622                	mv	a2,s0
1c0006a4:	8546                	mv	a0,a7
1c0006a6:	15e080ef          	jal	ra,0x1c008804
1c0006aa:	b7dd                	j	0x1c000690
1c0006ac:	7179                	addi	sp,sp,-48
1c0006ae:	d422                	sw	s0,40(sp)
1c0006b0:	d226                	sw	s1,36(sp)
1c0006b2:	d04a                	sw	s2,32(sp)
1c0006b4:	ca56                	sw	s5,20(sp)
1c0006b6:	c85a                	sw	s6,16(sp)
1c0006b8:	d606                	sw	ra,44(sp)
1c0006ba:	8b3e                	mv	s6,a5
1c0006bc:	ce4e                	sw	s3,28(sp)
1c0006be:	cc52                	sw	s4,24(sp)
1c0006c0:	c65e                	sw	s7,12(sp)
1c0006c2:	47c1                	li	a5,16
1c0006c4:	892e                	mv	s2,a1
1c0006c6:	8432                	mv	s0,a2
1c0006c8:	84b6                	mv	s1,a3
1c0006ca:	8aba                	mv	s5,a4
1c0006cc:	04d7df63          	ble	a3,a5,0x1c00072a
1c0006d0:	00b647b3          	xor	a5,a2,a1
1c0006d4:	f837b7b3          	p.bclr	a5,a5,28,3
1c0006d8:	eba9                	bnez	a5,0x1c00072a
1c0006da:	08800793          	li	a5,136
1c0006de:	06d7d663          	ble	a3,a5,0x1c00074a
1c0006e2:	491c                	lw	a5,16(a0)
1c0006e4:	0087ab83          	lw	s7,8(a5)
1c0006e8:	f83437b3          	p.bclr	a5,s0,28,3
1c0006ec:	c395                	beqz	a5,0x1c000710
1c0006ee:	4991                	li	s3,4
1c0006f0:	40f989b3          	sub	s3,s3,a5
1c0006f4:	8756                	mv	a4,s5
1c0006f6:	87da                	mv	a5,s6
1c0006f8:	86ce                	mv	a3,s3
1c0006fa:	8622                	mv	a2,s0
1c0006fc:	85ca                	mv	a1,s2
1c0006fe:	3f3d                	jal	0x1c00063c
1c000700:	000aa783          	lw	a5,0(s5)
1c000704:	8a2a                	mv	s4,a0
1c000706:	e7b5                	bnez	a5,0x1c000772
1c000708:	944e                	add	s0,s0,s3
1c00070a:	994e                	add	s2,s2,s3
1c00070c:	413484b3          	sub	s1,s1,s3
1c000710:	000ba503          	lw	a0,0(s7)
1c000714:	c404ba33          	p.bclr	s4,s1,2,0
1c000718:	875a                	mv	a4,s6
1c00071a:	86d2                	mv	a3,s4
1c00071c:	864a                	mv	a2,s2
1c00071e:	85a2                	mv	a1,s0
1c000720:	3cf1                	jal	0x1c0001fc
1c000722:	4785                	li	a5,1
1c000724:	00faa023          	sw	a5,0(s5)
1c000728:	a0a9                	j	0x1c000772
1c00072a:	8622                	mv	a2,s0
1c00072c:	5422                	lw	s0,40(sp)
1c00072e:	50b2                	lw	ra,44(sp)
1c000730:	49f2                	lw	s3,28(sp)
1c000732:	4a62                	lw	s4,24(sp)
1c000734:	4bb2                	lw	s7,12(sp)
1c000736:	87da                	mv	a5,s6
1c000738:	8756                	mv	a4,s5
1c00073a:	4b42                	lw	s6,16(sp)
1c00073c:	4ad2                	lw	s5,20(sp)
1c00073e:	86a6                	mv	a3,s1
1c000740:	85ca                	mv	a1,s2
1c000742:	5492                	lw	s1,36(sp)
1c000744:	5902                	lw	s2,32(sp)
1c000746:	6145                	addi	sp,sp,48
1c000748:	bdd5                	j	0x1c00063c
1c00074a:	0a052583          	lw	a1,160(a0)
1c00074e:	f8b66ae3          	bltu	a2,a1,0x1c0006e2
1c000752:	00c687b3          	add	a5,a3,a2
1c000756:	08858713          	addi	a4,a1,136
1c00075a:	f8e7f4e3          	bleu	a4,a5,0x1c0006e2
1c00075e:	40b60433          	sub	s0,a2,a1
1c000762:	09c52583          	lw	a1,156(a0)
1c000766:	8636                	mv	a2,a3
1c000768:	854a                	mv	a0,s2
1c00076a:	95a2                	add	a1,a1,s0
1c00076c:	098080ef          	jal	ra,0x1c008804
1c000770:	8a26                	mv	s4,s1
1c000772:	50b2                	lw	ra,44(sp)
1c000774:	5422                	lw	s0,40(sp)
1c000776:	8552                	mv	a0,s4
1c000778:	5492                	lw	s1,36(sp)
1c00077a:	5902                	lw	s2,32(sp)
1c00077c:	49f2                	lw	s3,28(sp)
1c00077e:	4a62                	lw	s4,24(sp)
1c000780:	4ad2                	lw	s5,20(sp)
1c000782:	4b42                	lw	s6,16(sp)
1c000784:	4bb2                	lw	s7,12(sp)
1c000786:	6145                	addi	sp,sp,48
1c000788:	8082                	ret
1c00078a:	09852683          	lw	a3,152(a0)
1c00078e:	7139                	addi	sp,sp,-64
1c000790:	dc22                	sw	s0,56(sp)
1c000792:	de06                	sw	ra,60(sp)
1c000794:	da26                	sw	s1,52(sp)
1c000796:	d84a                	sw	s2,48(sp)
1c000798:	d64e                	sw	s3,44(sp)
1c00079a:	d452                	sw	s4,40(sp)
1c00079c:	ce02                	sw	zero,28(sp)
1c00079e:	842a                	mv	s0,a0
1c0007a0:	ee81                	bnez	a3,0x1c0007b8
1c0007a2:	4848                	lw	a0,20(s0)
1c0007a4:	106060ef          	jal	ra,0x1c0068aa
1c0007a8:	50f2                	lw	ra,60(sp)
1c0007aa:	5462                	lw	s0,56(sp)
1c0007ac:	54d2                	lw	s1,52(sp)
1c0007ae:	5942                	lw	s2,48(sp)
1c0007b0:	59b2                	lw	s3,44(sp)
1c0007b2:	5a22                	lw	s4,40(sp)
1c0007b4:	6121                	addi	sp,sp,64
1c0007b6:	8082                	ret
1c0007b8:	01850493          	addi	s1,a0,24
1c0007bc:	1c000937          	lui	s2,0x1c000
1c0007c0:	09452983          	lw	s3,148(a0)
1c0007c4:	00c52a03          	lw	s4,12(a0)
1c0007c8:	862a                	mv	a2,a0
1c0007ca:	78a90593          	addi	a1,s2,1930 # 0x1c00078a
1c0007ce:	8526                	mv	a0,s1
1c0007d0:	c636                	sw	a3,12(sp)
1c0007d2:	7e9060ef          	jal	ra,0x1c0077ba
1c0007d6:	46b2                	lw	a3,12(sp)
1c0007d8:	87aa                	mv	a5,a0
1c0007da:	0878                	addi	a4,sp,28
1c0007dc:	8652                	mv	a2,s4
1c0007de:	85ce                	mv	a1,s3
1c0007e0:	8522                	mv	a0,s0
1c0007e2:	35e9                	jal	0x1c0006ac
1c0007e4:	445c                	lw	a5,12(s0)
1c0007e6:	97aa                	add	a5,a5,a0
1c0007e8:	c45c                	sw	a5,12(s0)
1c0007ea:	09442783          	lw	a5,148(s0)
1c0007ee:	97aa                	add	a5,a5,a0
1c0007f0:	08f42a23          	sw	a5,148(s0)
1c0007f4:	09842783          	lw	a5,152(s0)
1c0007f8:	40a78533          	sub	a0,a5,a0
1c0007fc:	47f2                	lw	a5,28(sp)
1c0007fe:	08a42c23          	sw	a0,152(s0)
1c000802:	f3dd                	bnez	a5,0x1c0007a8
1c000804:	dd59                	beqz	a0,0x1c0007a2
1c000806:	8622                	mv	a2,s0
1c000808:	78a90593          	addi	a1,s2,1930
1c00080c:	8526                	mv	a0,s1
1c00080e:	7ad060ef          	jal	ra,0x1c0077ba
1c000812:	bf49                	j	0x1c0007a4
1c000814:	411c                	lw	a5,0(a0)
1c000816:	4158                	lw	a4,4(a0)
1c000818:	1101                	addi	sp,sp,-32
1c00081a:	ce06                	sw	ra,28(sp)
1c00081c:	00c78833          	add	a6,a5,a2
1c000820:	01077463          	bleu	a6,a4,0x1c000828
1c000824:	40f70633          	sub	a2,a4,a5
1c000828:	4518                	lw	a4,8(a0)
1c00082a:	08c52c23          	sw	a2,152(a0)
1c00082e:	c954                	sw	a3,20(a0)
1c000830:	973e                	add	a4,a4,a5
1c000832:	97b2                	add	a5,a5,a2
1c000834:	08b52a23          	sw	a1,148(a0)
1c000838:	c558                	sw	a4,12(a0)
1c00083a:	c11c                	sw	a5,0(a0)
1c00083c:	c632                	sw	a2,12(sp)
1c00083e:	37b1                	jal	0x1c00078a
1c000840:	4632                	lw	a2,12(sp)
1c000842:	40f2                	lw	ra,28(sp)
1c000844:	8532                	mv	a0,a2
1c000846:	6105                	addi	sp,sp,32
1c000848:	8082                	ret
1c00084a:	014027f3          	csrr	a5,uhartid
1c00084e:	8795                	srai	a5,a5,0x5
1c000850:	1141                	addi	sp,sp,-16
1c000852:	f267b7b3          	p.bclr	a5,a5,25,6
1c000856:	c422                	sw	s0,8(sp)
1c000858:	c68c                	sw	a1,8(a3)
1c00085a:	01c68413          	addi	s0,a3,28
1c00085e:	1c0005b7          	lui	a1,0x1c000
1c000862:	c288                	sw	a0,0(a3)
1c000864:	c6d0                	sw	a2,12(a3)
1c000866:	8522                	mv	a0,s0
1c000868:	0af68023          	sb	a5,160(a3)
1c00086c:	08068c23          	sb	zero,152(a3)
1c000870:	0a0680a3          	sb	zero,161(a3)
1c000874:	8636                	mv	a2,a3
1c000876:	28858593          	addi	a1,a1,648 # 0x1c000288
1c00087a:	c606                	sw	ra,12(sp)
1c00087c:	73f060ef          	jal	ra,0x1c0077ba
1c000880:	8522                	mv	a0,s0
1c000882:	4422                	lw	s0,8(sp)
1c000884:	40b2                	lw	ra,12(sp)
1c000886:	0141                	addi	sp,sp,16
1c000888:	7450606f          	j	0x1c0077cc
1c00088c:	014027f3          	csrr	a5,uhartid
1c000890:	8795                	srai	a5,a5,0x5
1c000892:	f267b7b3          	p.bclr	a5,a5,25,6
1c000896:	1141                	addi	sp,sp,-16
1c000898:	c422                	sw	s0,8(sp)
1c00089a:	c68c                	sw	a1,8(a3)
1c00089c:	01c68413          	addi	s0,a3,28
1c0008a0:	0af68023          	sb	a5,160(a3)
1c0008a4:	1c0005b7          	lui	a1,0x1c000
1c0008a8:	4785                	li	a5,1
1c0008aa:	c288                	sw	a0,0(a3)
1c0008ac:	c6d0                	sw	a2,12(a3)
1c0008ae:	8522                	mv	a0,s0
1c0008b0:	08068c23          	sb	zero,152(a3)
1c0008b4:	0af680a3          	sb	a5,161(a3)
1c0008b8:	8636                	mv	a2,a3
1c0008ba:	28858593          	addi	a1,a1,648 # 0x1c000288
1c0008be:	c606                	sw	ra,12(sp)
1c0008c0:	6fb060ef          	jal	ra,0x1c0077ba
1c0008c4:	8522                	mv	a0,s0
1c0008c6:	4422                	lw	s0,8(sp)
1c0008c8:	40b2                	lw	ra,12(sp)
1c0008ca:	0141                	addi	sp,sp,16
1c0008cc:	7010606f          	j	0x1c0077cc
1c0008d0:	01402773          	csrr	a4,uhartid
1c0008d4:	8715                	srai	a4,a4,0x5
1c0008d6:	1141                	addi	sp,sp,-16
1c0008d8:	f2673733          	p.bclr	a4,a4,25,6
1c0008dc:	c422                	sw	s0,8(sp)
1c0008de:	0ab62223          	sw	a1,164(a2)
1c0008e2:	01c60413          	addi	s0,a2,28
1c0008e6:	1c0005b7          	lui	a1,0x1c000
1c0008ea:	c208                	sw	a0,0(a2)
1c0008ec:	0ae60023          	sb	a4,160(a2)
1c0008f0:	8522                	mv	a0,s0
1c0008f2:	08060c23          	sb	zero,152(a2)
1c0008f6:	2e258593          	addi	a1,a1,738 # 0x1c0002e2
1c0008fa:	c606                	sw	ra,12(sp)
1c0008fc:	6bf060ef          	jal	ra,0x1c0077ba
1c000900:	8522                	mv	a0,s0
1c000902:	4422                	lw	s0,8(sp)
1c000904:	40b2                	lw	ra,12(sp)
1c000906:	0141                	addi	sp,sp,16
1c000908:	6c50606f          	j	0x1c0077cc
1c00090c:	cf98                	sw	a4,24(a5)
1c00090e:	01402773          	csrr	a4,uhartid
1c000912:	8715                	srai	a4,a4,0x5
1c000914:	1141                	addi	sp,sp,-16
1c000916:	f2673733          	p.bclr	a4,a4,25,6
1c00091a:	c422                	sw	s0,8(sp)
1c00091c:	c3cc                	sw	a1,4(a5)
1c00091e:	01c78413          	addi	s0,a5,28
1c000922:	1c0005b7          	lui	a1,0x1c000
1c000926:	c388                	sw	a0,0(a5)
1c000928:	c790                	sw	a2,8(a5)
1c00092a:	8522                	mv	a0,s0
1c00092c:	c7d4                	sw	a3,12(a5)
1c00092e:	0007aa23          	sw	zero,20(a5)
1c000932:	08078c23          	sb	zero,152(a5)
1c000936:	0ae78023          	sb	a4,160(a5)
1c00093a:	863e                	mv	a2,a5
1c00093c:	5a458593          	addi	a1,a1,1444 # 0x1c0005a4
1c000940:	c606                	sw	ra,12(sp)
1c000942:	679060ef          	jal	ra,0x1c0077ba
1c000946:	8522                	mv	a0,s0
1c000948:	4422                	lw	s0,8(sp)
1c00094a:	40b2                	lw	ra,12(sp)
1c00094c:	0141                	addi	sp,sp,16
1c00094e:	67f0606f          	j	0x1c0077cc
1c000952:	00f8aa23          	sw	a5,20(a7)
1c000956:	014027f3          	csrr	a5,uhartid
1c00095a:	8795                	srai	a5,a5,0x5
1c00095c:	1141                	addi	sp,sp,-16
1c00095e:	f267b7b3          	p.bclr	a5,a5,25,6
1c000962:	c422                	sw	s0,8(sp)
1c000964:	00b8a223          	sw	a1,4(a7)
1c000968:	01c88413          	addi	s0,a7,28
1c00096c:	1c0005b7          	lui	a1,0x1c000
1c000970:	00a8a023          	sw	a0,0(a7)
1c000974:	00c8a423          	sw	a2,8(a7)
1c000978:	8522                	mv	a0,s0
1c00097a:	00d8a623          	sw	a3,12(a7)
1c00097e:	00e8a823          	sw	a4,16(a7)
1c000982:	0108ac23          	sw	a6,24(a7)
1c000986:	08088c23          	sb	zero,152(a7)
1c00098a:	0af88023          	sb	a5,160(a7)
1c00098e:	8646                	mv	a2,a7
1c000990:	5a458593          	addi	a1,a1,1444 # 0x1c0005a4
1c000994:	c606                	sw	ra,12(sp)
1c000996:	625060ef          	jal	ra,0x1c0077ba
1c00099a:	8522                	mv	a0,s0
1c00099c:	4422                	lw	s0,8(sp)
1c00099e:	40b2                	lw	ra,12(sp)
1c0009a0:	0141                	addi	sp,sp,16
1c0009a2:	62b0606f          	j	0x1c0077cc
1c0009a6:	4501                	li	a0,0
1c0009a8:	8082                	ret
1c0009aa:	8082                	ret
1c0009ac:	0a452503          	lw	a0,164(a0)
1c0009b0:	1670006f          	j	0x1c001316
1c0009b4:	7179                	addi	sp,sp,-48
1c0009b6:	d422                	sw	s0,40(sp)
1c0009b8:	d226                	sw	s1,36(sp)
1c0009ba:	d04a                	sw	s2,32(sp)
1c0009bc:	ce4e                	sw	s3,28(sp)
1c0009be:	cc52                	sw	s4,24(sp)
1c0009c0:	ca56                	sw	s5,20(sp)
1c0009c2:	c85a                	sw	s6,16(sp)
1c0009c4:	c65e                	sw	s7,12(sp)
1c0009c6:	c462                	sw	s8,8(sp)
1c0009c8:	d606                	sw	ra,44(sp)
1c0009ca:	89aa                	mv	s3,a0
1c0009cc:	8a2e                	mv	s4,a1
1c0009ce:	84b2                	mv	s1,a2
1c0009d0:	8b36                	mv	s6,a3
1c0009d2:	8bba                	mv	s7,a4
1c0009d4:	843e                	mv	s0,a5
1c0009d6:	8c42                	mv	s8,a6
1c0009d8:	8ac6                	mv	s5,a7
1c0009da:	4901                	li	s2,0
1c0009dc:	03696263          	bltu	s2,s6,0x1c000a00
1c0009e0:	8556                	mv	a0,s5
1c0009e2:	6c9050ef          	jal	ra,0x1c0068aa
1c0009e6:	4501                	li	a0,0
1c0009e8:	50b2                	lw	ra,44(sp)
1c0009ea:	5422                	lw	s0,40(sp)
1c0009ec:	5492                	lw	s1,36(sp)
1c0009ee:	5902                	lw	s2,32(sp)
1c0009f0:	49f2                	lw	s3,28(sp)
1c0009f2:	4a62                	lw	s4,24(sp)
1c0009f4:	4ad2                	lw	s5,20(sp)
1c0009f6:	4b42                	lw	s6,16(sp)
1c0009f8:	4bb2                	lw	s7,12(sp)
1c0009fa:	4c22                	lw	s8,8(sp)
1c0009fc:	6145                	addi	sp,sp,48
1c0009fe:	8082                	ret
1c000a00:	85d2                	mv	a1,s4
1c000a02:	854e                	mv	a0,s3
1c000a04:	05645433          	p.minu	s0,s0,s6
1c000a08:	3755                	jal	0x1c0009ac
1c000a0a:	e10d                	bnez	a0,0x1c000a2c
1c000a0c:	8622                	mv	a2,s0
1c000a0e:	85a6                	mv	a1,s1
1c000a10:	854e                	mv	a0,s3
1c000a12:	000c0a63          	beqz	s8,0x1c000a26
1c000a16:	ee2ff0ef          	jal	ra,0x1c0000f8
1c000a1a:	00851963          	bne	a0,s0,0x1c000a2c
1c000a1e:	94a2                	add	s1,s1,s0
1c000a20:	9a5e                	add	s4,s4,s7
1c000a22:	9922                	add	s2,s2,s0
1c000a24:	bf65                	j	0x1c0009dc
1c000a26:	f04ff0ef          	jal	ra,0x1c00012a
1c000a2a:	bfc5                	j	0x1c000a1a
1c000a2c:	8556                	mv	a0,s5
1c000a2e:	67d050ef          	jal	ra,0x1c0068aa
1c000a32:	557d                	li	a0,-1
1c000a34:	bf55                	j	0x1c0009e8
1c000a36:	0a452503          	lw	a0,164(a0)
1c000a3a:	1101                	addi	sp,sp,-32
1c000a3c:	ce06                	sw	ra,28(sp)
1c000a3e:	cc22                	sw	s0,24(sp)
1c000a40:	ca26                	sw	s1,20(sp)
1c000a42:	c636                	sw	a3,12(sp)
1c000a44:	84b2                	mv	s1,a2
1c000a46:	0b5000ef          	jal	ra,0x1c0012fa
1c000a4a:	46b2                	lw	a3,12(sp)
1c000a4c:	842a                	mv	s0,a0
1c000a4e:	8536                	mv	a0,a3
1c000a50:	65b050ef          	jal	ra,0x1c0068aa
1c000a54:	40848533          	sub	a0,s1,s0
1c000a58:	40f2                	lw	ra,28(sp)
1c000a5a:	4462                	lw	s0,24(sp)
1c000a5c:	44d2                	lw	s1,20(sp)
1c000a5e:	6105                	addi	sp,sp,32
1c000a60:	8082                	ret
1c000a62:	0a452503          	lw	a0,164(a0)
1c000a66:	1101                	addi	sp,sp,-32
1c000a68:	ce06                	sw	ra,28(sp)
1c000a6a:	cc22                	sw	s0,24(sp)
1c000a6c:	ca26                	sw	s1,20(sp)
1c000a6e:	c636                	sw	a3,12(sp)
1c000a70:	84b2                	mv	s1,a2
1c000a72:	06d000ef          	jal	ra,0x1c0012de
1c000a76:	46b2                	lw	a3,12(sp)
1c000a78:	842a                	mv	s0,a0
1c000a7a:	8536                	mv	a0,a3
1c000a7c:	62f050ef          	jal	ra,0x1c0068aa
1c000a80:	40848533          	sub	a0,s1,s0
1c000a84:	40f2                	lw	ra,28(sp)
1c000a86:	4462                	lw	s0,24(sp)
1c000a88:	44d2                	lw	s1,20(sp)
1c000a8a:	6105                	addi	sp,sp,32
1c000a8c:	8082                	ret
1c000a8e:	1101                	addi	sp,sp,-32
1c000a90:	cc22                	sw	s0,24(sp)
1c000a92:	ca26                	sw	s1,20(sp)
1c000a94:	c636                	sw	a3,12(sp)
1c000a96:	84b2                	mv	s1,a2
1c000a98:	c43a                	sw	a4,8(sp)
1c000a9a:	ce06                	sw	ra,28(sp)
1c000a9c:	842a                	mv	s0,a0
1c000a9e:	c23e                	sw	a5,4(sp)
1c000aa0:	3731                	jal	0x1c0009ac
1c000aa2:	4632                	lw	a2,12(sp)
1c000aa4:	4692                	lw	a3,4(sp)
1c000aa6:	4722                	lw	a4,8(sp)
1c000aa8:	ed11                	bnez	a0,0x1c000ac4
1c000aaa:	85a6                	mv	a1,s1
1c000aac:	8522                	mv	a0,s0
1c000aae:	c711                	beqz	a4,0x1c000aba
1c000ab0:	4462                	lw	s0,24(sp)
1c000ab2:	40f2                	lw	ra,28(sp)
1c000ab4:	44d2                	lw	s1,20(sp)
1c000ab6:	6105                	addi	sp,sp,32
1c000ab8:	b76d                	j	0x1c000a62
1c000aba:	4462                	lw	s0,24(sp)
1c000abc:	40f2                	lw	ra,28(sp)
1c000abe:	44d2                	lw	s1,20(sp)
1c000ac0:	6105                	addi	sp,sp,32
1c000ac2:	bf95                	j	0x1c000a36
1c000ac4:	40f2                	lw	ra,28(sp)
1c000ac6:	4462                	lw	s0,24(sp)
1c000ac8:	44d2                	lw	s1,20(sp)
1c000aca:	557d                	li	a0,-1
1c000acc:	6105                	addi	sp,sp,32
1c000ace:	8082                	ret
1c000ad0:	bf49                	j	0x1c000a62
1c000ad2:	0a452503          	lw	a0,164(a0)
1c000ad6:	0030006f          	j	0x1c0012d8
1c000ada:	1101                	addi	sp,sp,-32
1c000adc:	c84a                	sw	s2,16(sp)
1c000ade:	892a                	mv	s2,a0
1c000ae0:	0a800513          	li	a0,168
1c000ae4:	ca26                	sw	s1,20(sp)
1c000ae6:	c632                	sw	a2,12(sp)
1c000ae8:	ce06                	sw	ra,28(sp)
1c000aea:	cc22                	sw	s0,24(sp)
1c000aec:	84ae                	mv	s1,a1
1c000aee:	7f3050ef          	jal	ra,0x1c006ae0
1c000af2:	4632                	lw	a2,12(sp)
1c000af4:	e909                	bnez	a0,0x1c000b06
1c000af6:	4401                	li	s0,0
1c000af8:	8522                	mv	a0,s0
1c000afa:	40f2                	lw	ra,28(sp)
1c000afc:	4462                	lw	s0,24(sp)
1c000afe:	44d2                	lw	s1,20(sp)
1c000b00:	4942                	lw	s2,16(sp)
1c000b02:	6105                	addi	sp,sp,32
1c000b04:	8082                	ret
1c000b06:	01252823          	sw	s2,16(a0)
1c000b0a:	842a                	mv	s0,a0
1c000b0c:	04200593          	li	a1,66
1c000b10:	00162363          	p.beqimm	a2,1,0x1c000b16
1c000b14:	4581                	li	a1,0
1c000b16:	8526                	mv	a0,s1
1c000b18:	796000ef          	jal	ra,0x1c0012ae
1c000b1c:	0aa42223          	sw	a0,164(s0)
1c000b20:	fdf53ce3          	p.bneimm	a0,-1,0x1c000af8
1c000b24:	bfc9                	j	0x1c000af6
1c000b26:	e589                	bnez	a1,0x1c000b30
1c000b28:	000407b7          	lui	a5,0x40
1c000b2c:	c21c                	sw	a5,0(a2)
1c000b2e:	c25c                	sw	a5,4(a2)
1c000b30:	4501                	li	a0,0
1c000b32:	8082                	ret
1c000b34:	30047373          	csrrci	t1,mstatus,8
1c000b38:	01852e03          	lw	t3,24(a0)
1c000b3c:	020e0763          	beqz	t3,0x1c000b6a
1c000b40:	d9d0                	sw	a2,52(a1)
1c000b42:	dd94                	sw	a3,56(a1)
1c000b44:	ddd8                	sw	a4,60(a1)
1c000b46:	c1bc                	sw	a5,64(a1)
1c000b48:	0505a223          	sw	a6,68(a1)
1c000b4c:	0515a423          	sw	a7,72(a1)
1c000b50:	491c                	lw	a5,16(a0)
1c000b52:	cb91                	beqz	a5,0x1c000b66
1c000b54:	495c                	lw	a5,20(a0)
1c000b56:	cf8c                	sw	a1,24(a5)
1c000b58:	c94c                	sw	a1,20(a0)
1c000b5a:	0005ac23          	sw	zero,24(a1)
1c000b5e:	30031073          	csrw	mstatus,t1
1c000b62:	4505                	li	a0,1
1c000b64:	8082                	ret
1c000b66:	c90c                	sw	a1,16(a0)
1c000b68:	bfc5                	j	0x1c000b58
1c000b6a:	cd0c                	sw	a1,24(a0)
1c000b6c:	30031073          	csrw	mstatus,t1
1c000b70:	4501                	li	a0,0
1c000b72:	8082                	ret
1c000b74:	1101                	addi	sp,sp,-32
1c000b76:	cc22                	sw	s0,24(sp)
1c000b78:	4500                	lw	s0,8(a0)
1c000b7a:	ca26                	sw	s1,20(sp)
1c000b7c:	84ae                	mv	s1,a1
1c000b7e:	c84a                	sw	s2,16(sp)
1c000b80:	c64e                	sw	s3,12(sp)
1c000b82:	c452                	sw	s4,8(sp)
1c000b84:	c256                	sw	s5,4(sp)
1c000b86:	c05a                	sw	s6,0(sp)
1c000b88:	8932                	mv	s2,a2
1c000b8a:	8b2a                	mv	s6,a0
1c000b8c:	89b6                	mv	s3,a3
1c000b8e:	8a3a                	mv	s4,a4
1c000b90:	8abe                	mv	s5,a5
1c000b92:	85c2                	mv	a1,a6
1c000b94:	88be                	mv	a7,a5
1c000b96:	883a                	mv	a6,a4
1c000b98:	87b6                	mv	a5,a3
1c000b9a:	8732                	mv	a4,a2
1c000b9c:	86a6                	mv	a3,s1
1c000b9e:	4619                	li	a2,6
1c000ba0:	8522                	mv	a0,s0
1c000ba2:	ce06                	sw	ra,28(sp)
1c000ba4:	3f41                	jal	0x1c000b34
1c000ba6:	ed05                	bnez	a0,0x1c000bde
1c000ba8:	1c0015b7          	lui	a1,0x1c001
1c000bac:	865a                	mv	a2,s6
1c000bae:	d2658593          	addi	a1,a1,-730 # 0x1c000d26
1c000bb2:	02840513          	addi	a0,s0,40
1c000bb6:	405060ef          	jal	ra,0x1c0077ba
1c000bba:	882a                	mv	a6,a0
1c000bbc:	8522                	mv	a0,s0
1c000bbe:	4462                	lw	s0,24(sp)
1c000bc0:	40f2                	lw	ra,28(sp)
1c000bc2:	4b02                	lw	s6,0(sp)
1c000bc4:	87d6                	mv	a5,s5
1c000bc6:	8752                	mv	a4,s4
1c000bc8:	4a92                	lw	s5,4(sp)
1c000bca:	4a22                	lw	s4,8(sp)
1c000bcc:	86ce                	mv	a3,s3
1c000bce:	864a                	mv	a2,s2
1c000bd0:	49b2                	lw	s3,12(sp)
1c000bd2:	4942                	lw	s2,16(sp)
1c000bd4:	85a6                	mv	a1,s1
1c000bd6:	44d2                	lw	s1,20(sp)
1c000bd8:	6105                	addi	sp,sp,32
1c000bda:	5f60706f          	j	0x1c0081d0
1c000bde:	40f2                	lw	ra,28(sp)
1c000be0:	4462                	lw	s0,24(sp)
1c000be2:	44d2                	lw	s1,20(sp)
1c000be4:	4942                	lw	s2,16(sp)
1c000be6:	49b2                	lw	s3,12(sp)
1c000be8:	4a22                	lw	s4,8(sp)
1c000bea:	4a92                	lw	s5,4(sp)
1c000bec:	4b02                	lw	s6,0(sp)
1c000bee:	6105                	addi	sp,sp,32
1c000bf0:	8082                	ret
1c000bf2:	00080a63          	beqz	a6,0x1c000c06
1c000bf6:	1141                	addi	sp,sp,-16
1c000bf8:	8846                	mv	a6,a7
1c000bfa:	c606                	sw	ra,12(sp)
1c000bfc:	3fa5                	jal	0x1c000b74
1c000bfe:	40b2                	lw	ra,12(sp)
1c000c00:	4501                	li	a0,0
1c000c02:	0141                	addi	sp,sp,16
1c000c04:	8082                	ret
1c000c06:	557d                	li	a0,-1
1c000c08:	8082                	ret
1c000c0a:	00c51623          	sh	a2,12(a0)
1c000c0e:	4689                	li	a3,2
1c000c10:	00c50613          	addi	a2,a0,12
1c000c14:	2160706f          	j	0x1c007e2a
1c000c18:	1101                	addi	sp,sp,-32
1c000c1a:	cc22                	sw	s0,24(sp)
1c000c1c:	4500                	lw	s0,8(a0)
1c000c1e:	c64e                	sw	s3,12(sp)
1c000c20:	89ae                	mv	s3,a1
1c000c22:	c84a                	sw	s2,16(sp)
1c000c24:	85b2                	mv	a1,a2
1c000c26:	892a                	mv	s2,a0
1c000c28:	4881                	li	a7,0
1c000c2a:	4801                	li	a6,0
1c000c2c:	4781                	li	a5,0
1c000c2e:	4701                	li	a4,0
1c000c30:	86ce                	mv	a3,s3
1c000c32:	4609                	li	a2,2
1c000c34:	8522                	mv	a0,s0
1c000c36:	ce06                	sw	ra,28(sp)
1c000c38:	ca26                	sw	s1,20(sp)
1c000c3a:	3ded                	jal	0x1c000b34
1c000c3c:	e92d                	bnez	a0,0x1c000cae
1c000c3e:	6485                	lui	s1,0x1
1c000c40:	aaa48593          	addi	a1,s1,-1366 # 0xaaa
1c000c44:	8522                	mv	a0,s0
1c000c46:	0aa00613          	li	a2,170
1c000c4a:	37c1                	jal	0x1c000c0a
1c000c4c:	8522                	mv	a0,s0
1c000c4e:	05500613          	li	a2,85
1c000c52:	55400593          	li	a1,1364
1c000c56:	3f55                	jal	0x1c000c0a
1c000c58:	aaa48593          	addi	a1,s1,-1366
1c000c5c:	8522                	mv	a0,s0
1c000c5e:	08000613          	li	a2,128
1c000c62:	3765                	jal	0x1c000c0a
1c000c64:	aaa48593          	addi	a1,s1,-1366
1c000c68:	8522                	mv	a0,s0
1c000c6a:	0aa00613          	li	a2,170
1c000c6e:	3f71                	jal	0x1c000c0a
1c000c70:	8522                	mv	a0,s0
1c000c72:	05500613          	li	a2,85
1c000c76:	55400593          	li	a1,1364
1c000c7a:	3f41                	jal	0x1c000c0a
1c000c7c:	85ce                	mv	a1,s3
1c000c7e:	8522                	mv	a0,s0
1c000c80:	03000613          	li	a2,48
1c000c84:	3759                	jal	0x1c000c0a
1c000c86:	1c0015b7          	lui	a1,0x1c001
1c000c8a:	864a                	mv	a2,s2
1c000c8c:	1f858593          	addi	a1,a1,504 # 0x1c0011f8
1c000c90:	02840513          	addi	a0,s0,40
1c000c94:	327060ef          	jal	ra,0x1c0077ba
1c000c98:	4462                	lw	s0,24(sp)
1c000c9a:	40f2                	lw	ra,28(sp)
1c000c9c:	44d2                	lw	s1,20(sp)
1c000c9e:	4942                	lw	s2,16(sp)
1c000ca0:	49b2                	lw	s3,12(sp)
1c000ca2:	65e1                	lui	a1,0x18
1c000ca4:	6a058593          	addi	a1,a1,1696 # 0x186a0
1c000ca8:	6105                	addi	sp,sp,32
1c000caa:	4570506f          	j	0x1c006900
1c000cae:	40f2                	lw	ra,28(sp)
1c000cb0:	4462                	lw	s0,24(sp)
1c000cb2:	44d2                	lw	s1,20(sp)
1c000cb4:	4942                	lw	s2,16(sp)
1c000cb6:	49b2                	lw	s3,12(sp)
1c000cb8:	6105                	addi	sp,sp,32
1c000cba:	8082                	ret
1c000cbc:	1101                	addi	sp,sp,-32
1c000cbe:	cc22                	sw	s0,24(sp)
1c000cc0:	4500                	lw	s0,8(a0)
1c000cc2:	ca26                	sw	s1,20(sp)
1c000cc4:	84ae                	mv	s1,a1
1c000cc6:	c84a                	sw	s2,16(sp)
1c000cc8:	c64e                	sw	s3,12(sp)
1c000cca:	c452                	sw	s4,8(sp)
1c000ccc:	8932                	mv	s2,a2
1c000cce:	8a2a                	mv	s4,a0
1c000cd0:	89b6                	mv	s3,a3
1c000cd2:	85ba                	mv	a1,a4
1c000cd4:	87b6                	mv	a5,a3
1c000cd6:	8732                	mv	a4,a2
1c000cd8:	4881                	li	a7,0
1c000cda:	4801                	li	a6,0
1c000cdc:	86a6                	mv	a3,s1
1c000cde:	4615                	li	a2,5
1c000ce0:	8522                	mv	a0,s0
1c000ce2:	ce06                	sw	ra,28(sp)
1c000ce4:	3d81                	jal	0x1c000b34
1c000ce6:	e905                	bnez	a0,0x1c000d16
1c000ce8:	1c0015b7          	lui	a1,0x1c001
1c000cec:	8652                	mv	a2,s4
1c000cee:	d2658593          	addi	a1,a1,-730 # 0x1c000d26
1c000cf2:	02840513          	addi	a0,s0,40
1c000cf6:	2c5060ef          	jal	ra,0x1c0077ba
1c000cfa:	872a                	mv	a4,a0
1c000cfc:	8522                	mv	a0,s0
1c000cfe:	4462                	lw	s0,24(sp)
1c000d00:	40f2                	lw	ra,28(sp)
1c000d02:	4a22                	lw	s4,8(sp)
1c000d04:	86ce                	mv	a3,s3
1c000d06:	864a                	mv	a2,s2
1c000d08:	49b2                	lw	s3,12(sp)
1c000d0a:	4942                	lw	s2,16(sp)
1c000d0c:	85a6                	mv	a1,s1
1c000d0e:	44d2                	lw	s1,20(sp)
1c000d10:	6105                	addi	sp,sp,32
1c000d12:	0c80706f          	j	0x1c007dda
1c000d16:	40f2                	lw	ra,28(sp)
1c000d18:	4462                	lw	s0,24(sp)
1c000d1a:	44d2                	lw	s1,20(sp)
1c000d1c:	4942                	lw	s2,16(sp)
1c000d1e:	49b2                	lw	s3,12(sp)
1c000d20:	4a22                	lw	s4,8(sp)
1c000d22:	6105                	addi	sp,sp,32
1c000d24:	8082                	ret
1c000d26:	1141                	addi	sp,sp,-16
1c000d28:	c226                	sw	s1,4(sp)
1c000d2a:	4504                	lw	s1,8(a0)
1c000d2c:	c422                	sw	s0,8(sp)
1c000d2e:	842a                	mv	s0,a0
1c000d30:	c606                	sw	ra,12(sp)
1c000d32:	c04a                	sw	s2,0(sp)
1c000d34:	30047973          	csrrci	s2,mstatus,8
1c000d38:	4c88                	lw	a0,24(s1)
1c000d3a:	371050ef          	jal	ra,0x1c0068aa
1c000d3e:	4898                	lw	a4,16(s1)
1c000d40:	0004ac23          	sw	zero,24(s1)
1c000d44:	c319                	beqz	a4,0x1c000d4a
1c000d46:	4f1c                	lw	a5,24(a4)
1c000d48:	c89c                	sw	a5,16(s1)
1c000d4a:	30091073          	csrw	mstatus,s2
1c000d4e:	cb45                	beqz	a4,0x1c000dfe
1c000d50:	5b5c                	lw	a5,52(a4)
1c000d52:	eb99                	bnez	a5,0x1c000d68
1c000d54:	8522                	mv	a0,s0
1c000d56:	4422                	lw	s0,8(sp)
1c000d58:	40b2                	lw	ra,12(sp)
1c000d5a:	4492                	lw	s1,4(sp)
1c000d5c:	4902                	lw	s2,0(sp)
1c000d5e:	4334                	lw	a3,64(a4)
1c000d60:	5f50                	lw	a2,60(a4)
1c000d62:	5f0c                	lw	a1,56(a4)
1c000d64:	0141                	addi	sp,sp,16
1c000d66:	a449                	j	0x1c000fe8
1c000d68:	0017ba63          	p.bneimm	a5,1,0x1c000d7c
1c000d6c:	8522                	mv	a0,s0
1c000d6e:	4422                	lw	s0,8(sp)
1c000d70:	40b2                	lw	ra,12(sp)
1c000d72:	4492                	lw	s1,4(sp)
1c000d74:	4902                	lw	s2,0(sp)
1c000d76:	85ba                	mv	a1,a4
1c000d78:	0141                	addi	sp,sp,16
1c000d7a:	aa35                	j	0x1c000eb6
1c000d7c:	0027bb63          	p.bneimm	a5,2,0x1c000d92
1c000d80:	8522                	mv	a0,s0
1c000d82:	4422                	lw	s0,8(sp)
1c000d84:	40b2                	lw	ra,12(sp)
1c000d86:	4492                	lw	s1,4(sp)
1c000d88:	4902                	lw	s2,0(sp)
1c000d8a:	5f0c                	lw	a1,56(a4)
1c000d8c:	863a                	mv	a2,a4
1c000d8e:	0141                	addi	sp,sp,16
1c000d90:	b561                	j	0x1c000c18
1c000d92:	0037bc63          	p.bneimm	a5,3,0x1c000daa
1c000d96:	8522                	mv	a0,s0
1c000d98:	4422                	lw	s0,8(sp)
1c000d9a:	40b2                	lw	ra,12(sp)
1c000d9c:	4492                	lw	s1,4(sp)
1c000d9e:	4902                	lw	s2,0(sp)
1c000da0:	5f50                	lw	a2,60(a4)
1c000da2:	5f0c                	lw	a1,56(a4)
1c000da4:	86ba                	mv	a3,a4
1c000da6:	0141                	addi	sp,sp,16
1c000da8:	a87d                	j	0x1c000e66
1c000daa:	0047bc63          	p.bneimm	a5,4,0x1c000dc2
1c000dae:	8522                	mv	a0,s0
1c000db0:	4422                	lw	s0,8(sp)
1c000db2:	40b2                	lw	ra,12(sp)
1c000db4:	4492                	lw	s1,4(sp)
1c000db6:	4902                	lw	s2,0(sp)
1c000db8:	5f50                	lw	a2,60(a4)
1c000dba:	5f0c                	lw	a1,56(a4)
1c000dbc:	86ba                	mv	a3,a4
1c000dbe:	0141                	addi	sp,sp,16
1c000dc0:	a0a9                	j	0x1c000e0a
1c000dc2:	0057bc63          	p.bneimm	a5,5,0x1c000dda
1c000dc6:	8522                	mv	a0,s0
1c000dc8:	4422                	lw	s0,8(sp)
1c000dca:	40b2                	lw	ra,12(sp)
1c000dcc:	4492                	lw	s1,4(sp)
1c000dce:	4902                	lw	s2,0(sp)
1c000dd0:	4334                	lw	a3,64(a4)
1c000dd2:	5f50                	lw	a2,60(a4)
1c000dd4:	5f0c                	lw	a1,56(a4)
1c000dd6:	0141                	addi	sp,sp,16
1c000dd8:	b5d5                	j	0x1c000cbc
1c000dda:	0267b263          	p.bneimm	a5,6,0x1c000dfe
1c000dde:	883a                	mv	a6,a4
1c000de0:	8522                	mv	a0,s0
1c000de2:	4422                	lw	s0,8(sp)
1c000de4:	473c                	lw	a5,72(a4)
1c000de6:	40b2                	lw	ra,12(sp)
1c000de8:	4492                	lw	s1,4(sp)
1c000dea:	4902                	lw	s2,0(sp)
1c000dec:	4378                	lw	a4,68(a4)
1c000dee:	04082683          	lw	a3,64(a6)
1c000df2:	03c82603          	lw	a2,60(a6)
1c000df6:	03882583          	lw	a1,56(a6)
1c000dfa:	0141                	addi	sp,sp,16
1c000dfc:	bba5                	j	0x1c000b74
1c000dfe:	40b2                	lw	ra,12(sp)
1c000e00:	4422                	lw	s0,8(sp)
1c000e02:	4492                	lw	s1,4(sp)
1c000e04:	4902                	lw	s2,0(sp)
1c000e06:	0141                	addi	sp,sp,16
1c000e08:	8082                	ret
1c000e0a:	1101                	addi	sp,sp,-32
1c000e0c:	cc22                	sw	s0,24(sp)
1c000e0e:	4500                	lw	s0,8(a0)
1c000e10:	c64e                	sw	s3,12(sp)
1c000e12:	89ae                	mv	s3,a1
1c000e14:	ca26                	sw	s1,20(sp)
1c000e16:	c84a                	sw	s2,16(sp)
1c000e18:	84aa                	mv	s1,a0
1c000e1a:	8932                	mv	s2,a2
1c000e1c:	85b6                	mv	a1,a3
1c000e1e:	8732                	mv	a4,a2
1c000e20:	4881                	li	a7,0
1c000e22:	4801                	li	a6,0
1c000e24:	4781                	li	a5,0
1c000e26:	86ce                	mv	a3,s3
1c000e28:	4611                	li	a2,4
1c000e2a:	8522                	mv	a0,s0
1c000e2c:	ce06                	sw	ra,28(sp)
1c000e2e:	3319                	jal	0x1c000b34
1c000e30:	e505                	bnez	a0,0x1c000e58
1c000e32:	8522                	mv	a0,s0
1c000e34:	00c40613          	addi	a2,s0,12
1c000e38:	85ce                	mv	a1,s3
1c000e3a:	4691                	li	a3,4
1c000e3c:	7b5060ef          	jal	ra,0x1c007df0
1c000e40:	00c45783          	lhu	a5,12(s0)
1c000e44:	4462                	lw	s0,24(sp)
1c000e46:	40f2                	lw	ra,28(sp)
1c000e48:	00f91023          	sh	a5,0(s2)
1c000e4c:	49b2                	lw	s3,12(sp)
1c000e4e:	4942                	lw	s2,16(sp)
1c000e50:	8526                	mv	a0,s1
1c000e52:	44d2                	lw	s1,20(sp)
1c000e54:	6105                	addi	sp,sp,32
1c000e56:	bdc1                	j	0x1c000d26
1c000e58:	40f2                	lw	ra,28(sp)
1c000e5a:	4462                	lw	s0,24(sp)
1c000e5c:	44d2                	lw	s1,20(sp)
1c000e5e:	4942                	lw	s2,16(sp)
1c000e60:	49b2                	lw	s3,12(sp)
1c000e62:	6105                	addi	sp,sp,32
1c000e64:	8082                	ret
1c000e66:	1101                	addi	sp,sp,-32
1c000e68:	ca26                	sw	s1,20(sp)
1c000e6a:	4504                	lw	s1,8(a0)
1c000e6c:	c84a                	sw	s2,16(sp)
1c000e6e:	892e                	mv	s2,a1
1c000e70:	cc22                	sw	s0,24(sp)
1c000e72:	c64e                	sw	s3,12(sp)
1c000e74:	842a                	mv	s0,a0
1c000e76:	89b2                	mv	s3,a2
1c000e78:	85b6                	mv	a1,a3
1c000e7a:	8732                	mv	a4,a2
1c000e7c:	4881                	li	a7,0
1c000e7e:	4801                	li	a6,0
1c000e80:	4781                	li	a5,0
1c000e82:	86ca                	mv	a3,s2
1c000e84:	460d                	li	a2,3
1c000e86:	8526                	mv	a0,s1
1c000e88:	ce06                	sw	ra,28(sp)
1c000e8a:	316d                	jal	0x1c000b34
1c000e8c:	ed11                	bnez	a0,0x1c000ea8
1c000e8e:	0009d603          	lhu	a2,0(s3)
1c000e92:	8526                	mv	a0,s1
1c000e94:	85ca                	mv	a1,s2
1c000e96:	3b95                	jal	0x1c000c0a
1c000e98:	8522                	mv	a0,s0
1c000e9a:	4462                	lw	s0,24(sp)
1c000e9c:	40f2                	lw	ra,28(sp)
1c000e9e:	44d2                	lw	s1,20(sp)
1c000ea0:	4942                	lw	s2,16(sp)
1c000ea2:	49b2                	lw	s3,12(sp)
1c000ea4:	6105                	addi	sp,sp,32
1c000ea6:	b541                	j	0x1c000d26
1c000ea8:	40f2                	lw	ra,28(sp)
1c000eaa:	4462                	lw	s0,24(sp)
1c000eac:	44d2                	lw	s1,20(sp)
1c000eae:	4942                	lw	s2,16(sp)
1c000eb0:	49b2                	lw	s3,12(sp)
1c000eb2:	6105                	addi	sp,sp,32
1c000eb4:	8082                	ret
1c000eb6:	1141                	addi	sp,sp,-16
1c000eb8:	c422                	sw	s0,8(sp)
1c000eba:	4500                	lw	s0,8(a0)
1c000ebc:	c04a                	sw	s2,0(sp)
1c000ebe:	4881                	li	a7,0
1c000ec0:	892a                	mv	s2,a0
1c000ec2:	4801                	li	a6,0
1c000ec4:	4781                	li	a5,0
1c000ec6:	4701                	li	a4,0
1c000ec8:	4681                	li	a3,0
1c000eca:	4605                	li	a2,1
1c000ecc:	8522                	mv	a0,s0
1c000ece:	c606                	sw	ra,12(sp)
1c000ed0:	c226                	sw	s1,4(sp)
1c000ed2:	318d                	jal	0x1c000b34
1c000ed4:	ed21                	bnez	a0,0x1c000f2c
1c000ed6:	6485                	lui	s1,0x1
1c000ed8:	aaa48593          	addi	a1,s1,-1366 # 0xaaa
1c000edc:	8522                	mv	a0,s0
1c000ede:	0aa00613          	li	a2,170
1c000ee2:	3325                	jal	0x1c000c0a
1c000ee4:	8522                	mv	a0,s0
1c000ee6:	05500613          	li	a2,85
1c000eea:	55400593          	li	a1,1364
1c000eee:	3b31                	jal	0x1c000c0a
1c000ef0:	aaa48593          	addi	a1,s1,-1366
1c000ef4:	8522                	mv	a0,s0
1c000ef6:	08000613          	li	a2,128
1c000efa:	3b01                	jal	0x1c000c0a
1c000efc:	aaa48593          	addi	a1,s1,-1366
1c000f00:	8522                	mv	a0,s0
1c000f02:	0aa00613          	li	a2,170
1c000f06:	3311                	jal	0x1c000c0a
1c000f08:	8522                	mv	a0,s0
1c000f0a:	05500613          	li	a2,85
1c000f0e:	55400593          	li	a1,1364
1c000f12:	39e5                	jal	0x1c000c0a
1c000f14:	8522                	mv	a0,s0
1c000f16:	aaa48593          	addi	a1,s1,-1366
1c000f1a:	4641                	li	a2,16
1c000f1c:	31fd                	jal	0x1c000c0a
1c000f1e:	4422                	lw	s0,8(sp)
1c000f20:	40b2                	lw	ra,12(sp)
1c000f22:	4492                	lw	s1,4(sp)
1c000f24:	854a                	mv	a0,s2
1c000f26:	4902                	lw	s2,0(sp)
1c000f28:	0141                	addi	sp,sp,16
1c000f2a:	bbf5                	j	0x1c000d26
1c000f2c:	40b2                	lw	ra,12(sp)
1c000f2e:	4422                	lw	s0,8(sp)
1c000f30:	4492                	lw	s1,4(sp)
1c000f32:	4902                	lw	s2,0(sp)
1c000f34:	0141                	addi	sp,sp,16
1c000f36:	8082                	ret
1c000f38:	1101                	addi	sp,sp,-32
1c000f3a:	cc22                	sw	s0,24(sp)
1c000f3c:	4500                	lw	s0,8(a0)
1c000f3e:	ca26                	sw	s1,20(sp)
1c000f40:	ce06                	sw	ra,28(sp)
1c000f42:	12842483          	lw	s1,296(s0)
1c000f46:	c84a                	sw	s2,16(sp)
1c000f48:	c64e                	sw	s3,12(sp)
1c000f4a:	c452                	sw	s4,8(sp)
1c000f4c:	e889                	bnez	s1,0x1c000f5e
1c000f4e:	4462                	lw	s0,24(sp)
1c000f50:	40f2                	lw	ra,28(sp)
1c000f52:	44d2                	lw	s1,20(sp)
1c000f54:	4942                	lw	s2,16(sp)
1c000f56:	49b2                	lw	s3,12(sp)
1c000f58:	4a22                	lw	s4,8(sp)
1c000f5a:	6105                	addi	sp,sp,32
1c000f5c:	b3e9                	j	0x1c000d26
1c000f5e:	12042683          	lw	a3,288(s0)
1c000f62:	6985                	lui	s3,0x1
1c000f64:	892a                	mv	s2,a0
1c000f66:	ec96b7b3          	p.bclr	a5,a3,22,9
1c000f6a:	20000693          	li	a3,512
1c000f6e:	8e9d                	sub	a3,a3,a5
1c000f70:	aaa98593          	addi	a1,s3,-1366 # 0xaaa
1c000f74:	8522                	mv	a0,s0
1c000f76:	0aa00613          	li	a2,170
1c000f7a:	04d4d4b3          	p.minu	s1,s1,a3
1c000f7e:	3171                	jal	0x1c000c0a
1c000f80:	8522                	mv	a0,s0
1c000f82:	05500613          	li	a2,85
1c000f86:	55400593          	li	a1,1364
1c000f8a:	3141                	jal	0x1c000c0a
1c000f8c:	aaa98593          	addi	a1,s3,-1366
1c000f90:	8522                	mv	a0,s0
1c000f92:	0a000613          	li	a2,160
1c000f96:	3995                	jal	0x1c000c0a
1c000f98:	12042983          	lw	s3,288(s0)
1c000f9c:	12442a03          	lw	s4,292(s0)
1c000fa0:	1c0015b7          	lui	a1,0x1c001
1c000fa4:	009987b3          	add	a5,s3,s1
1c000fa8:	12f42023          	sw	a5,288(s0)
1c000fac:	009a07b3          	add	a5,s4,s1
1c000fb0:	12f42223          	sw	a5,292(s0)
1c000fb4:	12842783          	lw	a5,296(s0)
1c000fb8:	864a                	mv	a2,s2
1c000fba:	23a58593          	addi	a1,a1,570 # 0x1c00123a
1c000fbe:	8f85                	sub	a5,a5,s1
1c000fc0:	12f42423          	sw	a5,296(s0)
1c000fc4:	02840513          	addi	a0,s0,40
1c000fc8:	7f2060ef          	jal	ra,0x1c0077ba
1c000fcc:	872a                	mv	a4,a0
1c000fce:	8522                	mv	a0,s0
1c000fd0:	4462                	lw	s0,24(sp)
1c000fd2:	40f2                	lw	ra,28(sp)
1c000fd4:	4942                	lw	s2,16(sp)
1c000fd6:	86a6                	mv	a3,s1
1c000fd8:	8652                	mv	a2,s4
1c000fda:	44d2                	lw	s1,20(sp)
1c000fdc:	4a22                	lw	s4,8(sp)
1c000fde:	85ce                	mv	a1,s3
1c000fe0:	49b2                	lw	s3,12(sp)
1c000fe2:	6105                	addi	sp,sp,32
1c000fe4:	62f0606f          	j	0x1c007e12
1c000fe8:	1101                	addi	sp,sp,-32
1c000fea:	cc22                	sw	s0,24(sp)
1c000fec:	4500                	lw	s0,8(a0)
1c000fee:	c452                	sw	s4,8(sp)
1c000ff0:	8a2e                	mv	s4,a1
1c000ff2:	ca26                	sw	s1,20(sp)
1c000ff4:	c84a                	sw	s2,16(sp)
1c000ff6:	c64e                	sw	s3,12(sp)
1c000ff8:	84aa                	mv	s1,a0
1c000ffa:	89b2                	mv	s3,a2
1c000ffc:	8936                	mv	s2,a3
1c000ffe:	85ba                	mv	a1,a4
1c001000:	87b6                	mv	a5,a3
1c001002:	8732                	mv	a4,a2
1c001004:	4881                	li	a7,0
1c001006:	4801                	li	a6,0
1c001008:	86d2                	mv	a3,s4
1c00100a:	4601                	li	a2,0
1c00100c:	8522                	mv	a0,s0
1c00100e:	ce06                	sw	ra,28(sp)
1c001010:	3615                	jal	0x1c000b34
1c001012:	e105                	bnez	a0,0x1c001032
1c001014:	13442023          	sw	s4,288(s0)
1c001018:	13342223          	sw	s3,292(s0)
1c00101c:	13242423          	sw	s2,296(s0)
1c001020:	4462                	lw	s0,24(sp)
1c001022:	40f2                	lw	ra,28(sp)
1c001024:	4942                	lw	s2,16(sp)
1c001026:	49b2                	lw	s3,12(sp)
1c001028:	4a22                	lw	s4,8(sp)
1c00102a:	8526                	mv	a0,s1
1c00102c:	44d2                	lw	s1,20(sp)
1c00102e:	6105                	addi	sp,sp,32
1c001030:	b721                	j	0x1c000f38
1c001032:	40f2                	lw	ra,28(sp)
1c001034:	4462                	lw	s0,24(sp)
1c001036:	44d2                	lw	s1,20(sp)
1c001038:	4942                	lw	s2,16(sp)
1c00103a:	49b2                	lw	s3,12(sp)
1c00103c:	4a22                	lw	s4,8(sp)
1c00103e:	6105                	addi	sp,sp,32
1c001040:	8082                	ret
1c001042:	cb09                	beqz	a4,0x1c001054
1c001044:	1141                	addi	sp,sp,-16
1c001046:	873e                	mv	a4,a5
1c001048:	c606                	sw	ra,12(sp)
1c00104a:	398d                	jal	0x1c000cbc
1c00104c:	40b2                	lw	ra,12(sp)
1c00104e:	4501                	li	a0,0
1c001050:	0141                	addi	sp,sp,16
1c001052:	8082                	ret
1c001054:	557d                	li	a0,-1
1c001056:	8082                	ret
1c001058:	1141                	addi	sp,sp,-16
1c00105a:	c422                	sw	s0,8(sp)
1c00105c:	4500                	lw	s0,8(a0)
1c00105e:	c606                	sw	ra,12(sp)
1c001060:	8522                	mv	a0,s0
1c001062:	3e9060ef          	jal	ra,0x1c007c4a
1c001066:	8522                	mv	a0,s0
1c001068:	4422                	lw	s0,8(sp)
1c00106a:	40b2                	lw	ra,12(sp)
1c00106c:	13400593          	li	a1,308
1c001070:	0141                	addi	sp,sp,16
1c001072:	27d0506f          	j	0x1c006aee
1c001076:	7179                	addi	sp,sp,-48
1c001078:	d226                	sw	s1,36(sp)
1c00107a:	d04a                	sw	s2,32(sp)
1c00107c:	84aa                	mv	s1,a0
1c00107e:	00452903          	lw	s2,4(a0)
1c001082:	13400513          	li	a0,308
1c001086:	d606                	sw	ra,44(sp)
1c001088:	d422                	sw	s0,40(sp)
1c00108a:	257050ef          	jal	ra,0x1c006ae0
1c00108e:	c125                	beqz	a0,0x1c0010ee
1c001090:	c488                	sw	a0,8(s1)
1c001092:	842a                	mv	s0,a0
1c001094:	854a                	mv	a0,s2
1c001096:	2631                	jal	0x1c0013a2
1c001098:	84aa                	mv	s1,a0
1c00109a:	e139                	bnez	a0,0x1c0010e0
1c00109c:	0068                	addi	a0,sp,12
1c00109e:	279060ef          	jal	ra,0x1c007b16
1c0010a2:	00492783          	lw	a5,4(s2)
1c0010a6:	8522                	mv	a0,s0
1c0010a8:	006c                	addi	a1,sp,12
1c0010aa:	00f10823          	sb	a5,16(sp)
1c0010ae:	00892783          	lw	a5,8(s2)
1c0010b2:	cc02                	sw	zero,24(sp)
1c0010b4:	ca3e                	sw	a5,20(sp)
1c0010b6:	0ce050ef          	jal	ra,0x1c006184
1c0010ba:	8522                	mv	a0,s0
1c0010bc:	26b060ef          	jal	ra,0x1c007b26
1c0010c0:	e105                	bnez	a0,0x1c0010e0
1c0010c2:	00042c23          	sw	zero,24(s0)
1c0010c6:	00042823          	sw	zero,16(s0)
1c0010ca:	02042223          	sw	zero,36(s0)
1c0010ce:	00042e23          	sw	zero,28(s0)
1c0010d2:	50b2                	lw	ra,44(sp)
1c0010d4:	5422                	lw	s0,40(sp)
1c0010d6:	8526                	mv	a0,s1
1c0010d8:	5902                	lw	s2,32(sp)
1c0010da:	5492                	lw	s1,36(sp)
1c0010dc:	6145                	addi	sp,sp,48
1c0010de:	8082                	ret
1c0010e0:	13400593          	li	a1,308
1c0010e4:	8522                	mv	a0,s0
1c0010e6:	209050ef          	jal	ra,0x1c006aee
1c0010ea:	54f9                	li	s1,-2
1c0010ec:	b7dd                	j	0x1c0010d2
1c0010ee:	54fd                	li	s1,-1
1c0010f0:	b7cd                	j	0x1c0010d2
1c0010f2:	451c                	lw	a5,8(a0)
1c0010f4:	30047773          	csrrci	a4,mstatus,8
1c0010f8:	0247a803          	lw	a6,36(a5) # 0x40024
1c0010fc:	02080463          	beqz	a6,0x1c001124
1c001100:	450d                	li	a0,3
1c001102:	dac8                	sw	a0,52(a3)
1c001104:	de8c                	sw	a1,56(a3)
1c001106:	ded0                	sw	a2,60(a3)
1c001108:	0406a023          	sw	zero,64(a3)
1c00110c:	4fd0                	lw	a2,28(a5)
1c00110e:	ca09                	beqz	a2,0x1c001120
1c001110:	5390                	lw	a2,32(a5)
1c001112:	ce14                	sw	a3,24(a2)
1c001114:	d394                	sw	a3,32(a5)
1c001116:	0006ac23          	sw	zero,24(a3)
1c00111a:	30071073          	csrw	mstatus,a4
1c00111e:	8082                	ret
1c001120:	cfd4                	sw	a3,28(a5)
1c001122:	bfcd                	j	0x1c001114
1c001124:	d3d4                	sw	a3,36(a5)
1c001126:	30071073          	csrw	mstatus,a4
1c00112a:	12b7a623          	sw	a1,300(a5)
1c00112e:	12c7a823          	sw	a2,304(a5)
1c001132:	a009                	j	0x1c001134
1c001134:	1101                	addi	sp,sp,-32
1c001136:	cc22                	sw	s0,24(sp)
1c001138:	4500                	lw	s0,8(a0)
1c00113a:	ca26                	sw	s1,20(sp)
1c00113c:	c84a                	sw	s2,16(sp)
1c00113e:	13042483          	lw	s1,304(s0)
1c001142:	ce06                	sw	ra,28(sp)
1c001144:	c64e                	sw	s3,12(sp)
1c001146:	892a                	mv	s2,a0
1c001148:	e88d                	bnez	s1,0x1c00117a
1c00114a:	300474f3          	csrrci	s1,mstatus,8
1c00114e:	5048                	lw	a0,36(s0)
1c001150:	75a050ef          	jal	ra,0x1c0068aa
1c001154:	4c54                	lw	a3,28(s0)
1c001156:	02042223          	sw	zero,36(s0)
1c00115a:	c299                	beqz	a3,0x1c001160
1c00115c:	4e9c                	lw	a5,24(a3)
1c00115e:	cc5c                	sw	a5,28(s0)
1c001160:	30049073          	csrw	mstatus,s1
1c001164:	cea1                	beqz	a3,0x1c0011bc
1c001166:	4462                	lw	s0,24(sp)
1c001168:	40f2                	lw	ra,28(sp)
1c00116a:	44d2                	lw	s1,20(sp)
1c00116c:	49b2                	lw	s3,12(sp)
1c00116e:	5ed0                	lw	a2,60(a3)
1c001170:	5e8c                	lw	a1,56(a3)
1c001172:	854a                	mv	a0,s2
1c001174:	4942                	lw	s2,16(sp)
1c001176:	6105                	addi	sp,sp,32
1c001178:	bfad                	j	0x1c0010f2
1c00117a:	12c42983          	lw	s3,300(s0)
1c00117e:	000407b7          	lui	a5,0x40
1c001182:	1c0015b7          	lui	a1,0x1c001
1c001186:	db29b733          	p.bclr	a4,s3,13,18
1c00118a:	8f99                	sub	a5,a5,a4
1c00118c:	862a                	mv	a2,a0
1c00118e:	13458593          	addi	a1,a1,308 # 0x1c001134
1c001192:	0a440513          	addi	a0,s0,164
1c001196:	04f4d4b3          	p.minu	s1,s1,a5
1c00119a:	620060ef          	jal	ra,0x1c0077ba
1c00119e:	862a                	mv	a2,a0
1c0011a0:	85ce                	mv	a1,s3
1c0011a2:	854a                	mv	a0,s2
1c0011a4:	3c95                	jal	0x1c000c18
1c0011a6:	12c42783          	lw	a5,300(s0)
1c0011aa:	97a6                	add	a5,a5,s1
1c0011ac:	12f42623          	sw	a5,300(s0)
1c0011b0:	13042783          	lw	a5,304(s0)
1c0011b4:	409784b3          	sub	s1,a5,s1
1c0011b8:	12942823          	sw	s1,304(s0)
1c0011bc:	40f2                	lw	ra,28(sp)
1c0011be:	4462                	lw	s0,24(sp)
1c0011c0:	44d2                	lw	s1,20(sp)
1c0011c2:	4942                	lw	s2,16(sp)
1c0011c4:	49b2                	lw	s3,12(sp)
1c0011c6:	6105                	addi	sp,sp,32
1c0011c8:	8082                	ret
1c0011ca:	6585                	lui	a1,0x1
1c0011cc:	1141                	addi	sp,sp,-16
1c0011ce:	07000613          	li	a2,112
1c0011d2:	aaa58593          	addi	a1,a1,-1366 # 0xaaa
1c0011d6:	c606                	sw	ra,12(sp)
1c0011d8:	c422                	sw	s0,8(sp)
1c0011da:	842a                	mv	s0,a0
1c0011dc:	343d                	jal	0x1c000c0a
1c0011de:	8522                	mv	a0,s0
1c0011e0:	00c40613          	addi	a2,s0,12
1c0011e4:	4691                	li	a3,4
1c0011e6:	4581                	li	a1,0
1c0011e8:	409060ef          	jal	ra,0x1c007df0
1c0011ec:	00c45503          	lhu	a0,12(s0)
1c0011f0:	40b2                	lw	ra,12(sp)
1c0011f2:	4422                	lw	s0,8(sp)
1c0011f4:	0141                	addi	sp,sp,16
1c0011f6:	8082                	ret
1c0011f8:	1101                	addi	sp,sp,-32
1c0011fa:	cc22                	sw	s0,24(sp)
1c0011fc:	4500                	lw	s0,8(a0)
1c0011fe:	862a                	mv	a2,a0
1c001200:	c632                	sw	a2,12(sp)
1c001202:	8522                	mv	a0,s0
1c001204:	ce06                	sw	ra,28(sp)
1c001206:	37d1                	jal	0x1c0011ca
1c001208:	c0751533          	p.extractu	a0,a0,0,7
1c00120c:	4632                	lw	a2,12(sp)
1c00120e:	e10d                	bnez	a0,0x1c001230
1c001210:	1c0015b7          	lui	a1,0x1c001
1c001214:	1f858593          	addi	a1,a1,504 # 0x1c0011f8
1c001218:	02840513          	addi	a0,s0,40
1c00121c:	59e060ef          	jal	ra,0x1c0077ba
1c001220:	4462                	lw	s0,24(sp)
1c001222:	40f2                	lw	ra,28(sp)
1c001224:	65e1                	lui	a1,0x18
1c001226:	6a058593          	addi	a1,a1,1696 # 0x186a0
1c00122a:	6105                	addi	sp,sp,32
1c00122c:	6d40506f          	j	0x1c006900
1c001230:	4462                	lw	s0,24(sp)
1c001232:	40f2                	lw	ra,28(sp)
1c001234:	8532                	mv	a0,a2
1c001236:	6105                	addi	sp,sp,32
1c001238:	b4fd                	j	0x1c000d26
1c00123a:	1101                	addi	sp,sp,-32
1c00123c:	cc22                	sw	s0,24(sp)
1c00123e:	4500                	lw	s0,8(a0)
1c001240:	862a                	mv	a2,a0
1c001242:	c632                	sw	a2,12(sp)
1c001244:	8522                	mv	a0,s0
1c001246:	ce06                	sw	ra,28(sp)
1c001248:	3749                	jal	0x1c0011ca
1c00124a:	08057513          	andi	a0,a0,128
1c00124e:	4632                	lw	a2,12(sp)
1c001250:	e105                	bnez	a0,0x1c001270
1c001252:	1c0015b7          	lui	a1,0x1c001
1c001256:	23a58593          	addi	a1,a1,570 # 0x1c00123a
1c00125a:	02840513          	addi	a0,s0,40
1c00125e:	55c060ef          	jal	ra,0x1c0077ba
1c001262:	4462                	lw	s0,24(sp)
1c001264:	40f2                	lw	ra,28(sp)
1c001266:	0fa00593          	li	a1,250
1c00126a:	6105                	addi	sp,sp,32
1c00126c:	6940506f          	j	0x1c006900
1c001270:	4462                	lw	s0,24(sp)
1c001272:	40f2                	lw	ra,28(sp)
1c001274:	8532                	mv	a0,a2
1c001276:	6105                	addi	sp,sp,32
1c001278:	b1c1                	j	0x1c000f38
1c00127a:	1141                	addi	sp,sp,-16
1c00127c:	1c00a7b7          	lui	a5,0x1c00a
1c001280:	c422                	sw	s0,8(sp)
1c001282:	c606                	sw	ra,12(sp)
1c001284:	0b078793          	addi	a5,a5,176 # 0x1c00a0b0
1c001288:	c11c                	sw	a5,0(a0)
1c00128a:	842a                	mv	s0,a0
1c00128c:	2231                	jal	0x1c001398
1c00128e:	8522                	mv	a0,s0
1c001290:	4422                	lw	s0,8(sp)
1c001292:	40b2                	lw	ra,12(sp)
1c001294:	0141                	addi	sp,sp,16
1c001296:	e17fe06f          	j	0x1c0000ac
1c00129a:	01f01013          	slli	zero,zero,0x1f
1c00129e:	00100073          	ebreak
1c0012a2:	40705013          	srai	zero,zero,0x7
1c0012a6:	8082                	ret
1c0012a8:	85aa                	mv	a1,a0
1c0012aa:	4511                	li	a0,4
1c0012ac:	b7fd                	j	0x1c00129a
1c0012ae:	7139                	addi	sp,sp,-64
1c0012b0:	de06                	sw	ra,60(sp)
1c0012b2:	dc22                	sw	s0,56(sp)
1c0012b4:	c62e                	sw	a1,12(sp)
1c0012b6:	842a                	mv	s0,a0
1c0012b8:	526070ef          	jal	ra,0x1c0087de
1c0012bc:	45b2                	lw	a1,12(sp)
1c0012be:	083c                	addi	a5,sp,24
1c0012c0:	c380                	sw	s0,0(a5)
1c0012c2:	087c                	addi	a5,sp,28
1c0012c4:	c38c                	sw	a1,0(a5)
1c0012c6:	101c                	addi	a5,sp,32
1c0012c8:	c388                	sw	a0,0(a5)
1c0012ca:	082c                	addi	a1,sp,24
1c0012cc:	4505                	li	a0,1
1c0012ce:	37f1                	jal	0x1c00129a
1c0012d0:	50f2                	lw	ra,60(sp)
1c0012d2:	5462                	lw	s0,56(sp)
1c0012d4:	6121                	addi	sp,sp,64
1c0012d6:	8082                	ret
1c0012d8:	85aa                	mv	a1,a0
1c0012da:	4509                	li	a0,2
1c0012dc:	bf7d                	j	0x1c00129a
1c0012de:	7179                	addi	sp,sp,-48
1c0012e0:	d606                	sw	ra,44(sp)
1c0012e2:	003c                	addi	a5,sp,8
1c0012e4:	c388                	sw	a0,0(a5)
1c0012e6:	007c                	addi	a5,sp,12
1c0012e8:	c38c                	sw	a1,0(a5)
1c0012ea:	4519                	li	a0,6
1c0012ec:	081c                	addi	a5,sp,16
1c0012ee:	002c                	addi	a1,sp,8
1c0012f0:	c390                	sw	a2,0(a5)
1c0012f2:	3765                	jal	0x1c00129a
1c0012f4:	50b2                	lw	ra,44(sp)
1c0012f6:	6145                	addi	sp,sp,48
1c0012f8:	8082                	ret
1c0012fa:	7179                	addi	sp,sp,-48
1c0012fc:	d606                	sw	ra,44(sp)
1c0012fe:	003c                	addi	a5,sp,8
1c001300:	c388                	sw	a0,0(a5)
1c001302:	007c                	addi	a5,sp,12
1c001304:	c38c                	sw	a1,0(a5)
1c001306:	4515                	li	a0,5
1c001308:	081c                	addi	a5,sp,16
1c00130a:	002c                	addi	a1,sp,8
1c00130c:	c390                	sw	a2,0(a5)
1c00130e:	3771                	jal	0x1c00129a
1c001310:	50b2                	lw	ra,44(sp)
1c001312:	6145                	addi	sp,sp,48
1c001314:	8082                	ret
1c001316:	1101                	addi	sp,sp,-32
1c001318:	c42a                	sw	a0,8(sp)
1c00131a:	c62e                	sw	a1,12(sp)
1c00131c:	4529                	li	a0,10
1c00131e:	002c                	addi	a1,sp,8
1c001320:	ce06                	sw	ra,28(sp)
1c001322:	3fa5                	jal	0x1c00129a
1c001324:	40f2                	lw	ra,28(sp)
1c001326:	6105                	addi	sp,sp,32
1c001328:	8082                	ret
1c00132a:	85aa                	mv	a1,a0
1c00132c:	4531                	li	a0,12
1c00132e:	b7b5                	j	0x1c00129a
1c001330:	85aa                	mv	a1,a0
1c001332:	4561                	li	a0,24
1c001334:	b79d                	j	0x1c00129a
1c001336:	1c00a7b7          	lui	a5,0x1c00a
1c00133a:	7bc7a703          	lw	a4,1980(a5) # 0x1c00a7bc
1c00133e:	eb0d                	bnez	a4,0x1c001370
1c001340:	4705                	li	a4,1
1c001342:	7ae7ae23          	sw	a4,1980(a5)
1c001346:	000557b7          	lui	a5,0x55
1c00134a:	1101                	addi	sp,sp,-32
1c00134c:	50078793          	addi	a5,a5,1280 # 0x55500
1c001350:	c03e                	sw	a5,0(sp)
1c001352:	0f0007b7          	lui	a5,0xf000
1c001356:	c23e                	sw	a5,4(sp)
1c001358:	004007b7          	lui	a5,0x400
1c00135c:	17fd                	addi	a5,a5,-1
1c00135e:	850a                	mv	a0,sp
1c001360:	ce06                	sw	ra,28(sp)
1c001362:	c43e                	sw	a5,8(sp)
1c001364:	c602                	sw	zero,12(sp)
1c001366:	75a060ef          	jal	ra,0x1c007ac0
1c00136a:	40f2                	lw	ra,28(sp)
1c00136c:	6105                	addi	sp,sp,32
1c00136e:	8082                	ret
1c001370:	8082                	ret
1c001372:	008007b7          	lui	a5,0x800
1c001376:	00052823          	sw	zero,16(a0)
1c00137a:	c95c                	sw	a5,20(a0)
1c00137c:	00050623          	sb	zero,12(a0)
1c001380:	00052223          	sw	zero,4(a0)
1c001384:	00052423          	sw	zero,8(a0)
1c001388:	8082                	ret
1c00138a:	1141                	addi	sp,sp,-16
1c00138c:	c606                	sw	ra,12(sp)
1c00138e:	3765                	jal	0x1c001336
1c001390:	40b2                	lw	ra,12(sp)
1c001392:	4501                	li	a0,0
1c001394:	0141                	addi	sp,sp,16
1c001396:	8082                	ret
1c001398:	4785                	li	a5,1
1c00139a:	00052223          	sw	zero,4(a0)
1c00139e:	c51c                	sw	a5,8(a0)
1c0013a0:	8082                	ret
1c0013a2:	1141                	addi	sp,sp,-16
1c0013a4:	c606                	sw	ra,12(sp)
1c0013a6:	3f41                	jal	0x1c001336
1c0013a8:	40b2                	lw	ra,12(sp)
1c0013aa:	4501                	li	a0,0
1c0013ac:	0141                	addi	sp,sp,16
1c0013ae:	8082                	ret
1c0013b0:	1101                	addi	sp,sp,-32
1c0013b2:	ce06                	sw	ra,28(sp)
1c0013b4:	c62a                	sw	a0,12(sp)
1c0013b6:	3741                	jal	0x1c001336
1c0013b8:	4532                	lw	a0,12(sp)
1c0013ba:	40f2                	lw	ra,28(sp)
1c0013bc:	00052623          	sw	zero,12(a0)
1c0013c0:	00052423          	sw	zero,8(a0)
1c0013c4:	6105                	addi	sp,sp,32
1c0013c6:	8082                	ret
1c0013c8:	1141                	addi	sp,sp,-16
1c0013ca:	c606                	sw	ra,12(sp)
1c0013cc:	37ad                	jal	0x1c001336
1c0013ce:	40b2                	lw	ra,12(sp)
1c0013d0:	4501                	li	a0,0
1c0013d2:	0141                	addi	sp,sp,16
1c0013d4:	8082                	ret
1c0013d6:	4785                	li	a5,1
1c0013d8:	c15c                	sw	a5,4(a0)
1c0013da:	00052423          	sw	zero,8(a0)
1c0013de:	8082                	ret
1c0013e0:	1141                	addi	sp,sp,-16
1c0013e2:	c606                	sw	ra,12(sp)
1c0013e4:	3f89                	jal	0x1c001336
1c0013e6:	40b2                	lw	ra,12(sp)
1c0013e8:	4501                	li	a0,0
1c0013ea:	0141                	addi	sp,sp,16
1c0013ec:	8082                	ret
1c0013ee:	b7a1                	j	0x1c001336
1c0013f0:	b799                	j	0x1c001336
1c0013f2:	b791                	j	0x1c001336
1c0013f4:	7a101073          	csrw	pcmr,zero
1c0013f8:	f1402573          	csrr	a0,mhartid
1c0013fc:	01f57593          	andi	a1,a0,31
1c001400:	8115                	srli	a0,a0,0x5
1c001402:	02000613          	li	a2,32
1c001406:	00c50463          	beq	a0,a2,0x1c00140e
1c00140a:	35a0806f          	j	0x1c009764
1c00140e:	00009297          	auipc	t0,0x9
1c001412:	25a28293          	addi	t0,t0,602 # 0x1c00a668
1c001416:	00009317          	auipc	t1,0x9
1c00141a:	44630313          	addi	t1,t1,1094 # 0x1c00a85c
1c00141e:	0002a023          	sw	zero,0(t0)
1c001422:	0291                	addi	t0,t0,4
1c001424:	fe62ede3          	bltu	t0,t1,0x1c00141e
1c001428:	ff000117          	auipc	sp,0xff000
1c00142c:	80810113          	addi	sp,sp,-2040 # 0x1b000c30
1c001430:	3b1040ef          	jal	ra,0x1c005fe0
1c001434:	00000513          	li	a0,0
1c001438:	00000593          	li	a1,0
1c00143c:	00001397          	auipc	t2,0x1
1c001440:	d6e38393          	addi	t2,t2,-658 # 0x1c0021aa
1c001444:	000380e7          	jalr	t2
1c001448:	842a                	mv	s0,a0
1c00144a:	507040ef          	jal	ra,0x1c006150
1c00144e:	8522                	mv	a0,s0
1c001450:	61c070ef          	jal	ra,0x1c008a6c
1c001454:	8082                	ret
1c001456:	0035f513          	andi	a0,a1,3
1c00145a:	02051063          	bnez	a0,0x1c00147a
1c00145e:	e3fff517          	auipc	a0,0xe3fff
1c001462:	bbe50513          	addi	a0,a0,-1090 # 0x1c
1c001466:	0005ac23          	sw	zero,24(a1)
1c00146a:	4110                	lw	a2,0(a0)
1c00146c:	c601                	beqz	a2,0x1c001474
1c00146e:	4150                	lw	a2,4(a0)
1c001470:	ce0c                	sw	a1,24(a2)
1c001472:	a011                	j	0x1c001476
1c001474:	c10c                	sw	a1,0(a0)
1c001476:	c14c                	sw	a1,4(a0)
1c001478:	8482                	jr	s1
1c00147a:	5571                	li	a0,-4
1c00147c:	8de9                	and	a1,a1,a0
1c00147e:	4190                	lw	a2,0(a1)
1c001480:	41c8                	lw	a0,4(a1)
1c001482:	a0d9                	j	0x1c001548
1c001484:	fe812e23          	sw	s0,-4(sp)
1c001488:	fe912c23          	sw	s1,-8(sp)
1c00148c:	fea12a23          	sw	a0,-12(sp)
1c001490:	feb12823          	sw	a1,-16(sp)
1c001494:	fec12623          	sw	a2,-20(sp)
1c001498:	00005617          	auipc	a2,0x5
1c00149c:	03c60613          	addi	a2,a2,60 # 0x1c0064d4
1c0014a0:	0a8004ef          	jal	s1,0x1c001548
1c0014a4:	ffc12403          	lw	s0,-4(sp)
1c0014a8:	ff812483          	lw	s1,-8(sp)
1c0014ac:	ff412503          	lw	a0,-12(sp)
1c0014b0:	ff012583          	lw	a1,-16(sp)
1c0014b4:	fec12603          	lw	a2,-20(sp)
1c0014b8:	30200073          	mret
1c0014bc:	fe812e23          	sw	s0,-4(sp)
1c0014c0:	fe912c23          	sw	s1,-8(sp)
1c0014c4:	fea12a23          	sw	a0,-12(sp)
1c0014c8:	feb12823          	sw	a1,-16(sp)
1c0014cc:	fec12623          	sw	a2,-20(sp)
1c0014d0:	4405                	li	s0,1
1c0014d2:	00009497          	auipc	s1,0x9
1c0014d6:	36248493          	addi	s1,s1,866 # 0x1c00a834
1c0014da:	40cc                	lw	a1,4(s1)
1c0014dc:	02058d63          	beqz	a1,0x1c001516
1c0014e0:	48cc                	lw	a1,20(s1)
1c0014e2:	41c8                	lw	a0,4(a1)
1c0014e4:	00050e63          	beqz	a0,0x1c001500
1c0014e8:	5150                	lw	a2,36(a0)
1c0014ea:	e219                	bnez	a2,0x1c0014f0
1c0014ec:	5108                	lw	a0,32(a0)
1c0014ee:	fd6d                	bnez	a0,0x1c0014e8
1c0014f0:	c501                	beqz	a0,0x1c0014f8
1c0014f2:	5108                	lw	a0,32(a0)
1c0014f4:	c1c8                	sw	a0,4(a1)
1c0014f6:	a029                	j	0x1c001500
1c0014f8:	0005a223          	sw	zero,4(a1)
1c0014fc:	0005a423          	sw	zero,8(a1)
1c001500:	40cc                	lw	a1,4(s1)
1c001502:	4890                	lw	a2,16(s1)
1c001504:	0004a223          	sw	zero,4(s1)
1c001508:	00062023          	sw	zero,0(a2)
1c00150c:	00000497          	auipc	s1,0x0
1c001510:	00a48493          	addi	s1,s1,10 # 0x1c001516
1c001514:	b789                	j	0x1c001456
1c001516:	147d                	addi	s0,s0,-1
1c001518:	00804e63          	bgtz	s0,0x1c001534
1c00151c:	ffc12403          	lw	s0,-4(sp)
1c001520:	ff812483          	lw	s1,-8(sp)
1c001524:	ff412503          	lw	a0,-12(sp)
1c001528:	ff012583          	lw	a1,-16(sp)
1c00152c:	fec12603          	lw	a2,-20(sp)
1c001530:	30200073          	mret
1c001534:	00009497          	auipc	s1,0x9
1c001538:	30048493          	addi	s1,s1,768 # 0x1c00a834
1c00153c:	02800593          	li	a1,40
1c001540:	02b405b3          	mul	a1,s0,a1
1c001544:	94ae                	add	s1,s1,a1
1c001546:	bf51                	j	0x1c0014da
1c001548:	7119                	addi	sp,sp,-128
1c00154a:	c006                	sw	ra,0(sp)
1c00154c:	c20e                	sw	gp,4(sp)
1c00154e:	c412                	sw	tp,8(sp)
1c001550:	c616                	sw	t0,12(sp)
1c001552:	c81a                	sw	t1,16(sp)
1c001554:	ca1e                	sw	t2,20(sp)
1c001556:	d236                	sw	a3,36(sp)
1c001558:	d43a                	sw	a4,40(sp)
1c00155a:	d63e                	sw	a5,44(sp)
1c00155c:	d842                	sw	a6,48(sp)
1c00155e:	da46                	sw	a7,52(sp)
1c001560:	dc72                	sw	t3,56(sp)
1c001562:	de76                	sw	t4,60(sp)
1c001564:	c0fa                	sw	t5,64(sp)
1c001566:	c6fe                	sw	t6,76(sp)
1c001568:	000600e7          	jalr	a2
1c00156c:	4082                	lw	ra,0(sp)
1c00156e:	4192                	lw	gp,4(sp)
1c001570:	4222                	lw	tp,8(sp)
1c001572:	42b2                	lw	t0,12(sp)
1c001574:	4342                	lw	t1,16(sp)
1c001576:	43d2                	lw	t2,20(sp)
1c001578:	5692                	lw	a3,36(sp)
1c00157a:	5722                	lw	a4,40(sp)
1c00157c:	57b2                	lw	a5,44(sp)
1c00157e:	5842                	lw	a6,48(sp)
1c001580:	58d2                	lw	a7,52(sp)
1c001582:	5e62                	lw	t3,56(sp)
1c001584:	5ef2                	lw	t4,60(sp)
1c001586:	4f06                	lw	t5,64(sp)
1c001588:	4fb6                	lw	t6,76(sp)
1c00158a:	6109                	addi	sp,sp,128
1c00158c:	8482                	jr	s1
1c00158e:	fe112e23          	sw	ra,-4(sp)
1c001592:	fea12c23          	sw	a0,-8(sp)
1c001596:	00005517          	auipc	a0,0x5
1c00159a:	c4050513          	addi	a0,a0,-960 # 0x1c0061d6
1c00159e:	010000ef          	jal	ra,0x1c0015ae
1c0015a2:	ffc12083          	lw	ra,-4(sp)
1c0015a6:	ff812503          	lw	a0,-8(sp)
1c0015aa:	30200073          	mret
1c0015ae:	7119                	addi	sp,sp,-128
1c0015b0:	c006                	sw	ra,0(sp)
1c0015b2:	c20e                	sw	gp,4(sp)
1c0015b4:	c412                	sw	tp,8(sp)
1c0015b6:	c616                	sw	t0,12(sp)
1c0015b8:	c81a                	sw	t1,16(sp)
1c0015ba:	ca1e                	sw	t2,20(sp)
1c0015bc:	ce2e                	sw	a1,28(sp)
1c0015be:	d032                	sw	a2,32(sp)
1c0015c0:	d236                	sw	a3,36(sp)
1c0015c2:	d43a                	sw	a4,40(sp)
1c0015c4:	d63e                	sw	a5,44(sp)
1c0015c6:	d842                	sw	a6,48(sp)
1c0015c8:	da46                	sw	a7,52(sp)
1c0015ca:	dc72                	sw	t3,56(sp)
1c0015cc:	de76                	sw	t4,60(sp)
1c0015ce:	c0fa                	sw	t5,64(sp)
1c0015d0:	c6fe                	sw	t6,76(sp)
1c0015d2:	000500e7          	jalr	a0
1c0015d6:	4082                	lw	ra,0(sp)
1c0015d8:	4192                	lw	gp,4(sp)
1c0015da:	4222                	lw	tp,8(sp)
1c0015dc:	42b2                	lw	t0,12(sp)
1c0015de:	4342                	lw	t1,16(sp)
1c0015e0:	43d2                	lw	t2,20(sp)
1c0015e2:	45f2                	lw	a1,28(sp)
1c0015e4:	5602                	lw	a2,32(sp)
1c0015e6:	5692                	lw	a3,36(sp)
1c0015e8:	5722                	lw	a4,40(sp)
1c0015ea:	57b2                	lw	a5,44(sp)
1c0015ec:	5842                	lw	a6,48(sp)
1c0015ee:	58d2                	lw	a7,52(sp)
1c0015f0:	5e62                	lw	t3,56(sp)
1c0015f2:	5ef2                	lw	t4,60(sp)
1c0015f4:	4f06                	lw	t5,64(sp)
1c0015f6:	4fb6                	lw	t6,76(sp)
1c0015f8:	6109                	addi	sp,sp,128
1c0015fa:	8082                	ret
1c0015fc:	4080                	lw	s0,0(s1)
1c0015fe:	448c                	lw	a1,8(s1)
1c001600:	08040f63          	beqz	s0,0x1c00169e
1c001604:	4c50                	lw	a2,28(s0)
1c001606:	4848                	lw	a0,20(s0)
1c001608:	04061f63          	bnez	a2,0x1c001666
1c00160c:	c088                	sw	a0,0(s1)
1c00160e:	4448                	lw	a0,12(s0)
1c001610:	e15d                	bnez	a0,0x1c0016b6
1c001612:	02058f63          	beqz	a1,0x1c001650
1c001616:	4990                	lw	a2,16(a1)
1c001618:	49c8                	lw	a0,20(a1)
1c00161a:	c611                	beqz	a2,0x1c001626
1c00161c:	00000497          	auipc	s1,0x0
1c001620:	00a48493          	addi	s1,s1,10 # 0x1c001626
1c001624:	8602                	jr	a2
1c001626:	44d0                	lw	a2,12(s1)
1c001628:	c488                	sw	a0,8(s1)
1c00162a:	4188                	lw	a0,0(a1)
1c00162c:	41c4                	lw	s1,4(a1)
1c00162e:	c208                	sw	a0,0(a2)
1c001630:	c244                	sw	s1,4(a2)
1c001632:	45c4                	lw	s1,12(a1)
1c001634:	88bd                	andi	s1,s1,15
1c001636:	4515                	li	a0,5
1c001638:	00a4ca63          	blt	s1,a0,0x1c00164c
1c00163c:	0064a463          	p.beqimm	s1,6,0x1c001644
1c001640:	0074a263          	p.beqimm	s1,7,0x1c001644
1c001644:	51c8                	lw	a0,36(a1)
1c001646:	c04634b3          	p.bclr	s1,a2,0,4
1c00164a:	d088                	sw	a0,32(s1)
1c00164c:	4588                	lw	a0,8(a1)
1c00164e:	c608                	sw	a0,8(a2)
1c001650:	4c0c                	lw	a1,24(s0)
1c001652:	00000497          	auipc	s1,0x0
1c001656:	19648493          	addi	s1,s1,406 # 0x1c0017e8
1c00165a:	00058463          	beqz	a1,0x1c001662
1c00165e:	df9ff06f          	j	0x1c001456
1c001662:	1860006f          	j	0x1c0017e8
1c001666:	44cc                	lw	a1,12(s1)
1c001668:	5048                	lw	a0,36(s0)
1c00166a:	c045b4b3          	p.bclr	s1,a1,0,4
1c00166e:	9532                	add	a0,a0,a2
1c001670:	d088                	sw	a0,32(s1)
1c001672:	d048                	sw	a0,36(s0)
1c001674:	4008                	lw	a0,0(s0)
1c001676:	5004                	lw	s1,32(s0)
1c001678:	9532                	add	a0,a0,a2
1c00167a:	8c91                	sub	s1,s1,a2
1c00167c:	00964963          	blt	a2,s1,0x1c00168e
1c001680:	8626                	mv	a2,s1
1c001682:	00042e23          	sw	zero,28(s0)
1c001686:	00061463          	bnez	a2,0x1c00168e
1c00168a:	15e0006f          	j	0x1c0017e8
1c00168e:	c008                	sw	a0,0(s0)
1c001690:	d004                	sw	s1,32(s0)
1c001692:	c188                	sw	a0,0(a1)
1c001694:	c1d0                	sw	a2,4(a1)
1c001696:	4541                	li	a0,16
1c001698:	c588                	sw	a0,8(a1)
1c00169a:	14e0006f          	j	0x1c0017e8
1c00169e:	e3fff497          	auipc	s1,0xe3fff
1c0016a2:	c1248493          	addi	s1,s1,-1006 # 0x2b0
1c0016a6:	4080                	lw	s0,0(s1)
1c0016a8:	4585                	li	a1,1
1c0016aa:	00a59533          	sll	a0,a1,a0
1c0016ae:	8c49                	or	s0,s0,a0
1c0016b0:	c080                	sw	s0,0(s1)
1c0016b2:	1360006f          	j	0x1c0017e8
1c0016b6:	04352463          	p.beqimm	a0,3,0x1c0016fe
1c0016ba:	06452063          	p.beqimm	a0,4,0x1c00171a
1c0016be:	bf91                	j	0x1c001612
1c0016c0:	5408                	lw	a0,40(s0)
1c0016c2:	c448                	sw	a0,12(s0)
1c0016c4:	4088                	lw	a0,0(s1)
1c0016c6:	c848                	sw	a0,20(s0)
1c0016c8:	c080                	sw	s0,0(s1)
1c0016ca:	44d0                	lw	a2,12(s1)
1c0016cc:	5448                	lw	a0,44(s0)
1c0016ce:	c208                	sw	a0,0(a2)
1c0016d0:	5048                	lw	a0,36(s0)
1c0016d2:	c248                	sw	a0,4(a2)
1c0016d4:	4408                	lw	a0,8(s0)
1c0016d6:	c608                	sw	a0,8(a2)
1c0016d8:	1100006f          	j	0x1c0017e8
1c0016dc:	00042623          	sw	zero,12(s0)
1c0016e0:	4088                	lw	a0,0(s1)
1c0016e2:	c848                	sw	a0,20(s0)
1c0016e4:	c080                	sw	s0,0(s1)
1c0016e6:	4060                	lw	s0,68(s0)
1c0016e8:	90000637          	lui	a2,0x90000
1c0016ec:	c010                	sw	a2,0(s0)
1c0016ee:	44d0                	lw	a2,12(s1)
1c0016f0:	c200                	sw	s0,0(a2)
1c0016f2:	4511                	li	a0,4
1c0016f4:	c248                	sw	a0,4(a2)
1c0016f6:	4541                	li	a0,16
1c0016f8:	c608                	sw	a0,8(a2)
1c0016fa:	0ee0006f          	j	0x1c0017e8
1c0016fe:	5408                	lw	a0,40(s0)
1c001700:	c448                	sw	a0,12(s0)
1c001702:	4088                	lw	a0,0(s1)
1c001704:	c848                	sw	a0,20(s0)
1c001706:	c080                	sw	s0,0(s1)
1c001708:	44d0                	lw	a2,12(s1)
1c00170a:	4008                	lw	a0,0(s0)
1c00170c:	c208                	sw	a0,0(a2)
1c00170e:	5048                	lw	a0,36(s0)
1c001710:	c248                	sw	a0,4(a2)
1c001712:	4408                	lw	a0,8(s0)
1c001714:	c608                	sw	a0,8(a2)
1c001716:	0d20006f          	j	0x1c0017e8
1c00171a:	00042623          	sw	zero,12(s0)
1c00171e:	4088                	lw	a0,0(s1)
1c001720:	c848                	sw	a0,20(s0)
1c001722:	c080                	sw	s0,0(s1)
1c001724:	4060                	lw	s0,68(s0)
1c001726:	02000613          	li	a2,32
1c00172a:	c010                	sw	a2,0(s0)
1c00172c:	44d0                	lw	a2,12(s1)
1c00172e:	c200                	sw	s0,0(a2)
1c001730:	4505                	li	a0,1
1c001732:	c248                	sw	a0,4(a2)
1c001734:	4541                	li	a0,16
1c001736:	c608                	sw	a0,8(a2)
1c001738:	0b00006f          	j	0x1c0017e8
1c00173c:	7119                	addi	sp,sp,-128
1c00173e:	c022                	sw	s0,0(sp)
1c001740:	c226                	sw	s1,4(sp)
1c001742:	c42a                	sw	a0,8(sp)
1c001744:	c62e                	sw	a1,12(sp)
1c001746:	c832                	sw	a2,16(sp)
1c001748:	00201437          	lui	s0,0x201
1c00174c:	f0040413          	addi	s0,s0,-256 # 0x200f00
1c001750:	4000                	lw	s0,0(s0)
1c001752:	080004b7          	lui	s1,0x8000
1c001756:	00204537          	lui	a0,0x204
1c00175a:	02850513          	addi	a0,a0,40 # 0x204028
1c00175e:	c104                	sw	s1,0(a0)
1c001760:	2e002603          	lw	a2,736(zero) # 0x2e0
1c001764:	ce041533          	p.extractu	a0,s0,7,0
1c001768:	00653363          	p.bneimm	a0,6,0x1c00176e
1c00176c:	8602                	jr	a2
1c00176e:	00753363          	p.bneimm	a0,7,0x1c001774
1c001772:	8602                	jr	a2
1c001774:	44cd                	li	s1,19
1c001776:	00955c63          	ble	s1,a0,0x1c00178e
1c00177a:	e3fff417          	auipc	s0,0xe3fff
1c00177e:	8b640413          	addi	s0,s0,-1866 # 0x30
1c001782:	00551493          	slli	s1,a0,0x5
1c001786:	94a2                	add	s1,s1,s0
1c001788:	4ccc                	lw	a1,28(s1)
1c00178a:	4080                	lw	s0,0(s1)
1c00178c:	8582                	jr	a1
1c00178e:	44f9                	li	s1,30
1c001790:	00955963          	ble	s1,a0,0x1c0017a2
1c001794:	fec50413          	addi	s0,a0,-20
1c001798:	00241593          	slli	a1,s0,0x2
1c00179c:	2b85a583          	lw	a1,696(a1)
1c0017a0:	8582                	jr	a1
1c0017a2:	02a00493          	li	s1,42
1c0017a6:	00951463          	bne	a0,s1,0x1c0017ae
1c0017aa:	1740006f          	j	0x1c00191e
1c0017ae:	02c00493          	li	s1,44
1c0017b2:	04a48363          	beq	s1,a0,0x1c0017f8
1c0017b6:	458d                	li	a1,3
1c0017b8:	02658493          	addi	s1,a1,38
1c0017bc:	8c89                	sub	s1,s1,a0
1c0017be:	0095c663          	blt	a1,s1,0x1c0017ca
1c0017c2:	0004c463          	bltz	s1,0x1c0017ca
1c0017c6:	1340006f          	j	0x1c0018fa
1c0017ca:	e3fff497          	auipc	s1,0xe3fff
1c0017ce:	ae648493          	addi	s1,s1,-1306 # 0x2b0
1c0017d2:	02000593          	li	a1,32
1c0017d6:	00b54463          	blt	a0,a1,0x1c0017de
1c0017da:	0491                	addi	s1,s1,4
1c0017dc:	1501                	addi	a0,a0,-32
1c0017de:	408c                	lw	a1,0(s1)
1c0017e0:	80a5c633          	p.bsetr	a2,a1,a0
1c0017e4:	c090                	sw	a2,0(s1)
1c0017e6:	a009                	j	0x1c0017e8
1c0017e8:	4402                	lw	s0,0(sp)
1c0017ea:	4492                	lw	s1,4(sp)
1c0017ec:	4522                	lw	a0,8(sp)
1c0017ee:	45b2                	lw	a1,12(sp)
1c0017f0:	4642                	lw	a2,16(sp)
1c0017f2:	6109                	addi	sp,sp,128
1c0017f4:	30200073          	mret
1c0017f8:	e3fff597          	auipc	a1,0xe3fff
1c0017fc:	b705a583          	lw	a1,-1168(a1) # 0x368
1c001800:	00000497          	auipc	s1,0x0
1c001804:	fe848493          	addi	s1,s1,-24 # 0x1c0017e8
1c001808:	c4fff06f          	j	0x1c001456
1c00180c:	2f002603          	lw	a2,752(zero) # 0x2f0
1c001810:	c621                	beqz	a2,0x1c001858
1c001812:	2e402583          	lw	a1,740(zero) # 0x2e4
1c001816:	2e802503          	lw	a0,744(zero) # 0x2e8
1c00181a:	c045b4b3          	p.bclr	s1,a1,0,4
1c00181e:	9532                	add	a0,a0,a2
1c001820:	d088                	sw	a0,32(s1)
1c001822:	2ea02423          	sw	a0,744(zero) # 0x2e8
1c001826:	2ec02503          	lw	a0,748(zero) # 0x2ec
1c00182a:	2f402483          	lw	s1,756(zero) # 0x2f4
1c00182e:	9532                	add	a0,a0,a2
1c001830:	8c91                	sub	s1,s1,a2
1c001832:	00964963          	blt	a2,s1,0x1c001844
1c001836:	8626                	mv	a2,s1
1c001838:	2e002823          	sw	zero,752(zero) # 0x2f0
1c00183c:	00061463          	bnez	a2,0x1c001844
1c001840:	fa9ff06f          	j	0x1c0017e8
1c001844:	2ea02623          	sw	a0,748(zero) # 0x2ec
1c001848:	2e902a23          	sw	s1,756(zero) # 0x2f4
1c00184c:	c188                	sw	a0,0(a1)
1c00184e:	c1d0                	sw	a2,4(a1)
1c001850:	4541                	li	a0,16
1c001852:	c588                	sw	a0,8(a1)
1c001854:	f95ff06f          	j	0x1c0017e8
1c001858:	2f802583          	lw	a1,760(zero) # 0x2f8
1c00185c:	2e002c23          	sw	zero,760(zero) # 0x2f8
1c001860:	c589                	beqz	a1,0x1c00186a
1c001862:	2e002e23          	sw	zero,764(zero) # 0x2fc
1c001866:	bf1ff4ef          	jal	s1,0x1c001456
1c00186a:	31402503          	lw	a0,788(zero) # 0x314
1c00186e:	c919                	beqz	a0,0x1c001884
1c001870:	00007617          	auipc	a2,0x7
1c001874:	97860613          	addi	a2,a2,-1672 # 0x1c0081e8
1c001878:	00000497          	auipc	s1,0x0
1c00187c:	f7048493          	addi	s1,s1,-144 # 0x1c0017e8
1c001880:	cc9ff06f          	j	0x1c001548
1c001884:	31802503          	lw	a0,792(zero) # 0x318
1c001888:	00051463          	bnez	a0,0x1c001890
1c00188c:	f5dff06f          	j	0x1c0017e8
1c001890:	00007617          	auipc	a2,0x7
1c001894:	96060613          	addi	a2,a2,-1696 # 0x1c0081f0
1c001898:	00000497          	auipc	s1,0x0
1c00189c:	f5048493          	addi	s1,s1,-176 # 0x1c0017e8
1c0018a0:	ca9ff06f          	j	0x1c001548
1c0018a4:	2f002603          	lw	a2,752(zero) # 0x2f0
1c0018a8:	2e402583          	lw	a1,740(zero) # 0x2e4
1c0018ac:	2e802503          	lw	a0,744(zero) # 0x2e8
1c0018b0:	c045b4b3          	p.bclr	s1,a1,0,4
1c0018b4:	9532                	add	a0,a0,a2
1c0018b6:	d088                	sw	a0,32(s1)
1c0018b8:	2ea02423          	sw	a0,744(zero) # 0x2e8
1c0018bc:	2ec02503          	lw	a0,748(zero) # 0x2ec
1c0018c0:	2f402483          	lw	s1,756(zero) # 0x2f4
1c0018c4:	9532                	add	a0,a0,a2
1c0018c6:	8c91                	sub	s1,s1,a2
1c0018c8:	00964f63          	blt	a2,s1,0x1c0018e6
1c0018cc:	00000617          	auipc	a2,0x0
1c0018d0:	f4060613          	addi	a2,a2,-192 # 0x1c00180c
1c0018d4:	2ec02023          	sw	a2,736(zero) # 0x2e0
1c0018d8:	8626                	mv	a2,s1
1c0018da:	2e002823          	sw	zero,752(zero) # 0x2f0
1c0018de:	00061463          	bnez	a2,0x1c0018e6
1c0018e2:	f07ff06f          	j	0x1c0017e8
1c0018e6:	2ea02623          	sw	a0,748(zero) # 0x2ec
1c0018ea:	2e902a23          	sw	s1,756(zero) # 0x2f4
1c0018ee:	c188                	sw	a0,0(a1)
1c0018f0:	c1d0                	sw	a2,4(a1)
1c0018f2:	4541                	li	a0,16
1c0018f4:	c588                	sw	a0,8(a1)
1c0018f6:	ef3ff06f          	j	0x1c0017e8
1c0018fa:	e3fff517          	auipc	a0,0xe3fff
1c0018fe:	a3250513          	addi	a0,a0,-1486 # 0x32c
1c001902:	00100593          	li	a1,1
1c001906:	4100                	lw	s0,0(a0)
1c001908:	8095a433          	p.insertr	s0,a1,s1
1c00190c:	c100                	sw	s0,0(a0)
1c00190e:	002044b7          	lui	s1,0x204
1c001912:	10c48493          	addi	s1,s1,268 # 0x20410c
1c001916:	557d                	li	a0,-1
1c001918:	c088                	sw	a0,0(s1)
1c00191a:	ecfff06f          	j	0x1c0017e8
1c00191e:	1a101537          	lui	a0,0x1a101
1c001922:	01850513          	addi	a0,a0,24 # 0x1a101018
1c001926:	4108                	lw	a0,0(a0)
1c001928:	3f002603          	lw	a2,1008(zero) # 0x3f0
1c00192c:	3ec02403          	lw	s0,1004(zero) # 0x3ec
1c001930:	8e49                	or	a2,a2,a0
1c001932:	3ec02823          	sw	a2,1008(zero) # 0x3f0
1c001936:	8c69                	and	s0,s0,a0
1c001938:	c819                	beqz	s0,0x1c00194e
1c00193a:	100404b3          	p.ff1	s1,s0
1c00193e:	80943433          	p.bclrr	s0,s0,s1
1c001942:	048a                	slli	s1,s1,0x2
1c001944:	36c4a583          	lw	a1,876(s1)
1c001948:	b0fff4ef          	jal	s1,0x1c001456
1c00194c:	f47d                	bnez	s0,0x1c00193a
1c00194e:	e9bff06f          	j	0x1c0017e8
1c001952:	00202e73          	frrm	t3
1c001956:	cf7516b3          	p.extractu	a3,a0,7,23
1c00195a:	ec0518b3          	p.extractu	a7,a0,22,0
1c00195e:	817d                	srli	a0,a0,0x1f
1c001960:	ce89                	beqz	a3,0x1c00197a
1c001962:	0ff00793          	li	a5,255
1c001966:	02f68963          	beq	a3,a5,0x1c001998
1c00196a:	088e                	slli	a7,a7,0x3
1c00196c:	c1a8c8b3          	p.bset	a7,a7,0,26
1c001970:	f8168693          	addi	a3,a3,-127
1c001974:	4f01                	li	t5,0
1c001976:	4801                	li	a6,0
1c001978:	a815                	j	0x1c0019ac
1c00197a:	06088c63          	beqz	a7,0x1c0019f2
1c00197e:	10089733          	p.fl1	a4,a7
1c001982:	47fd                	li	a5,31
1c001984:	40e78733          	sub	a4,a5,a4
1c001988:	ffb70793          	addi	a5,a4,-5
1c00198c:	f8a00693          	li	a3,-118
1c001990:	00f898b3          	sll	a7,a7,a5
1c001994:	8e99                	sub	a3,a3,a4
1c001996:	bff9                	j	0x1c001974
1c001998:	06088063          	beqz	a7,0x1c0019f8
1c00199c:	00989693          	slli	a3,a7,0x9
1c0019a0:	0606c063          	bltz	a3,0x1c001a00
1c0019a4:	0ff00693          	li	a3,255
1c0019a8:	4f0d                	li	t5,3
1c0019aa:	4841                	li	a6,16
1c0019ac:	cf759733          	p.extractu	a4,a1,7,23
1c0019b0:	ec0597b3          	p.extractu	a5,a1,22,0
1c0019b4:	81fd                	srli	a1,a1,0x1f
1c0019b6:	cb29                	beqz	a4,0x1c001a08
1c0019b8:	0ff00613          	li	a2,255
1c0019bc:	06c70463          	beq	a4,a2,0x1c001a24
1c0019c0:	078e                	slli	a5,a5,0x3
1c0019c2:	c1a7c7b3          	p.bset	a5,a5,0,26
1c0019c6:	f8170713          	addi	a4,a4,-127
1c0019ca:	4601                	li	a2,0
1c0019cc:	40e68333          	sub	t1,a3,a4
1c0019d0:	002f1713          	slli	a4,t5,0x2
1c0019d4:	8f51                	or	a4,a4,a2
1c0019d6:	177d                	addi	a4,a4,-1
1c0019d8:	46b9                	li	a3,14
1c0019da:	00b54eb3          	xor	t4,a0,a1
1c0019de:	06e6e863          	bltu	a3,a4,0x1c001a4e
1c0019e2:	1c00a6b7          	lui	a3,0x1c00a
1c0019e6:	070a                	slli	a4,a4,0x2
1c0019e8:	9c468693          	addi	a3,a3,-1596 # 0x1c0099c4
1c0019ec:	20e6f703          	p.lw	a4,a4(a3)
1c0019f0:	8702                	jr	a4
1c0019f2:	4681                	li	a3,0
1c0019f4:	4f05                	li	t5,1
1c0019f6:	b741                	j	0x1c001976
1c0019f8:	0ff00693          	li	a3,255
1c0019fc:	4f09                	li	t5,2
1c0019fe:	bfa5                	j	0x1c001976
1c001a00:	0ff00693          	li	a3,255
1c001a04:	4f0d                	li	t5,3
1c001a06:	bf85                	j	0x1c001976
1c001a08:	cb85                	beqz	a5,0x1c001a38
1c001a0a:	10079633          	p.fl1	a2,a5
1c001a0e:	477d                	li	a4,31
1c001a10:	40c70633          	sub	a2,a4,a2
1c001a14:	ffb60713          	addi	a4,a2,-5
1c001a18:	00e797b3          	sll	a5,a5,a4
1c001a1c:	f8a00713          	li	a4,-118
1c001a20:	8f11                	sub	a4,a4,a2
1c001a22:	b765                	j	0x1c0019ca
1c001a24:	cf89                	beqz	a5,0x1c001a3e
1c001a26:	00979713          	slli	a4,a5,0x9
1c001a2a:	00074e63          	bltz	a4,0x1c001a46
1c001a2e:	0ff00713          	li	a4,255
1c001a32:	460d                	li	a2,3
1c001a34:	4841                	li	a6,16
1c001a36:	bf59                	j	0x1c0019cc
1c001a38:	4701                	li	a4,0
1c001a3a:	4605                	li	a2,1
1c001a3c:	bf41                	j	0x1c0019cc
1c001a3e:	0ff00713          	li	a4,255
1c001a42:	4609                	li	a2,2
1c001a44:	b761                	j	0x1c0019cc
1c001a46:	0ff00713          	li	a4,255
1c001a4a:	460d                	li	a2,3
1c001a4c:	b741                	j	0x1c0019cc
1c001a4e:	00579513          	slli	a0,a5,0x5
1c001a52:	0cf8fa63          	bleu	a5,a7,0x1c001b26
1c001a56:	137d                	addi	t1,t1,-1
1c001a58:	4601                	li	a2,0
1c001a5a:	01055793          	srli	a5,a0,0x10
1c001a5e:	02f8dfb3          	divu	t6,a7,a5
1c001a62:	6741                	lui	a4,0x10
1c001a64:	177d                	addi	a4,a4,-1
1c001a66:	8f69                	and	a4,a4,a0
1c001a68:	8241                	srli	a2,a2,0x10
1c001a6a:	02f8f6b3          	remu	a3,a7,a5
1c001a6e:	85fe                	mv	a1,t6
1c001a70:	03f70f33          	mul	t5,a4,t6
1c001a74:	06c2                	slli	a3,a3,0x10
1c001a76:	8ed1                	or	a3,a3,a2
1c001a78:	01e6fc63          	bleu	t5,a3,0x1c001a90
1c001a7c:	96aa                	add	a3,a3,a0
1c001a7e:	ffff8593          	addi	a1,t6,-1
1c001a82:	00a6e763          	bltu	a3,a0,0x1c001a90
1c001a86:	01e6f563          	bleu	t5,a3,0x1c001a90
1c001a8a:	ffef8593          	addi	a1,t6,-2
1c001a8e:	96aa                	add	a3,a3,a0
1c001a90:	41e686b3          	sub	a3,a3,t5
1c001a94:	02f6d8b3          	divu	a7,a3,a5
1c001a98:	02f6f6b3          	remu	a3,a3,a5
1c001a9c:	03170633          	mul	a2,a4,a7
1c001aa0:	01069713          	slli	a4,a3,0x10
1c001aa4:	86c6                	mv	a3,a7
1c001aa6:	00c77c63          	bleu	a2,a4,0x1c001abe
1c001aaa:	972a                	add	a4,a4,a0
1c001aac:	fff88693          	addi	a3,a7,-1
1c001ab0:	00a76763          	bltu	a4,a0,0x1c001abe
1c001ab4:	00c77563          	bleu	a2,a4,0x1c001abe
1c001ab8:	ffe88693          	addi	a3,a7,-2
1c001abc:	972a                	add	a4,a4,a0
1c001abe:	01059793          	slli	a5,a1,0x10
1c001ac2:	8f11                	sub	a4,a4,a2
1c001ac4:	8fd5                	or	a5,a5,a3
1c001ac6:	00e03733          	snez	a4,a4
1c001aca:	8fd9                	or	a5,a5,a4
1c001acc:	07f30713          	addi	a4,t1,127
1c001ad0:	0ae05e63          	blez	a4,0x1c001b8c
1c001ad4:	f837b6b3          	p.bclr	a3,a5,28,3
1c001ad8:	ce91                	beqz	a3,0x1c001af4
1c001ada:	c0084833          	p.bset	a6,a6,0,0
1c001ade:	082e2b63          	p.beqimm	t3,2,0x1c001b74
1c001ae2:	083e2563          	p.beqimm	t3,3,0x1c001b6c
1c001ae6:	000e1763          	bnez	t3,0x1c001af4
1c001aea:	f647b6b3          	p.bclr	a3,a5,27,4
1c001aee:	0046a363          	p.beqimm	a3,4,0x1c001af4
1c001af2:	0791                	addi	a5,a5,4
1c001af4:	00479693          	slli	a3,a5,0x4
1c001af8:	0006d663          	bgez	a3,0x1c001b04
1c001afc:	c1b7b7b3          	p.bclr	a5,a5,0,27
1c001b00:	08030713          	addi	a4,t1,128
1c001b04:	0fe00693          	li	a3,254
1c001b08:	838d                	srli	a5,a5,0x3
1c001b0a:	04e6d563          	ble	a4,a3,0x1c001b54
1c001b0e:	062e2c63          	p.beqimm	t3,2,0x1c001b86
1c001b12:	063e2463          	p.beqimm	t3,3,0x1c001b7a
1c001b16:	060e0463          	beqz	t3,0x1c001b7e
1c001b1a:	57fd                	li	a5,-1
1c001b1c:	0fe00713          	li	a4,254
1c001b20:	00586813          	ori	a6,a6,5
1c001b24:	a805                	j	0x1c001b54
1c001b26:	01f89613          	slli	a2,a7,0x1f
1c001b2a:	0018d893          	srli	a7,a7,0x1
1c001b2e:	b735                	j	0x1c001a5a
1c001b30:	8eaa                	mv	t4,a0
1c001b32:	87c6                	mv	a5,a7
1c001b34:	867a                	mv	a2,t5
1c001b36:	00262c63          	p.beqimm	a2,2,0x1c001b4e
1c001b3a:	12362b63          	p.beqimm	a2,3,0x1c001c70
1c001b3e:	f81637e3          	p.bneimm	a2,1,0x1c001acc
1c001b42:	4781                	li	a5,0
1c001b44:	aa19                	j	0x1c001c5a
1c001b46:	8eae                	mv	t4,a1
1c001b48:	b7fd                	j	0x1c001b36
1c001b4a:	c0384833          	p.bset	a6,a6,0,3
1c001b4e:	4781                	li	a5,0
1c001b50:	0ff00713          	li	a4,255
1c001b54:	4501                	li	a0,0
1c001b56:	ec07a533          	p.insert	a0,a5,22,0
1c001b5a:	cf772533          	p.insert	a0,a4,7,23
1c001b5e:	c1fea533          	p.insert	a0,t4,0,31
1c001b62:	00080463          	beqz	a6,0x1c001b6a
1c001b66:	00182073          	csrs	0x1,a6
1c001b6a:	8082                	ret
1c001b6c:	f80e94e3          	bnez	t4,0x1c001af4
1c001b70:	07a1                	addi	a5,a5,8
1c001b72:	b749                	j	0x1c001af4
1c001b74:	f80e80e3          	beqz	t4,0x1c001af4
1c001b78:	bfe5                	j	0x1c001b70
1c001b7a:	fa0e90e3          	bnez	t4,0x1c001b1a
1c001b7e:	4781                	li	a5,0
1c001b80:	0ff00713          	li	a4,255
1c001b84:	bf71                	j	0x1c001b20
1c001b86:	fe0e9ce3          	bnez	t4,0x1c001b7e
1c001b8a:	bf41                	j	0x1c001b1a
1c001b8c:	4605                	li	a2,1
1c001b8e:	eb0d                	bnez	a4,0x1c001bc0
1c001b90:	f837b633          	p.bclr	a2,a5,28,3
1c001b94:	86be                	mv	a3,a5
1c001b96:	ce19                	beqz	a2,0x1c001bb4
1c001b98:	c0084833          	p.bset	a6,a6,0,0
1c001b9c:	082e2563          	p.beqimm	t3,2,0x1c001c26
1c001ba0:	063e2e63          	p.beqimm	t3,3,0x1c001c1c
1c001ba4:	000e1863          	bnez	t3,0x1c001bb4
1c001ba8:	f647b633          	p.bclr	a2,a5,27,4
1c001bac:	00462463          	p.beqimm	a2,4,0x1c001bb4
1c001bb0:	00478693          	addi	a3,a5,4 # 0x800004
1c001bb4:	01b6d613          	srli	a2,a3,0x1b
1c001bb8:	00164613          	xori	a2,a2,1
1c001bbc:	fc163633          	p.bclr	a2,a2,30,1
1c001bc0:	4685                	li	a3,1
1c001bc2:	40e68733          	sub	a4,a3,a4
1c001bc6:	46ed                	li	a3,27
1c001bc8:	06e6cc63          	blt	a3,a4,0x1c001c40
1c001bcc:	09e30693          	addi	a3,t1,158
1c001bd0:	00e7d733          	srl	a4,a5,a4
1c001bd4:	00d797b3          	sll	a5,a5,a3
1c001bd8:	00f037b3          	snez	a5,a5
1c001bdc:	8fd9                	or	a5,a5,a4
1c001bde:	f837b733          	p.bclr	a4,a5,28,3
1c001be2:	cf11                	beqz	a4,0x1c001bfe
1c001be4:	c0084833          	p.bset	a6,a6,0,0
1c001be8:	042e2663          	p.beqimm	t3,2,0x1c001c34
1c001bec:	043e2063          	p.beqimm	t3,3,0x1c001c2c
1c001bf0:	000e1763          	bnez	t3,0x1c001bfe
1c001bf4:	f647b733          	p.bclr	a4,a5,27,4
1c001bf8:	00472363          	p.beqimm	a4,4,0x1c001bfe
1c001bfc:	0791                	addi	a5,a5,4
1c001bfe:	00579713          	slli	a4,a5,0x5
1c001c02:	02075c63          	bgez	a4,0x1c001c3a
1c001c06:	c0084833          	p.bset	a6,a6,0,0
1c001c0a:	4781                	li	a5,0
1c001c0c:	4705                	li	a4,1
1c001c0e:	d239                	beqz	a2,0x1c001b54
1c001c10:	fc1836b3          	p.bclr	a3,a6,30,1
1c001c14:	d2a1                	beqz	a3,0x1c001b54
1c001c16:	c0184833          	p.bset	a6,a6,0,1
1c001c1a:	bf2d                	j	0x1c001b54
1c001c1c:	f80e9ce3          	bnez	t4,0x1c001bb4
1c001c20:	00878693          	addi	a3,a5,8
1c001c24:	bf41                	j	0x1c001bb4
1c001c26:	f80e87e3          	beqz	t4,0x1c001bb4
1c001c2a:	bfdd                	j	0x1c001c20
1c001c2c:	fc0e99e3          	bnez	t4,0x1c001bfe
1c001c30:	07a1                	addi	a5,a5,8
1c001c32:	b7f1                	j	0x1c001bfe
1c001c34:	fc0e85e3          	beqz	t4,0x1c001bfe
1c001c38:	bfe5                	j	0x1c001c30
1c001c3a:	838d                	srli	a5,a5,0x3
1c001c3c:	4701                	li	a4,0
1c001c3e:	bfc1                	j	0x1c001c0e
1c001c40:	cb99                	beqz	a5,0x1c001c56
1c001c42:	c0084833          	p.bset	a6,a6,0,0
1c001c46:	022e2163          	p.beqimm	t3,2,0x1c001c68
1c001c4a:	003e2a63          	p.beqimm	t3,3,0x1c001c5e
1c001c4e:	4795                	li	a5,5
1c001c50:	000e1a63          	bnez	t3,0x1c001c64
1c001c54:	838d                	srli	a5,a5,0x3
1c001c56:	c0184833          	p.bset	a6,a6,0,1
1c001c5a:	4701                	li	a4,0
1c001c5c:	bde5                	j	0x1c001b54
1c001c5e:	47a5                	li	a5,9
1c001c60:	fe0e8ae3          	beqz	t4,0x1c001c54
1c001c64:	4785                	li	a5,1
1c001c66:	b7fd                	j	0x1c001c54
1c001c68:	47a5                	li	a5,9
1c001c6a:	fe0e95e3          	bnez	t4,0x1c001c54
1c001c6e:	bfdd                	j	0x1c001c64
1c001c70:	004007b7          	lui	a5,0x400
1c001c74:	0ff00713          	li	a4,255
1c001c78:	4e81                	li	t4,0
1c001c7a:	bde9                	j	0x1c001b54
1c001c7c:	004007b7          	lui	a5,0x400
1c001c80:	0ff00713          	li	a4,255
1c001c84:	4e81                	li	t4,0
1c001c86:	4841                	li	a6,16
1c001c88:	b5f1                	j	0x1c001b54
1c001c8a:	00202873          	frrm	a6
1c001c8e:	c54d                	beqz	a0,0x1c001d38
1c001c90:	477d                	li	a4,31
1c001c92:	100517b3          	p.fl1	a5,a0
1c001c96:	40f707b3          	sub	a5,a4,a5
1c001c9a:	09e00713          	li	a4,158
1c001c9e:	8f1d                	sub	a4,a4,a5
1c001ca0:	09600693          	li	a3,150
1c001ca4:	02e6c463          	blt	a3,a4,0x1c001ccc
1c001ca8:	46a1                	li	a3,8
1c001caa:	4601                	li	a2,0
1c001cac:	00f6d563          	ble	a5,a3,0x1c001cb6
1c001cb0:	17e1                	addi	a5,a5,-8
1c001cb2:	00f51533          	sll	a0,a0,a5
1c001cb6:	4781                	li	a5,0
1c001cb8:	ec0527b3          	p.insert	a5,a0,22,0
1c001cbc:	cf7727b3          	p.insert	a5,a4,7,23
1c001cc0:	c1f7b533          	p.bclr	a0,a5,0,31
1c001cc4:	c219                	beqz	a2,0x1c001cca
1c001cc6:	0010e073          	csrsi	0x1,1
1c001cca:	8082                	ret
1c001ccc:	09900693          	li	a3,153
1c001cd0:	00e6dd63          	ble	a4,a3,0x1c001cea
1c001cd4:	01b78693          	addi	a3,a5,27 # 0x40001b
1c001cd8:	4615                	li	a2,5
1c001cda:	00d516b3          	sll	a3,a0,a3
1c001cde:	8e1d                	sub	a2,a2,a5
1c001ce0:	00d036b3          	snez	a3,a3
1c001ce4:	00c55533          	srl	a0,a0,a2
1c001ce8:	8d55                	or	a0,a0,a3
1c001cea:	4695                	li	a3,5
1c001cec:	00f6d663          	ble	a5,a3,0x1c001cf8
1c001cf0:	ffb78693          	addi	a3,a5,-5
1c001cf4:	00d51533          	sll	a0,a0,a3
1c001cf8:	f83535b3          	p.bclr	a1,a0,28,3
1c001cfc:	c1a536b3          	p.bclr	a3,a0,0,26
1c001d00:	4601                	li	a2,0
1c001d02:	cd89                	beqz	a1,0x1c001d1c
1c001d04:	00080663          	beqz	a6,0x1c001d10
1c001d08:	02382663          	p.beqimm	a6,3,0x1c001d34
1c001d0c:	4605                	li	a2,1
1c001d0e:	a039                	j	0x1c001d1c
1c001d10:	f6453533          	p.bclr	a0,a0,27,4
1c001d14:	4605                	li	a2,1
1c001d16:	00452363          	p.beqimm	a0,4,0x1c001d1c
1c001d1a:	0691                	addi	a3,a3,4
1c001d1c:	00569593          	slli	a1,a3,0x5
1c001d20:	0005d763          	bgez	a1,0x1c001d2e
1c001d24:	09f00713          	li	a4,159
1c001d28:	c1a6b6b3          	p.bclr	a3,a3,0,26
1c001d2c:	8f1d                	sub	a4,a4,a5
1c001d2e:	0036d513          	srli	a0,a3,0x3
1c001d32:	b751                	j	0x1c001cb6
1c001d34:	06a1                	addi	a3,a3,8
1c001d36:	bfd9                	j	0x1c001d0c
1c001d38:	4701                	li	a4,0
1c001d3a:	4601                	li	a2,0
1c001d3c:	bfad                	j	0x1c001cb6
1c001d3e:	002027f3          	frrm	a5
1c001d42:	cf751633          	p.extractu	a2,a0,7,23
1c001d46:	00160713          	addi	a4,a2,1
1c001d4a:	ee873733          	p.bclr	a4,a4,23,8
1c001d4e:	4685                	li	a3,1
1c001d50:	ec0517b3          	p.extractu	a5,a0,22,0
1c001d54:	817d                	srli	a0,a0,0x1f
1c001d56:	00e6d963          	ble	a4,a3,0x1c001d68
1c001d5a:	0037d713          	srli	a4,a5,0x3
1c001d5e:	38060613          	addi	a2,a2,896
1c001d62:	07f6                	slli	a5,a5,0x1d
1c001d64:	4681                	li	a3,0
1c001d66:	a899                	j	0x1c001dbc
1c001d68:	ee05                	bnez	a2,0x1c001da0
1c001d6a:	c7ad                	beqz	a5,0x1c001dd4
1c001d6c:	477d                	li	a4,31
1c001d6e:	100796b3          	p.fl1	a3,a5
1c001d72:	40d706b3          	sub	a3,a4,a3
1c001d76:	4729                	li	a4,10
1c001d78:	00d74e63          	blt	a4,a3,0x1c001d94
1c001d7c:	472d                	li	a4,11
1c001d7e:	8f15                	sub	a4,a4,a3
1c001d80:	01568613          	addi	a2,a3,21
1c001d84:	00e7d733          	srl	a4,a5,a4
1c001d88:	00c797b3          	sll	a5,a5,a2
1c001d8c:	38900613          	li	a2,905
1c001d90:	8e15                	sub	a2,a2,a3
1c001d92:	bfc9                	j	0x1c001d64
1c001d94:	ff568713          	addi	a4,a3,-11
1c001d98:	00e79733          	sll	a4,a5,a4
1c001d9c:	4781                	li	a5,0
1c001d9e:	b7fd                	j	0x1c001d8c
1c001da0:	cf8d                	beqz	a5,0x1c001dda
1c001da2:	004006b7          	lui	a3,0x400
1c001da6:	8efd                	and	a3,a3,a5
1c001da8:	0037d713          	srli	a4,a5,0x3
1c001dac:	0016b693          	seqz	a3,a3
1c001db0:	0692                	slli	a3,a3,0x4
1c001db2:	c1374733          	p.bset	a4,a4,0,19
1c001db6:	07f6                	slli	a5,a5,0x1d
1c001db8:	7ff00613          	li	a2,2047
1c001dbc:	4581                	li	a1,0
1c001dbe:	e60725b3          	p.insert	a1,a4,19,0
1c001dc2:	d54625b3          	p.insert	a1,a2,10,20
1c001dc6:	c1f525b3          	p.insert	a1,a0,0,31
1c001dca:	853e                	mv	a0,a5
1c001dcc:	c299                	beqz	a3,0x1c001dd2
1c001dce:	0016a073          	csrs	0x1,a3
1c001dd2:	8082                	ret
1c001dd4:	4701                	li	a4,0
1c001dd6:	4601                	li	a2,0
1c001dd8:	b771                	j	0x1c001d64
1c001dda:	4701                	li	a4,0
1c001ddc:	7ff00613          	li	a2,2047
1c001de0:	b751                	j	0x1c001d64
1c001de2:	1c00a537          	lui	a0,0x1c00a
1c001de6:	1141                	addi	sp,sp,-16
1c001de8:	a0050513          	addi	a0,a0,-1536 # 0x1c009a00
1c001dec:	c606                	sw	ra,12(sp)
1c001dee:	c422                	sw	s0,8(sp)
1c001df0:	c226                	sw	s1,4(sp)
1c001df2:	3d7060ef          	jal	ra,0x1c0089c8
1c001df6:	67c1                	lui	a5,0x10
1c001df8:	7a079073          	csrw	pcer,a5
1c001dfc:	014027f3          	csrr	a5,uhartid
1c001e00:	02000713          	li	a4,32
1c001e04:	ca5797b3          	p.extractu	a5,a5,5,5
1c001e08:	0ee78363          	beq	a5,a4,0x1c001eee
1c001e0c:	102007b7          	lui	a5,0x10200
1c001e10:	4705                	li	a4,1
1c001e12:	40078793          	addi	a5,a5,1024 # 0x10200400
1c001e16:	00e7ac23          	sw	a4,24(a5)
1c001e1a:	478d                	li	a5,3
1c001e1c:	7a179073          	csrw	pcmr,a5
1c001e20:	014027f3          	csrr	a5,uhartid
1c001e24:	02000713          	li	a4,32
1c001e28:	ca5797b3          	p.extractu	a5,a5,5,5
1c001e2c:	0ee78363          	beq	a5,a4,0x1c001f12
1c001e30:	102007b7          	lui	a5,0x10200
1c001e34:	4705                	li	a4,1
1c001e36:	40078793          	addi	a5,a5,1024 # 0x10200400
1c001e3a:	02e7a023          	sw	a4,32(a5)
1c001e3e:	4781                	li	a5,0
1c001e40:	79f79073          	csrw	pccr31,a5
1c001e44:	1c00a4b7          	lui	s1,0x1c00a
1c001e48:	53048493          	addi	s1,s1,1328 # 0x1c00a530
1c001e4c:	408c                	lw	a1,0(s1)
1c001e4e:	40c8                	lw	a0,4(s1)
1c001e50:	4401                	li	s0,0
1c001e52:	031010ef          	jal	ra,0x1c003682
1c001e56:	1c00a537          	lui	a0,0x1c00a
1c001e5a:	a1450513          	addi	a0,a0,-1516 # 0x1c009a14
1c001e5e:	36b060ef          	jal	ra,0x1c0089c8
1c001e62:	4098                	lw	a4,0(s1)
1c001e64:	00071783          	lh	a5,0(a4) # 0x10000
1c001e68:	00271683          	lh	a3,2(a4)
1c001e6c:	00d7d463          	ble	a3,a5,0x1c001e74
1c001e70:	87b6                	mv	a5,a3
1c001e72:	4405                	li	s0,1
1c001e74:	00471683          	lh	a3,4(a4)
1c001e78:	00d7d463          	ble	a3,a5,0x1c001e80
1c001e7c:	87b6                	mv	a5,a3
1c001e7e:	4409                	li	s0,2
1c001e80:	00671683          	lh	a3,6(a4)
1c001e84:	00d7d463          	ble	a3,a5,0x1c001e8c
1c001e88:	87b6                	mv	a5,a3
1c001e8a:	440d                	li	s0,3
1c001e8c:	00871683          	lh	a3,8(a4)
1c001e90:	00d7d463          	ble	a3,a5,0x1c001e98
1c001e94:	87b6                	mv	a5,a3
1c001e96:	4411                	li	s0,4
1c001e98:	00a71683          	lh	a3,10(a4)
1c001e9c:	00d7d463          	ble	a3,a5,0x1c001ea4
1c001ea0:	87b6                	mv	a5,a3
1c001ea2:	4415                	li	s0,5
1c001ea4:	00c71683          	lh	a3,12(a4)
1c001ea8:	00d7d463          	ble	a3,a5,0x1c001eb0
1c001eac:	87b6                	mv	a5,a3
1c001eae:	4419                	li	s0,6
1c001eb0:	00e71683          	lh	a3,14(a4)
1c001eb4:	00d7d463          	ble	a3,a5,0x1c001ebc
1c001eb8:	87b6                	mv	a5,a3
1c001eba:	441d                	li	s0,7
1c001ebc:	01071683          	lh	a3,16(a4)
1c001ec0:	00d7d463          	ble	a3,a5,0x1c001ec8
1c001ec4:	87b6                	mv	a5,a3
1c001ec6:	4421                	li	s0,8
1c001ec8:	01271703          	lh	a4,18(a4)
1c001ecc:	00e7d363          	ble	a4,a5,0x1c001ed2
1c001ed0:	4425                	li	s0,9
1c001ed2:	4529                	li	a0,10
1c001ed4:	36b060ef          	jal	ra,0x1c008a3e
1c001ed8:	85a2                	mv	a1,s0
1c001eda:	4422                	lw	s0,8(sp)
1c001edc:	40b2                	lw	ra,12(sp)
1c001ede:	4492                	lw	s1,4(sp)
1c001ee0:	1c00a537          	lui	a0,0x1c00a
1c001ee4:	a2850513          	addi	a0,a0,-1496 # 0x1c009a28
1c001ee8:	0141                	addi	sp,sp,16
1c001eea:	46d0606f          	j	0x1c008b56
1c001eee:	002007b7          	lui	a5,0x200
1c001ef2:	4705                	li	a4,1
1c001ef4:	40078793          	addi	a5,a5,1024 # 0x200400
1c001ef8:	00e7ac23          	sw	a4,24(a5)
1c001efc:	478d                	li	a5,3
1c001efe:	7a179073          	csrw	pcmr,a5
1c001f02:	014027f3          	csrr	a5,uhartid
1c001f06:	02000713          	li	a4,32
1c001f0a:	ca5797b3          	p.extractu	a5,a5,5,5
1c001f0e:	f2e791e3          	bne	a5,a4,0x1c001e30
1c001f12:	002007b7          	lui	a5,0x200
1c001f16:	4705                	li	a4,1
1c001f18:	40078793          	addi	a5,a5,1024 # 0x200400
1c001f1c:	02e7a023          	sw	a4,32(a5)
1c001f20:	4781                	li	a5,0
1c001f22:	79f79073          	csrw	pccr31,a5
1c001f26:	bf39                	j	0x1c001e44
1c001f28:	1c00a537          	lui	a0,0x1c00a
1c001f2c:	7135                	addi	sp,sp,-160
1c001f2e:	a7050513          	addi	a0,a0,-1424 # 0x1c009a70
1c001f32:	cf06                	sw	ra,156(sp)
1c001f34:	cd22                	sw	s0,152(sp)
1c001f36:	c94a                	sw	s2,144(sp)
1c001f38:	cb26                	sw	s1,148(sp)
1c001f3a:	c74e                	sw	s3,140(sp)
1c001f3c:	c552                	sw	s4,136(sp)
1c001f3e:	c356                	sw	s5,132(sp)
1c001f40:	c15a                	sw	s6,128(sp)
1c001f42:	dede                	sw	s7,124(sp)
1c001f44:	dce2                	sw	s8,120(sp)
1c001f46:	dae6                	sw	s9,116(sp)
1c001f48:	d8ea                	sw	s10,112(sp)
1c001f4a:	d6ee                	sw	s11,108(sp)
1c001f4c:	27d060ef          	jal	ra,0x1c0089c8
1c001f50:	31000513          	li	a0,784
1c001f54:	c602                	sw	zero,12(sp)
1c001f56:	c802                	sw	zero,16(sp)
1c001f58:	389040ef          	jal	ra,0x1c006ae0
1c001f5c:	842a                	mv	s0,a0
1c001f5e:	1c00b937          	lui	s2,0x1c00b
1c001f62:	20050d63          	beqz	a0,0x1c00217c
1c001f66:	1c00a537          	lui	a0,0x1c00a
1c001f6a:	abc50513          	addi	a0,a0,-1348 # 0x1c009abc
1c001f6e:	1c00a4b7          	lui	s1,0x1c00a
1c001f72:	257060ef          	jal	ra,0x1c0089c8
1c001f76:	7c048493          	addi	s1,s1,1984 # 0x1c00a7c0
1c001f7a:	4088                	lw	a0,0(s1)
1c001f7c:	31000713          	li	a4,784
1c001f80:	86a2                	mv	a3,s0
1c001f82:	0810                	addi	a2,sp,16
1c001f84:	006c                	addi	a1,sp,12
1c001f86:	2c91                	jal	0x1c0021da
1c001f88:	4732                	lw	a4,12(sp)
1c001f8a:	1e050763          	beqz	a0,0x1c002178
1c001f8e:	46f1                	li	a3,28
1c001f90:	47c2                	lw	a5,16(sp)
1c001f92:	1ed70063          	beq	a4,a3,0x1c002172
1c001f96:	408c                	lw	a1,0(s1)
1c001f98:	1c00a537          	lui	a0,0x1c00a
1c001f9c:	46f1                	li	a3,28
1c001f9e:	4671                	li	a2,28
1c001fa0:	acc50513          	addi	a0,a0,-1332 # 0x1c009acc
1c001fa4:	3b3060ef          	jal	ra,0x1c008b56
1c001fa8:	57f9                	li	a5,-2
1c001faa:	80f92823          	sw	a5,-2032(s2) # 0x1c00a810
1c001fae:	1c00a537          	lui	a0,0x1c00a
1c001fb2:	b1850513          	addi	a0,a0,-1256 # 0x1c009b18
1c001fb6:	213060ef          	jal	ra,0x1c0089c8
1c001fba:	4551                	li	a0,20
1c001fbc:	1c00a4b7          	lui	s1,0x1c00a
1c001fc0:	321040ef          	jal	ra,0x1c006ae0
1c001fc4:	53048493          	addi	s1,s1,1328 # 0x1c00a530
1c001fc8:	c088                	sw	a0,0(s1)
1c001fca:	1c050563          	beqz	a0,0x1c002194
1c001fce:	1c00a537          	lui	a0,0x1c00a
1c001fd2:	b6450513          	addi	a0,a0,-1180 # 0x1c009b64
1c001fd6:	1f3060ef          	jal	ra,0x1c0089c8
1c001fda:	30f40793          	addi	a5,s0,783
1c001fde:	c0c0                	sw	s0,4(s1)
1c001fe0:	85a2                	mv	a1,s0
1c001fe2:	fff40613          	addi	a2,s0,-1
1c001fe6:	a011                	j	0x1c001fea
1c001fe8:	40c0                	lw	s0,4(s1)
1c001fea:	40b786b3          	sub	a3,a5,a1
1c001fee:	fff7c70b          	p.lbu	a4,-1(a5!)
1c001ff2:	8305                	srli	a4,a4,0x1
1c001ff4:	00e446a3          	p.sb	a4,a3(s0)
1c001ff8:	fec798e3          	bne	a5,a2,0x1c001fe8
1c001ffc:	0848                	addi	a0,sp,20
1c001ffe:	100c                	addi	a1,sp,32
1c002000:	d202                	sw	zero,36(sp)
1c002002:	182040ef          	jal	ra,0x1c006184
1c002006:	0848                	addi	a0,sp,20
1c002008:	6a8050ef          	jal	ra,0x1c0076b0
1c00200c:	12051663          	bnez	a0,0x1c002138
1c002010:	1c00a537          	lui	a0,0x1c00a
1c002014:	b9050513          	addi	a0,a0,-1136 # 0x1c009b90
1c002018:	1b1060ef          	jal	ra,0x1c0089c8
1c00201c:	414010ef          	jal	ra,0x1c003430
1c002020:	12051f63          	bnez	a0,0x1c00215e
1c002024:	1c00a537          	lui	a0,0x1c00a
1c002028:	bc450513          	addi	a0,a0,-1084 # 0x1c009bc4
1c00202c:	19d060ef          	jal	ra,0x1c0089c8
1c002030:	1c0027b7          	lui	a5,0x1c002
1c002034:	de278793          	addi	a5,a5,-542 # 0x1c001de2
1c002038:	da3e                	sw	a5,52(sp)
1c00203a:	6785                	lui	a5,0x1
1c00203c:	80078793          	addi	a5,a5,-2048 # 0x800
1c002040:	184c                	addi	a1,sp,52
1c002042:	0848                	addi	a0,sp,20
1c002044:	c0be                	sw	a5,64(sp)
1c002046:	dc02                	sw	zero,56(sp)
1c002048:	de02                	sw	zero,60(sp)
1c00204a:	c282                	sw	zero,68(sp)
1c00204c:	c482                	sw	zero,72(sp)
1c00204e:	c682                	sw	zero,76(sp)
1c002050:	c882                	sw	zero,80(sp)
1c002052:	ca82                	sw	zero,84(sp)
1c002054:	cc82                	sw	zero,88(sp)
1c002056:	ce82                	sw	zero,92(sp)
1c002058:	23b050ef          	jal	ra,0x1c007a92
1c00205c:	5cc010ef          	jal	ra,0x1c003628
1c002060:	1c00a437          	lui	s0,0x1c00a
1c002064:	4529                	li	a0,10
1c002066:	40040413          	addi	s0,s0,1024 # 0x1c00a400
1c00206a:	1c00b9b7          	lui	s3,0x1c00b
1c00206e:	1c00a4b7          	lui	s1,0x1c00a
1c002072:	1cd060ef          	jal	ra,0x1c008a3e
1c002076:	80098993          	addi	s3,s3,-2048 # 0x1c00a800
1c00207a:	41048493          	addi	s1,s1,1040 # 0x1c00a410
1c00207e:	01040c93          	addi	s9,s0,16
1c002082:	4b81                	li	s7,0
1c002084:	4b01                	li	s6,0
1c002086:	1c00ac37          	lui	s8,0x1c00a
1c00208a:	0004aa83          	lw	s5,0(s1)
1c00208e:	0009aa03          	lw	s4,0(s3)
1c002092:	00442d0b          	p.lw	s10,4(s0!)
1c002096:	8556                	mv	a0,s5
1c002098:	3ecd                	jal	0x1c001c8a
1c00209a:	8daa                	mv	s11,a0
1c00209c:	8552                	mv	a0,s4
1c00209e:	36f5                	jal	0x1c001c8a
1c0020a0:	85aa                	mv	a1,a0
1c0020a2:	856e                	mv	a0,s11
1c0020a4:	8afff0ef          	jal	ra,0x1c001952
1c0020a8:	3959                	jal	0x1c001d3e
1c0020aa:	872a                	mv	a4,a0
1c0020ac:	87ae                	mv	a5,a1
1c0020ae:	86d6                	mv	a3,s5
1c0020b0:	8652                	mv	a2,s4
1c0020b2:	85ea                	mv	a1,s10
1c0020b4:	bd4c0513          	addi	a0,s8,-1068 # 0x1c009bd4
1c0020b8:	29f060ef          	jal	ra,0x1c008b56
1c0020bc:	0049a70b          	p.lw	a4,4(s3!)
1c0020c0:	0044a78b          	p.lw	a5,4(s1!)
1c0020c4:	9b3a                	add	s6,s6,a4
1c0020c6:	9bbe                	add	s7,s7,a5
1c0020c8:	fd9411e3          	bne	s0,s9,0x1c00208a
1c0020cc:	4529                	li	a0,10
1c0020ce:	171060ef          	jal	ra,0x1c008a3e
1c0020d2:	855e                	mv	a0,s7
1c0020d4:	3e5d                	jal	0x1c001c8a
1c0020d6:	842a                	mv	s0,a0
1c0020d8:	855a                	mv	a0,s6
1c0020da:	3e45                	jal	0x1c001c8a
1c0020dc:	85aa                	mv	a1,a0
1c0020de:	8522                	mv	a0,s0
1c0020e0:	873ff0ef          	jal	ra,0x1c001952
1c0020e4:	39a9                	jal	0x1c001d3e
1c0020e6:	87ae                	mv	a5,a1
1c0020e8:	1c00a5b7          	lui	a1,0x1c00a
1c0020ec:	872a                	mv	a4,a0
1c0020ee:	86de                	mv	a3,s7
1c0020f0:	865a                	mv	a2,s6
1c0020f2:	c0858593          	addi	a1,a1,-1016 # 0x1c009c08
1c0020f6:	bd4c0513          	addi	a0,s8,-1068
1c0020fa:	25d060ef          	jal	ra,0x1c008b56
1c0020fe:	4529                	li	a0,10
1c002100:	13f060ef          	jal	ra,0x1c008a3e
1c002104:	0848                	addi	a0,sp,20
1c002106:	682050ef          	jal	ra,0x1c007788
1c00210a:	1c00a537          	lui	a0,0x1c00a
1c00210e:	c1050513          	addi	a0,a0,-1008 # 0x1c009c10
1c002112:	0b7060ef          	jal	ra,0x1c0089c8
1c002116:	40fa                	lw	ra,156(sp)
1c002118:	446a                	lw	s0,152(sp)
1c00211a:	80092823          	sw	zero,-2032(s2)
1c00211e:	44da                	lw	s1,148(sp)
1c002120:	494a                	lw	s2,144(sp)
1c002122:	49ba                	lw	s3,140(sp)
1c002124:	4a2a                	lw	s4,136(sp)
1c002126:	4a9a                	lw	s5,132(sp)
1c002128:	4b0a                	lw	s6,128(sp)
1c00212a:	5bf6                	lw	s7,124(sp)
1c00212c:	5c66                	lw	s8,120(sp)
1c00212e:	5cd6                	lw	s9,116(sp)
1c002130:	5d46                	lw	s10,112(sp)
1c002132:	5db6                	lw	s11,108(sp)
1c002134:	610d                	addi	sp,sp,160
1c002136:	8082                	ret
1c002138:	1c00a537          	lui	a0,0x1c00a
1c00213c:	b7850513          	addi	a0,a0,-1160 # 0x1c009b78
1c002140:	089060ef          	jal	ra,0x1c0089c8
1c002144:	1c00a537          	lui	a0,0x1c00a
1c002148:	57f1                	li	a5,-4
1c00214a:	b9050513          	addi	a0,a0,-1136 # 0x1c009b90
1c00214e:	80f92823          	sw	a5,-2032(s2)
1c002152:	077060ef          	jal	ra,0x1c0089c8
1c002156:	2da010ef          	jal	ra,0x1c003430
1c00215a:	ec0505e3          	beqz	a0,0x1c002024
1c00215e:	1c00a537          	lui	a0,0x1c00a
1c002162:	b9c50513          	addi	a0,a0,-1124 # 0x1c009b9c
1c002166:	063060ef          	jal	ra,0x1c0089c8
1c00216a:	57ed                	li	a5,-5
1c00216c:	80f92823          	sw	a5,-2032(s2)
1c002170:	bd55                	j	0x1c002024
1c002172:	e2e792e3          	bne	a5,a4,0x1c001f96
1c002176:	bd25                	j	0x1c001fae
1c002178:	47c2                	lw	a5,16(sp)
1c00217a:	bd31                	j	0x1c001f96
1c00217c:	1c00a537          	lui	a0,0x1c00a
1c002180:	31000593          	li	a1,784
1c002184:	a8c50513          	addi	a0,a0,-1396 # 0x1c009a8c
1c002188:	1cf060ef          	jal	ra,0x1c008b56
1c00218c:	57fd                	li	a5,-1
1c00218e:	80f92823          	sw	a5,-2032(s2)
1c002192:	bbd1                	j	0x1c001f66
1c002194:	1c00a537          	lui	a0,0x1c00a
1c002198:	45d1                	li	a1,20
1c00219a:	b3050513          	addi	a0,a0,-1232 # 0x1c009b30
1c00219e:	1b9060ef          	jal	ra,0x1c008b56
1c0021a2:	57f5                	li	a5,-3
1c0021a4:	80f92823          	sw	a5,-2032(s2)
1c0021a8:	b51d                	j	0x1c001fce
1c0021aa:	1c00a537          	lui	a0,0x1c00a
1c0021ae:	1c00a7b7          	lui	a5,0x1c00a
1c0021b2:	1141                	addi	sp,sp,-16
1c0021b4:	a3878793          	addi	a5,a5,-1480 # 0x1c009a38
1c0021b8:	1c00a737          	lui	a4,0x1c00a
1c0021bc:	a4c50513          	addi	a0,a0,-1460 # 0x1c009a4c
1c0021c0:	c606                	sw	ra,12(sp)
1c0021c2:	7cf72023          	sw	a5,1984(a4) # 0x1c00a7c0
1c0021c6:	003060ef          	jal	ra,0x1c0089c8
1c0021ca:	3bb9                	jal	0x1c001f28
1c0021cc:	40b2                	lw	ra,12(sp)
1c0021ce:	1c00b7b7          	lui	a5,0x1c00b
1c0021d2:	8107a503          	lw	a0,-2032(a5) # 0x1c00a810
1c0021d6:	0141                	addi	sp,sp,16
1c0021d8:	8082                	ret
1c0021da:	715d                	addi	sp,sp,-80
1c0021dc:	c686                	sw	ra,76(sp)
1c0021de:	c4a2                	sw	s0,72(sp)
1c0021e0:	c2a6                	sw	s1,68(sp)
1c0021e2:	c0ca                	sw	s2,64(sp)
1c0021e4:	dc52                	sw	s4,56(sp)
1c0021e6:	d85a                	sw	s6,48(sp)
1c0021e8:	d65e                	sw	s7,44(sp)
1c0021ea:	d462                	sw	s8,40(sp)
1c0021ec:	de4e                	sw	s3,60(sp)
1c0021ee:	da56                	sw	s5,52(sp)
1c0021f0:	d266                	sw	s9,36(sp)
1c0021f2:	d06a                	sw	s10,32(sp)
1c0021f4:	ce6e                	sw	s11,28(sp)
1c0021f6:	0005a023          	sw	zero,0(a1)
1c0021fa:	8932                	mv	s2,a2
1c0021fc:	84ae                	mv	s1,a1
1c0021fe:	842a                	mv	s0,a0
1c002200:	85aa                	mv	a1,a0
1c002202:	1c00a637          	lui	a2,0x1c00a
1c002206:	1c00a537          	lui	a0,0x1c00a
1c00220a:	c2860613          	addi	a2,a2,-984 # 0x1c009c28
1c00220e:	00092023          	sw	zero,0(s2)
1c002212:	c2c50513          	addi	a0,a0,-980 # 0x1c009c2c
1c002216:	8b36                	mv	s6,a3
1c002218:	8bba                	mv	s7,a4
1c00221a:	13d060ef          	jal	ra,0x1c008b56
1c00221e:	10000513          	li	a0,256
1c002222:	1c00ac37          	lui	s8,0x1c00a
1c002226:	0bb040ef          	jal	ra,0x1c006ae0
1c00222a:	7c8c0c13          	addi	s8,s8,1992 # 0x1c00a7c8
1c00222e:	000c2603          	lw	a2,0(s8)
1c002232:	31d00813          	li	a6,797
1c002236:	10000693          	li	a3,256
1c00223a:	40c80833          	sub	a6,a6,a2
1c00223e:	8a2a                	mv	s4,a0
1c002240:	04d845b3          	p.min	a1,a6,a3
1c002244:	13005163          	blez	a6,0x1c002366
1c002248:	1c00a9b7          	lui	s3,0x1c00a
1c00224c:	0e098993          	addi	s3,s3,224 # 0x1c00a0e0
1c002250:	00460713          	addi	a4,a2,4
1c002254:	00c987b3          	add	a5,s3,a2
1c002258:	974e                	add	a4,a4,s3
1c00225a:	0511                	addi	a0,a0,4
1c00225c:	05473733          	p.sletu	a4,a4,s4
1c002260:	04f53533          	p.sletu	a0,a0,a5
1c002264:	86ba                	mv	a3,a4
1c002266:	872a                	mv	a4,a0
1c002268:	8f55                	or	a4,a4,a3
1c00226a:	0ff77713          	andi	a4,a4,255
1c00226e:	58070463          	beqz	a4,0x1c0027f6
1c002272:	00882713          	slti	a4,a6,8
1c002276:	00174713          	xori	a4,a4,1
1c00227a:	0ff77713          	andi	a4,a4,255
1c00227e:	56070c63          	beqz	a4,0x1c0027f6
1c002282:	40f007b3          	neg	a5,a5
1c002286:	fa27b7b3          	p.bclr	a5,a5,29,2
1c00228a:	00378693          	addi	a3,a5,3
1c00228e:	fff58713          	addi	a4,a1,-1
1c002292:	58d76b63          	bltu	a4,a3,0x1c002828
1c002296:	4881                	li	a7,0
1c002298:	c795                	beqz	a5,0x1c0022c4
1c00229a:	00c98733          	add	a4,s3,a2
1c00229e:	00074683          	lbu	a3,0(a4)
1c0022a2:	4885                	li	a7,1
1c0022a4:	00da0023          	sb	a3,0(s4)
1c0022a8:	0017ae63          	p.beqimm	a5,1,0x1c0022c4
1c0022ac:	00174683          	lbu	a3,1(a4)
1c0022b0:	4889                	li	a7,2
1c0022b2:	00da00a3          	sb	a3,1(s4)
1c0022b6:	0037b763          	p.bneimm	a5,3,0x1c0022c4
1c0022ba:	00274703          	lbu	a4,2(a4)
1c0022be:	488d                	li	a7,3
1c0022c0:	00ea0123          	sb	a4,2(s4)
1c0022c4:	40f58333          	sub	t1,a1,a5
1c0022c8:	00f606b3          	add	a3,a2,a5
1c0022cc:	00235713          	srli	a4,t1,0x2
1c0022d0:	97d2                	add	a5,a5,s4
1c0022d2:	96ce                	add	a3,a3,s3
1c0022d4:	5a070b63          	beqz	a4,0x1c00288a
1c0022d8:	004740fb          	lp.setup	x1,a4,0x1c0022e0
1c0022dc:	0046a50b          	p.lw	a0,4(a3!) # 0x400004
1c0022e0:	00a7a22b          	p.sw	a0,4(a5!)
1c0022e4:	c20337b3          	p.bclr	a5,t1,1,0
1c0022e8:	98be                	add	a7,a7,a5
1c0022ea:	06678a63          	beq	a5,t1,0x1c00235e
1c0022ee:	00c987b3          	add	a5,s3,a2
1c0022f2:	97c6                	add	a5,a5,a7
1c0022f4:	0007c703          	lbu	a4,0(a5)
1c0022f8:	00188793          	addi	a5,a7,1
1c0022fc:	00ea48a3          	p.sb	a4,a7(s4)
1c002300:	04b7df63          	ble	a1,a5,0x1c00235e
1c002304:	964e                	add	a2,a2,s3
1c002306:	00f60733          	add	a4,a2,a5
1c00230a:	00074683          	lbu	a3,0(a4)
1c00230e:	00178713          	addi	a4,a5,1
1c002312:	00da47a3          	p.sb	a3,a5(s4)
1c002316:	04b75463          	ble	a1,a4,0x1c00235e
1c00231a:	00e606b3          	add	a3,a2,a4
1c00231e:	0006c503          	lbu	a0,0(a3)
1c002322:	00278693          	addi	a3,a5,2
1c002326:	00aa4723          	p.sb	a0,a4(s4)
1c00232a:	02b6da63          	ble	a1,a3,0x1c00235e
1c00232e:	00d60733          	add	a4,a2,a3
1c002332:	00074503          	lbu	a0,0(a4)
1c002336:	00378713          	addi	a4,a5,3
1c00233a:	00aa46a3          	p.sb	a0,a3(s4)
1c00233e:	02b75063          	ble	a1,a4,0x1c00235e
1c002342:	00e606b3          	add	a3,a2,a4
1c002346:	0006c683          	lbu	a3,0(a3)
1c00234a:	0791                	addi	a5,a5,4
1c00234c:	00da4723          	p.sb	a3,a4(s4)
1c002350:	00b7d763          	ble	a1,a5,0x1c00235e
1c002354:	963e                	add	a2,a2,a5
1c002356:	00064703          	lbu	a4,0(a2)
1c00235a:	00ea47a3          	p.sb	a4,a5(s4)
1c00235e:	0ff00793          	li	a5,255
1c002362:	0507c663          	blt	a5,a6,0x1c0023ae
1c002366:	8552                	mv	a0,s4
1c002368:	10000593          	li	a1,256
1c00236c:	782040ef          	jal	ra,0x1c006aee
1c002370:	1c00a537          	lui	a0,0x1c00a
1c002374:	85a2                	mv	a1,s0
1c002376:	c4050513          	addi	a0,a0,-960 # 0x1c009c40
1c00237a:	7dc060ef          	jal	ra,0x1c008b56
1c00237e:	1c00a537          	lui	a0,0x1c00a
1c002382:	85a2                	mv	a1,s0
1c002384:	d5850513          	addi	a0,a0,-680 # 0x1c009d58
1c002388:	7ce060ef          	jal	ra,0x1c008b56
1c00238c:	4b01                	li	s6,0
1c00238e:	40b6                	lw	ra,76(sp)
1c002390:	4426                	lw	s0,72(sp)
1c002392:	855a                	mv	a0,s6
1c002394:	4496                	lw	s1,68(sp)
1c002396:	4906                	lw	s2,64(sp)
1c002398:	59f2                	lw	s3,60(sp)
1c00239a:	5a62                	lw	s4,56(sp)
1c00239c:	5ad2                	lw	s5,52(sp)
1c00239e:	5b42                	lw	s6,48(sp)
1c0023a0:	5bb2                	lw	s7,44(sp)
1c0023a2:	5c22                	lw	s8,40(sp)
1c0023a4:	5c92                	lw	s9,36(sp)
1c0023a6:	5d02                	lw	s10,32(sp)
1c0023a8:	4df2                	lw	s11,28(sp)
1c0023aa:	6161                	addi	sp,sp,80
1c0023ac:	8082                	ret
1c0023ae:	000a4703          	lbu	a4,0(s4)
1c0023b2:	05000793          	li	a5,80
1c0023b6:	1cf70f63          	beq	a4,a5,0x1c002594
1c0023ba:	00092683          	lw	a3,0(s2)
1c0023be:	4090                	lw	a2,0(s1)
1c0023c0:	4781                	li	a5,0
1c0023c2:	1c00a737          	lui	a4,0x1c00a
1c0023c6:	1c00a537          	lui	a0,0x1c00a
1c0023ca:	c2070713          	addi	a4,a4,-992 # 0x1c009c20
1c0023ce:	85a2                	mv	a1,s0
1c0023d0:	c6850513          	addi	a0,a0,-920 # 0x1c009c68
1c0023d4:	782060ef          	jal	ra,0x1c008b56
1c0023d8:	4529                	li	a0,10
1c0023da:	664060ef          	jal	ra,0x1c008a3e
1c0023de:	10000593          	li	a1,256
1c0023e2:	8552                	mv	a0,s4
1c0023e4:	70a040ef          	jal	ra,0x1c006aee
1c0023e8:	4a81                	li	s5,0
1c0023ea:	0004aa03          	lw	s4,0(s1)
1c0023ee:	00092703          	lw	a4,0(s2)
1c0023f2:	02ea0a33          	mul	s4,s4,a4
1c0023f6:	160b0a63          	beqz	s6,0x1c00256a
1c0023fa:	174be863          	bltu	s7,s4,0x1c00256a
1c0023fe:	4b81                	li	s7,0
1c002400:	015c2023          	sw	s5,0(s8)
1c002404:	120a0c63          	beqz	s4,0x1c00253c
1c002408:	01598fb3          	add	t6,s3,s5
1c00240c:	41f00eb3          	neg	t4,t6
1c002410:	fa2ebeb3          	p.bclr	t4,t4,29,2
1c002414:	004a8713          	addi	a4,s5,4
1c002418:	31d00693          	li	a3,797
1c00241c:	415686b3          	sub	a3,a3,s5
1c002420:	8e52                	mv	t3,s4
1c002422:	885a                	mv	a6,s6
1c002424:	4601                	li	a2,0
1c002426:	6285                	lui	t0,0x1
1c002428:	974e                	add	a4,a4,s3
1c00242a:	01da83b3          	add	t2,s5,t4
1c00242e:	8f7e                	mv	t5,t6
1c002430:	045e5333          	p.minu	t1,t3,t0
1c002434:	04d348b3          	p.min	a7,t1,a3
1c002438:	0f105863          	blez	a7,0x1c002528
1c00243c:	00480793          	addi	a5,a6,4
1c002440:	05f7b533          	p.sletu	a0,a5,t6
1c002444:	050735b3          	p.sletu	a1,a4,a6
1c002448:	87aa                	mv	a5,a0
1c00244a:	8fcd                	or	a5,a5,a1
1c00244c:	0ff7f793          	andi	a5,a5,255
1c002450:	10078263          	beqz	a5,0x1c002554
1c002454:	0088b793          	sltiu	a5,a7,8
1c002458:	0017c793          	xori	a5,a5,1
1c00245c:	0ff7f793          	andi	a5,a5,255
1c002460:	cbf5                	beqz	a5,0x1c002554
1c002462:	4c81                	li	s9,0
1c002464:	020e8563          	beqz	t4,0x1c00248e
1c002468:	000f4783          	lbu	a5,0(t5)
1c00246c:	4c85                	li	s9,1
1c00246e:	00f80023          	sb	a5,0(a6)
1c002472:	001eae63          	p.beqimm	t4,1,0x1c00248e
1c002476:	001f4783          	lbu	a5,1(t5)
1c00247a:	4c89                	li	s9,2
1c00247c:	00f800a3          	sb	a5,1(a6)
1c002480:	003eb763          	p.bneimm	t4,3,0x1c00248e
1c002484:	002f4783          	lbu	a5,2(t5)
1c002488:	4c8d                	li	s9,3
1c00248a:	00f80123          	sb	a5,2(a6)
1c00248e:	41d88c33          	sub	s8,a7,t4
1c002492:	002c5793          	srli	a5,s8,0x2
1c002496:	01d80533          	add	a0,a6,t4
1c00249a:	007985b3          	add	a1,s3,t2
1c00249e:	3c078f63          	beqz	a5,0x1c00287c
1c0024a2:	0047c0fb          	lp.setup	x1,a5,0x1c0024aa
1c0024a6:	0045a08b          	p.lw	ra,4(a1!)
1c0024aa:	0015222b          	p.sw	ra,4(a0!)
1c0024ae:	c20c35b3          	p.bclr	a1,s8,1,0
1c0024b2:	019587b3          	add	a5,a1,s9
1c0024b6:	07858963          	beq	a1,s8,0x1c002528
1c0024ba:	00ff05b3          	add	a1,t5,a5
1c0024be:	0005c503          	lbu	a0,0(a1)
1c0024c2:	00178593          	addi	a1,a5,1
1c0024c6:	00a847a3          	p.sb	a0,a5(a6)
1c0024ca:	0515df63          	ble	a7,a1,0x1c002528
1c0024ce:	00bf0533          	add	a0,t5,a1
1c0024d2:	00054083          	lbu	ra,0(a0)
1c0024d6:	00278513          	addi	a0,a5,2
1c0024da:	001845a3          	p.sb	ra,a1(a6)
1c0024de:	05155563          	ble	a7,a0,0x1c002528
1c0024e2:	00af05b3          	add	a1,t5,a0
1c0024e6:	0005c083          	lbu	ra,0(a1)
1c0024ea:	00378593          	addi	a1,a5,3
1c0024ee:	00184523          	p.sb	ra,a0(a6)
1c0024f2:	0315db63          	ble	a7,a1,0x1c002528
1c0024f6:	00bf0533          	add	a0,t5,a1
1c0024fa:	00054083          	lbu	ra,0(a0)
1c0024fe:	00478513          	addi	a0,a5,4
1c002502:	001845a3          	p.sb	ra,a1(a6)
1c002506:	03155163          	ble	a7,a0,0x1c002528
1c00250a:	00af05b3          	add	a1,t5,a0
1c00250e:	0005c583          	lbu	a1,0(a1)
1c002512:	0795                	addi	a5,a5,5
1c002514:	00b84523          	p.sb	a1,a0(a6)
1c002518:	0117d863          	ble	a7,a5,0x1c002528
1c00251c:	00ff05b3          	add	a1,t5,a5
1c002520:	0005c583          	lbu	a1,0(a1)
1c002524:	00b847a3          	p.sb	a1,a5(a6)
1c002528:	9646                	add	a2,a2,a7
1c00252a:	01131763          	bne	t1,a7,0x1c002538
1c00252e:	406e0e33          	sub	t3,t3,t1
1c002532:	981a                	add	a6,a6,t1
1c002534:	ee0e1ee3          	bnez	t3,0x1c002430
1c002538:	2d461a63          	bne	a2,s4,0x1c00280c
1c00253c:	00092683          	lw	a3,0(s2)
1c002540:	4090                	lw	a2,0(s1)
1c002542:	1c00a537          	lui	a0,0x1c00a
1c002546:	8752                	mv	a4,s4
1c002548:	85a2                	mv	a1,s0
1c00254a:	d1450513          	addi	a0,a0,-748 # 0x1c009d14
1c00254e:	608060ef          	jal	ra,0x1c008b56
1c002552:	bd35                	j	0x1c00238e
1c002554:	01598533          	add	a0,s3,s5
1c002558:	85c2                	mv	a1,a6
1c00255a:	87c6                	mv	a5,a7
1c00255c:	0047c0fb          	lp.setup	x1,a5,0x1c002564
1c002560:	0015408b          	p.lbu	ra,1(a0!)
1c002564:	001580ab          	p.sb	ra,1(a1!)
1c002568:	b7c1                	j	0x1c002528
1c00256a:	fa2a37b3          	p.bclr	a5,s4,29,2
1c00256e:	c781                	beqz	a5,0x1c002576
1c002570:	c20a3a33          	p.bclr	s4,s4,1,0
1c002574:	0a11                	addi	s4,s4,4
1c002576:	8552                	mv	a0,s4
1c002578:	568040ef          	jal	ra,0x1c006ae0
1c00257c:	8b2a                	mv	s6,a0
1c00257e:	4b85                	li	s7,1
1c002580:	e80510e3          	bnez	a0,0x1c002400
1c002584:	1c00a537          	lui	a0,0x1c00a
1c002588:	85d2                	mv	a1,s4
1c00258a:	cc050513          	addi	a0,a0,-832 # 0x1c009cc0
1c00258e:	5c8060ef          	jal	ra,0x1c008b56
1c002592:	b3f5                	j	0x1c00237e
1c002594:	001a4783          	lbu	a5,1(s4)
1c002598:	03500713          	li	a4,53
1c00259c:	28e78e63          	beq	a5,a4,0x1c002838
1c0025a0:	03600713          	li	a4,54
1c0025a4:	e0e79be3          	bne	a5,a4,0x1c0023ba
1c0025a8:	002a4783          	lbu	a5,2(s4)
1c0025ac:	e0a7b7e3          	p.bneimm	a5,10,0x1c0023ba
1c0025b0:	4785                	li	a5,1
1c0025b2:	c63e                	sw	a5,12(sp)
1c0025b4:	003a4503          	lbu	a0,3(s4)
1c0025b8:	02300713          	li	a4,35
1c0025bc:	4d0d                	li	s10,3
1c0025be:	02300a93          	li	s5,35
1c0025c2:	02e51463          	bne	a0,a4,0x1c0025ea
1c0025c6:	001d0c93          	addi	s9,s10,1
1c0025ca:	019a0db3          	add	s11,s4,s9
1c0025ce:	470060ef          	jal	ra,0x1c008a3e
1c0025d2:	001dc50b          	p.lbu	a0,1(s11!)
1c0025d6:	0c85                	addi	s9,s9,1
1c0025d8:	fea53be3          	p.bneimm	a0,10,0x1c0025ce
1c0025dc:	019a0733          	add	a4,s4,s9
1c0025e0:	00074503          	lbu	a0,0(a4)
1c0025e4:	8d66                	mv	s10,s9
1c0025e6:	ff5500e3          	beq	a0,s5,0x1c0025c6
1c0025ea:	fd050713          	addi	a4,a0,-48
1c0025ee:	0ff77713          	andi	a4,a4,255
1c0025f2:	46a5                	li	a3,9
1c0025f4:	02e6f163          	bleu	a4,a3,0x1c002616
1c0025f8:	001d0c93          	addi	s9,s10,1
1c0025fc:	019a06b3          	add	a3,s4,s9
1c002600:	4625                	li	a2,9
1c002602:	0016c50b          	p.lbu	a0,1(a3!)
1c002606:	8d66                	mv	s10,s9
1c002608:	0c85                	addi	s9,s9,1
1c00260a:	fd050713          	addi	a4,a0,-48
1c00260e:	0ff77713          	andi	a4,a4,255
1c002612:	fee668e3          	bltu	a2,a4,0x1c002602
1c002616:	001d0c93          	addi	s9,s10,1
1c00261a:	019a0633          	add	a2,s4,s9
1c00261e:	4681                	li	a3,0
1c002620:	45a5                	li	a1,9
1c002622:	00269713          	slli	a4,a3,0x2
1c002626:	9736                	add	a4,a4,a3
1c002628:	0706                	slli	a4,a4,0x1
1c00262a:	972a                	add	a4,a4,a0
1c00262c:	8832                	mv	a6,a2
1c00262e:	0016450b          	p.lbu	a0,1(a2!)
1c002632:	fd070693          	addi	a3,a4,-48
1c002636:	8d66                	mv	s10,s9
1c002638:	fd050713          	addi	a4,a0,-48
1c00263c:	0ff77713          	andi	a4,a4,255
1c002640:	0c85                	addi	s9,s9,1
1c002642:	fee5f0e3          	bleu	a4,a1,0x1c002622
1c002646:	c094                	sw	a3,0(s1)
1c002648:	00084a83          	lbu	s5,0(a6)
1c00264c:	02300713          	li	a4,35
1c002650:	22ea9463          	bne	s5,a4,0x1c002878
1c002654:	001d0c93          	addi	s9,s10,1
1c002658:	019a0db3          	add	s11,s4,s9
1c00265c:	8556                	mv	a0,s5
1c00265e:	a019                	j	0x1c002664
1c002660:	8d66                	mv	s10,s9
1c002662:	0c85                	addi	s9,s9,1
1c002664:	3da060ef          	jal	ra,0x1c008a3e
1c002668:	001dc50b          	p.lbu	a0,1(s11!)
1c00266c:	fea53ae3          	p.bneimm	a0,10,0x1c002660
1c002670:	0d09                	addi	s10,s10,2
1c002672:	01aa0733          	add	a4,s4,s10
1c002676:	00074603          	lbu	a2,0(a4)
1c00267a:	02300693          	li	a3,35
1c00267e:	fcd60be3          	beq	a2,a3,0x1c002654
1c002682:	fd060713          	addi	a4,a2,-48
1c002686:	0ff77713          	andi	a4,a4,255
1c00268a:	46a5                	li	a3,9
1c00268c:	02e6f163          	bleu	a4,a3,0x1c0026ae
1c002690:	001d0c93          	addi	s9,s10,1
1c002694:	019a06b3          	add	a3,s4,s9
1c002698:	45a5                	li	a1,9
1c00269a:	0016c60b          	p.lbu	a2,1(a3!)
1c00269e:	8d66                	mv	s10,s9
1c0026a0:	0c85                	addi	s9,s9,1
1c0026a2:	fd060713          	addi	a4,a2,-48
1c0026a6:	0ff77713          	andi	a4,a4,255
1c0026aa:	fee5e8e3          	bltu	a1,a4,0x1c00269a
1c0026ae:	001d0c93          	addi	s9,s10,1
1c0026b2:	019a05b3          	add	a1,s4,s9
1c0026b6:	4681                	li	a3,0
1c0026b8:	4525                	li	a0,9
1c0026ba:	00269713          	slli	a4,a3,0x2
1c0026be:	9736                	add	a4,a4,a3
1c0026c0:	0706                	slli	a4,a4,0x1
1c0026c2:	9732                	add	a4,a4,a2
1c0026c4:	882e                	mv	a6,a1
1c0026c6:	0015c60b          	p.lbu	a2,1(a1!)
1c0026ca:	fd070693          	addi	a3,a4,-48
1c0026ce:	8d66                	mv	s10,s9
1c0026d0:	fd060713          	addi	a4,a2,-48
1c0026d4:	0ff77713          	andi	a4,a4,255
1c0026d8:	0c85                	addi	s9,s9,1
1c0026da:	fee570e3          	bleu	a4,a0,0x1c0026ba
1c0026de:	00d92023          	sw	a3,0(s2)
1c0026e2:	00084a83          	lbu	s5,0(a6)
1c0026e6:	02300713          	li	a4,35
1c0026ea:	18ea9563          	bne	s5,a4,0x1c002874
1c0026ee:	001d0c93          	addi	s9,s10,1
1c0026f2:	019a0db3          	add	s11,s4,s9
1c0026f6:	8556                	mv	a0,s5
1c0026f8:	a019                	j	0x1c0026fe
1c0026fa:	8d66                	mv	s10,s9
1c0026fc:	0c85                	addi	s9,s9,1
1c0026fe:	340060ef          	jal	ra,0x1c008a3e
1c002702:	001dc50b          	p.lbu	a0,1(s11!)
1c002706:	fea53ae3          	p.bneimm	a0,10,0x1c0026fa
1c00270a:	0d09                	addi	s10,s10,2
1c00270c:	01aa0733          	add	a4,s4,s10
1c002710:	00074703          	lbu	a4,0(a4)
1c002714:	02300793          	li	a5,35
1c002718:	fcf70be3          	beq	a4,a5,0x1c0026ee
1c00271c:	00092683          	lw	a3,0(s2)
1c002720:	fd070613          	addi	a2,a4,-48
1c002724:	0ff67613          	andi	a2,a2,255
1c002728:	45a5                	li	a1,9
1c00272a:	02c5f163          	bleu	a2,a1,0x1c00274c
1c00272e:	001d0c93          	addi	s9,s10,1
1c002732:	019a05b3          	add	a1,s4,s9
1c002736:	4525                	li	a0,9
1c002738:	0015c70b          	p.lbu	a4,1(a1!)
1c00273c:	8d66                	mv	s10,s9
1c00273e:	0c85                	addi	s9,s9,1
1c002740:	fd070613          	addi	a2,a4,-48
1c002744:	0ff67613          	andi	a2,a2,255
1c002748:	fec568e3          	bltu	a0,a2,0x1c002738
1c00274c:	001d0c93          	addi	s9,s10,1
1c002750:	019a0533          	add	a0,s4,s9
1c002754:	4581                	li	a1,0
1c002756:	4825                	li	a6,9
1c002758:	a019                	j	0x1c00275e
1c00275a:	8d66                	mv	s10,s9
1c00275c:	0c85                	addi	s9,s9,1
1c00275e:	00259613          	slli	a2,a1,0x2
1c002762:	962e                	add	a2,a2,a1
1c002764:	0606                	slli	a2,a2,0x1
1c002766:	963a                	add	a2,a2,a4
1c002768:	0015470b          	p.lbu	a4,1(a0!)
1c00276c:	fd060593          	addi	a1,a2,-48
1c002770:	8ae6                	mv	s5,s9
1c002772:	fd070613          	addi	a2,a4,-48
1c002776:	0ff67613          	andi	a2,a2,255
1c00277a:	fec870e3          	bleu	a2,a6,0x1c00275a
1c00277e:	0ff00513          	li	a0,255
1c002782:	4090                	lw	a2,0(s1)
1c002784:	0ca59063          	bne	a1,a0,0x1c002844
1c002788:	00a72a63          	p.beqimm	a4,10,0x1c00279c
1c00278c:	002d0793          	addi	a5,s10,2
1c002790:	97d2                	add	a5,a5,s4
1c002792:	0017c70b          	p.lbu	a4,1(a5!)
1c002796:	0a85                	addi	s5,s5,1
1c002798:	fea73de3          	p.bneimm	a4,10,0x1c002792
1c00279c:	47b2                	lw	a5,12(sp)
1c00279e:	0a85                	addi	s5,s5,1
1c0027a0:	0e078063          	beqz	a5,0x1c002880
1c0027a4:	1c00a737          	lui	a4,0x1c00a
1c0027a8:	c1870713          	addi	a4,a4,-1000 # 0x1c009c18
1c0027ac:	1c00a537          	lui	a0,0x1c00a
1c0027b0:	87d6                	mv	a5,s5
1c0027b2:	85a2                	mv	a1,s0
1c0027b4:	c6850513          	addi	a0,a0,-920 # 0x1c009c68
1c0027b8:	39e060ef          	jal	ra,0x1c008b56
1c0027bc:	000a8b63          	beqz	s5,0x1c0027d2
1c0027c0:	8cd2                	mv	s9,s4
1c0027c2:	015a0db3          	add	s11,s4,s5
1c0027c6:	001cc50b          	p.lbu	a0,1(s9!)
1c0027ca:	274060ef          	jal	ra,0x1c008a3e
1c0027ce:	ff9d9ce3          	bne	s11,s9,0x1c0027c6
1c0027d2:	4529                	li	a0,10
1c0027d4:	26a060ef          	jal	ra,0x1c008a3e
1c0027d8:	10000593          	li	a1,256
1c0027dc:	8552                	mv	a0,s4
1c0027de:	310040ef          	jal	ra,0x1c006aee
1c0027e2:	46b2                	lw	a3,12(sp)
1c0027e4:	c00683e3          	beqz	a3,0x1c0023ea
1c0027e8:	1c00a537          	lui	a0,0x1c00a
1c0027ec:	c9850513          	addi	a0,a0,-872 # 0x1c009c98
1c0027f0:	1d8060ef          	jal	ra,0x1c0089c8
1c0027f4:	b669                	j	0x1c00237e
1c0027f6:	4685                	li	a3,1
1c0027f8:	8752                	mv	a4,s4
1c0027fa:	04d5e5b3          	p.max	a1,a1,a3
1c0027fe:	0045c0fb          	lp.setup	x1,a1,0x1c002806
1c002802:	0017c68b          	p.lbu	a3,1(a5!)
1c002806:	00d700ab          	p.sb	a3,1(a4!)
1c00280a:	be91                	j	0x1c00235e
1c00280c:	1c00a537          	lui	a0,0x1c00a
1c002810:	85d2                	mv	a1,s4
1c002812:	cf050513          	addi	a0,a0,-784 # 0x1c009cf0
1c002816:	340060ef          	jal	ra,0x1c008b56
1c00281a:	b60b82e3          	beqz	s7,0x1c00237e
1c00281e:	85d2                	mv	a1,s4
1c002820:	855a                	mv	a0,s6
1c002822:	2cc040ef          	jal	ra,0x1c006aee
1c002826:	bea1                	j	0x1c00237e
1c002828:	00c987b3          	add	a5,s3,a2
1c00282c:	0007c703          	lbu	a4,0(a5)
1c002830:	4785                	li	a5,1
1c002832:	00ea0023          	sb	a4,0(s4)
1c002836:	b4f9                	j	0x1c002304
1c002838:	002a4783          	lbu	a5,2(s4)
1c00283c:	b6a7bfe3          	p.bneimm	a5,10,0x1c0023ba
1c002840:	c602                	sw	zero,12(sp)
1c002842:	bb8d                	j	0x1c0025b4
1c002844:	47b2                	lw	a5,12(sp)
1c002846:	b6078ee3          	beqz	a5,0x1c0023c2
1c00284a:	1c00a737          	lui	a4,0x1c00a
1c00284e:	1c00a537          	lui	a0,0x1c00a
1c002852:	85a2                	mv	a1,s0
1c002854:	4781                	li	a5,0
1c002856:	c1870713          	addi	a4,a4,-1000 # 0x1c009c18
1c00285a:	c6850513          	addi	a0,a0,-920 # 0x1c009c68
1c00285e:	2f8060ef          	jal	ra,0x1c008b56
1c002862:	4529                	li	a0,10
1c002864:	1da060ef          	jal	ra,0x1c008a3e
1c002868:	10000593          	li	a1,256
1c00286c:	8552                	mv	a0,s4
1c00286e:	280040ef          	jal	ra,0x1c006aee
1c002872:	bf9d                	j	0x1c0027e8
1c002874:	8756                	mv	a4,s5
1c002876:	b56d                	j	0x1c002720
1c002878:	8656                	mv	a2,s5
1c00287a:	b521                	j	0x1c002682
1c00287c:	4785                	li	a5,1
1c00287e:	b115                	j	0x1c0024a2
1c002880:	1c00a737          	lui	a4,0x1c00a
1c002884:	c2070713          	addi	a4,a4,-992 # 0x1c009c20
1c002888:	b715                	j	0x1c0027ac
1c00288a:	4705                	li	a4,1
1c00288c:	b4b1                	j	0x1c0022d8
1c00288e:	7135                	addi	sp,sp,-160
1c002890:	1c00a3b7          	lui	t2,0x1c00a
1c002894:	02f103a3          	sb	a5,39(sp)
1c002898:	00e067d7          	pv.add.sci.h	a5,zero,28
1c00289c:	cd22                	sw	s0,152(sp)
1c00289e:	ccbe                	sw	a5,88(sp)
1c0028a0:	10000437          	lui	s0,0x10000
1c0028a4:	d983a783          	lw	a5,-616(t2) # 0x1c009d98
1c0028a8:	01c40413          	addi	s0,s0,28 # 0x1000001c
1c0028ac:	00042883          	lw	a7,0(s0)
1c0028b0:	d0be                	sw	a5,96(sp)
1c0028b2:	6809                	lui	a6,0x2
1c0028b4:	000077d7          	pv.add.sci.b	a5,zero,0
1c0028b8:	dabe                	sw	a5,116(sp)
1c0028ba:	c0be                	sw	a5,64(sp)
1c0028bc:	85080813          	addi	a6,a6,-1968 # 0x1850
1c0028c0:	10100793          	li	a5,257
1c0028c4:	9846                	add	a6,a6,a7
1c0028c6:	00c06357          	pv.add.sci.h	t1,zero,24
1c0028ca:	02000e93          	li	t4,32
1c0028ce:	0ff77713          	andi	a4,a4,255
1c0028d2:	4f05                	li	t5,1
1c0028d4:	31088e13          	addi	t3,a7,784
1c0028d8:	33088293          	addi	t0,a7,816
1c0028dc:	65088f93          	addi	t6,a7,1616
1c0028e0:	04f11323          	sh	a5,70(sp)
1c0028e4:	07f00793          	li	a5,127
1c0028e8:	cf06                	sw	ra,156(sp)
1c0028ea:	cb26                	sw	s1,148(sp)
1c0028ec:	c94a                	sw	s2,144(sp)
1c0028ee:	c74e                	sw	s3,140(sp)
1c0028f0:	ce42                	sw	a6,28(sp)
1c0028f2:	d01a                	sw	t1,32(sp)
1c0028f4:	03d11223          	sh	t4,36(sp)
1c0028f8:	d472                	sw	t3,40(sp)
1c0028fa:	02e10323          	sb	a4,38(sp)
1c0028fe:	cac6                	sw	a7,84(sp)
1c002900:	d496                	sw	t0,104(sp)
1c002902:	d6c2                	sw	a6,108(sp)
1c002904:	06e10c23          	sb	a4,120(sp)
1c002908:	07e11223          	sh	t5,100(sp)
1c00290c:	07e10da3          	sb	t5,123(sp)
1c002910:	d642                	sw	a6,44(sp)
1c002912:	d81a                	sw	t1,48(sp)
1c002914:	da1a                	sw	t1,52(sp)
1c002916:	03d11c23          	sh	t4,56(sp)
1c00291a:	de7e                	sw	t6,60(sp)
1c00291c:	c682                	sw	zero,76(sp)
1c00291e:	c8be                	sw	a5,80(sp)
1c002920:	30047373          	csrrci	t1,mstatus,8
1c002924:	002047b7          	lui	a5,0x204
1c002928:	4007a803          	lw	a6,1024(a5) # 0x204400
1c00292c:	000b0737          	lui	a4,0xb0
1c002930:	4885                	li	a7,1
1c002932:	02070713          	addi	a4,a4,32 # 0xb0020
1c002936:	c1574733          	p.bset	a4,a4,0,21
1c00293a:	40e7a023          	sw	a4,1024(a5)
1c00293e:	41c7a023          	sw	t3,1024(a5)
1c002942:	40c7a023          	sw	a2,1024(a5)
1c002946:	30031073          	csrw	mstatus,t1
1c00294a:	30047673          	csrrci	a2,mstatus,8
1c00294e:	4047a783          	lw	a5,1028(a5)
1c002952:	4107d7b3          	sra	a5,a5,a6
1c002956:	fc17b7b3          	p.bclr	a5,a5,30,1
1c00295a:	010898b3          	sll	a7,a7,a6
1c00295e:	c785                	beqz	a5,0x1c002986
1c002960:	10000813          	li	a6,256
1c002964:	002047b7          	lui	a5,0x204
1c002968:	30061073          	csrw	mstatus,a2
1c00296c:	0107a423          	sw	a6,8(a5) # 0x204008
1c002970:	03c7e703          	p.elw	a4,60(a5)
1c002974:	0107a223          	sw	a6,4(a5)
1c002978:	30047673          	csrrci	a2,mstatus,8
1c00297c:	4047a703          	lw	a4,1028(a5)
1c002980:	01177733          	and	a4,a4,a7
1c002984:	f375                	bnez	a4,0x1c002968
1c002986:	002047b7          	lui	a5,0x204
1c00298a:	4117a223          	sw	a7,1028(a5) # 0x204404
1c00298e:	30061073          	csrw	mstatus,a2
1c002992:	4010                	lw	a2,0(s0)
1c002994:	33060613          	addi	a2,a2,816
1c002998:	30047373          	csrrci	t1,mstatus,8
1c00299c:	4007a883          	lw	a7,1024(a5)
1c0029a0:	000b0737          	lui	a4,0xb0
1c0029a4:	4805                	li	a6,1
1c0029a6:	32070713          	addi	a4,a4,800 # 0xb0320
1c0029aa:	c1574733          	p.bset	a4,a4,0,21
1c0029ae:	40e7a023          	sw	a4,1024(a5)
1c0029b2:	40c7a023          	sw	a2,1024(a5)
1c0029b6:	40b7a023          	sw	a1,1024(a5)
1c0029ba:	30031073          	csrw	mstatus,t1
1c0029be:	30047673          	csrrci	a2,mstatus,8
1c0029c2:	4047a783          	lw	a5,1028(a5)
1c0029c6:	4117d7b3          	sra	a5,a5,a7
1c0029ca:	fc17b7b3          	p.bclr	a5,a5,30,1
1c0029ce:	01181833          	sll	a6,a6,a7
1c0029d2:	c395                	beqz	a5,0x1c0029f6
1c0029d4:	10000593          	li	a1,256
1c0029d8:	002047b7          	lui	a5,0x204
1c0029dc:	30061073          	csrw	mstatus,a2
1c0029e0:	c78c                	sw	a1,8(a5)
1c0029e2:	03c7e703          	p.elw	a4,60(a5) # 0x20403c
1c0029e6:	c3cc                	sw	a1,4(a5)
1c0029e8:	30047673          	csrrci	a2,mstatus,8
1c0029ec:	4047a703          	lw	a4,1028(a5)
1c0029f0:	01077733          	and	a4,a4,a6
1c0029f4:	f765                	bnez	a4,0x1c0029dc
1c0029f6:	002047b7          	lui	a5,0x204
1c0029fa:	4107a223          	sw	a6,1028(a5) # 0x204404
1c0029fe:	30061073          	csrw	mstatus,a2
1c002a02:	00042883          	lw	a7,0(s0)
1c002a06:	30047873          	csrrci	a6,mstatus,8
1c002a0a:	4007a583          	lw	a1,1024(a5)
1c002a0e:	000b0637          	lui	a2,0xb0
1c002a12:	4705                	li	a4,1
1c002a14:	31060613          	addi	a2,a2,784 # 0xb0310
1c002a18:	c1564633          	p.bset	a2,a2,0,21
1c002a1c:	40c7a023          	sw	a2,1024(a5)
1c002a20:	4117a023          	sw	a7,1024(a5)
1c002a24:	40a7a023          	sw	a0,1024(a5)
1c002a28:	30081073          	csrw	mstatus,a6
1c002a2c:	30047673          	csrrci	a2,mstatus,8
1c002a30:	4047a783          	lw	a5,1028(a5)
1c002a34:	40b7d7b3          	sra	a5,a5,a1
1c002a38:	fc17b7b3          	p.bclr	a5,a5,30,1
1c002a3c:	00b71533          	sll	a0,a4,a1
1c002a40:	c38d                	beqz	a5,0x1c002a62
1c002a42:	10000593          	li	a1,256
1c002a46:	002047b7          	lui	a5,0x204
1c002a4a:	30061073          	csrw	mstatus,a2
1c002a4e:	c78c                	sw	a1,8(a5)
1c002a50:	03c7e703          	p.elw	a4,60(a5) # 0x20403c
1c002a54:	c3cc                	sw	a1,4(a5)
1c002a56:	30047673          	csrrci	a2,mstatus,8
1c002a5a:	4047a703          	lw	a4,1028(a5)
1c002a5e:	8f69                	and	a4,a4,a0
1c002a60:	f76d                	bnez	a4,0x1c002a4a
1c002a62:	002044b7          	lui	s1,0x204
1c002a66:	40a4a223          	sw	a0,1028(s1) # 0x204404
1c002a6a:	30061073          	csrw	mstatus,a2
1c002a6e:	0ff00993          	li	s3,255
1c002a72:	0934a223          	sw	s3,132(s1)
1c002a76:	20048913          	addi	s2,s1,512
1c002a7a:	01392023          	sw	s3,0(s2)
1c002a7e:	01392623          	sw	s3,12(s2)
1c002a82:	1c0047b7          	lui	a5,0x1c004
1c002a86:	89678793          	addi	a5,a5,-1898 # 0x1c003896
1c002a8a:	08f4a023          	sw	a5,128(s1)
1c002a8e:	0868                	addi	a0,sp,28
1c002a90:	08a4a023          	sw	a0,128(s1)
1c002a94:	c636                	sw	a3,12(sp)
1c002a96:	601000ef          	jal	ra,0x1c003896
1c002a9a:	01c96783          	p.elw	a5,28(s2)
1c002a9e:	00e067d7          	pv.add.sci.h	a5,zero,28
1c002aa2:	cebe                	sw	a5,92(sp)
1c002aa4:	0934a223          	sw	s3,132(s1)
1c002aa8:	01392023          	sw	s3,0(s2)
1c002aac:	01392623          	sw	s3,12(s2)
1c002ab0:	1c0057b7          	lui	a5,0x1c005
1c002ab4:	94078793          	addi	a5,a5,-1728 # 0x1c004940
1c002ab8:	08f4a023          	sw	a5,128(s1)
1c002abc:	08c8                	addi	a0,sp,84
1c002abe:	08a4a023          	sw	a0,128(s1)
1c002ac2:	67f010ef          	jal	ra,0x1c004940
1c002ac6:	01c96783          	p.elw	a5,28(s2)
1c002aca:	0934a223          	sw	s3,132(s1)
1c002ace:	01392023          	sw	s3,0(s2)
1c002ad2:	01392623          	sw	s3,12(s2)
1c002ad6:	1c0067b7          	lui	a5,0x1c006
1c002ada:	af278793          	addi	a5,a5,-1294 # 0x1c005af2
1c002ade:	08f4a023          	sw	a5,128(s1)
1c002ae2:	1068                	addi	a0,sp,44
1c002ae4:	08a4a023          	sw	a0,128(s1)
1c002ae8:	00a030ef          	jal	ra,0x1c005af2
1c002aec:	01c96783          	p.elw	a5,28(s2)
1c002af0:	4018                	lw	a4,0(s0)
1c002af2:	65070713          	addi	a4,a4,1616
1c002af6:	30047573          	csrrci	a0,mstatus,8
1c002afa:	4004a603          	lw	a2,1024(s1)
1c002afe:	000217b7          	lui	a5,0x21
1c002b02:	20078793          	addi	a5,a5,512 # 0x21200
1c002b06:	4585                	li	a1,1
1c002b08:	c137c7b3          	p.bset	a5,a5,0,19
1c002b0c:	c157c7b3          	p.bset	a5,a5,0,21
1c002b10:	40f4a023          	sw	a5,1024(s1)
1c002b14:	40e4a023          	sw	a4,1024(s1)
1c002b18:	46b2                	lw	a3,12(sp)
1c002b1a:	40d4a023          	sw	a3,1024(s1)
1c002b1e:	30051073          	csrw	mstatus,a0
1c002b22:	300476f3          	csrrci	a3,mstatus,8
1c002b26:	4044a783          	lw	a5,1028(s1)
1c002b2a:	40c7d7b3          	sra	a5,a5,a2
1c002b2e:	fc17b7b3          	p.bclr	a5,a5,30,1
1c002b32:	00c595b3          	sll	a1,a1,a2
1c002b36:	c38d                	beqz	a5,0x1c002b58
1c002b38:	10000613          	li	a2,256
1c002b3c:	002047b7          	lui	a5,0x204
1c002b40:	30069073          	csrw	mstatus,a3
1c002b44:	c790                	sw	a2,8(a5)
1c002b46:	03c7e703          	p.elw	a4,60(a5) # 0x20403c
1c002b4a:	c3d0                	sw	a2,4(a5)
1c002b4c:	300476f3          	csrrci	a3,mstatus,8
1c002b50:	4047a703          	lw	a4,1028(a5)
1c002b54:	8f6d                	and	a4,a4,a1
1c002b56:	f76d                	bnez	a4,0x1c002b40
1c002b58:	002047b7          	lui	a5,0x204
1c002b5c:	40b7a223          	sw	a1,1028(a5) # 0x204404
1c002b60:	30069073          	csrw	mstatus,a3
1c002b64:	40fa                	lw	ra,156(sp)
1c002b66:	446a                	lw	s0,152(sp)
1c002b68:	44da                	lw	s1,148(sp)
1c002b6a:	494a                	lw	s2,144(sp)
1c002b6c:	49ba                	lw	s3,140(sp)
1c002b6e:	610d                	addi	sp,sp,160
1c002b70:	8082                	ret
1c002b72:	714d                	addi	sp,sp,-336
1c002b74:	1c00afb7          	lui	t6,0x1c00a
1c002b78:	13612823          	sw	s6,304(sp)
1c002b7c:	00f10fa3          	sb	a5,31(sp)
1c002b80:	10000b37          	lui	s6,0x10000
1c002b84:	d9cfa783          	lw	a5,-612(t6) # 0x1c009d9c
1c002b88:	01cb0b13          	addi	s6,s6,28 # 0x1000001c
1c002b8c:	000b2883          	lw	a7,0(s6)
1c002b90:	c7be                	sw	a5,204(sp)
1c002b92:	681d                	lui	a6,0x7
1c002b94:	47a1                	li	a5,8
1c002b96:	0cf11823          	sh	a5,208(sp)
1c002b9a:	58080813          	addi	a6,a6,1408 # 0x7580
1c002b9e:	000077d7          	pv.add.sci.b	a5,zero,0
1c002ba2:	9846                	add	a6,a6,a7
1c002ba4:	00406357          	pv.add.sci.h	t1,zero,8
1c002ba8:	04000e13          	li	t3,64
1c002bac:	0ff77713          	andi	a4,a4,255
1c002bb0:	00606f57          	pv.add.sci.h	t5,zero,12
1c002bb4:	cfbe                	sw	a5,220(sp)
1c002bb6:	4785                	li	a5,1
1c002bb8:	13312e23          	sw	s3,316(sp)
1c002bbc:	13412c23          	sw	s4,312(sp)
1c002bc0:	0ef101a3          	sb	a5,227(sp)
1c002bc4:	14112623          	sw	ra,332(sp)
1c002bc8:	14812423          	sw	s0,328(sp)
1c002bcc:	14912223          	sw	s1,324(sp)
1c002bd0:	15212023          	sw	s2,320(sp)
1c002bd4:	13512a23          	sw	s5,308(sp)
1c002bd8:	13712623          	sw	s7,300(sp)
1c002bdc:	13812423          	sw	s8,296(sp)
1c002be0:	13912223          	sw	s9,292(sp)
1c002be4:	13a12023          	sw	s10,288(sp)
1c002be8:	11b12e23          	sw	s11,284(sp)
1c002bec:	c636                	sw	a3,12(sp)
1c002bee:	ca42                	sw	a6,20(sp)
1c002bf0:	cc1a                	sw	t1,24(sp)
1c002bf2:	01c11e23          	sh	t3,28(sp)
1c002bf6:	00e10f23          	sb	a4,30(sp)
1c002bfa:	c3fa                	sw	t5,196(sp)
1c002bfc:	c5fa                	sw	t5,200(sp)
1c002bfe:	cdc2                	sw	a6,216(sp)
1c002c00:	0ee10023          	sb	a4,224(sp)
1c002c04:	d242                	sw	a6,36(sp)
1c002c06:	d41a                	sw	t1,40(sp)
1c002c08:	d642                	sw	a6,44(sp)
1c002c0a:	000077d7          	pv.add.sci.b	a5,zero,0
1c002c0e:	02e10823          	sb	a4,48(sp)
1c002c12:	07f00e93          	li	t4,127
1c002c16:	dfbe                	sw	a5,252(sp)
1c002c18:	8a2a                	mv	s4,a0
1c002c1a:	10100793          	li	a5,257
1c002c1e:	89ae                	mv	s3,a1
1c002c20:	03c11923          	sh	t3,50(sp)
1c002c24:	da02                	sw	zero,52(sp)
1c002c26:	dc76                	sw	t4,56(sp)
1c002c28:	d5c2                	sw	a6,232(sp)
1c002c2a:	d79a                	sw	t1,236(sp)
1c002c2c:	d99a                	sw	t1,240(sp)
1c002c2e:	0fc11a23          	sh	t3,244(sp)
1c002c32:	10f11123          	sh	a5,258(sp)
1c002c36:	10012423          	sw	zero,264(sp)
1c002c3a:	11d12623          	sw	t4,268(sp)
1c002c3e:	300475f3          	csrrci	a1,mstatus,8
1c002c42:	002047b7          	lui	a5,0x204
1c002c46:	4007a503          	lw	a0,1024(a5) # 0x204400
1c002c4a:	00030737          	lui	a4,0x30
1c002c4e:	c06746b3          	p.bset	a3,a4,0,6
1c002c52:	c136c6b3          	p.bset	a3,a3,0,19
1c002c56:	c156c6b3          	p.bset	a3,a3,0,21
1c002c5a:	40d7a023          	sw	a3,1024(a5)
1c002c5e:	6685                	lui	a3,0x1
1c002c60:	90068813          	addi	a6,a3,-1792 # 0x900
1c002c64:	98c2                	add	a7,a7,a6
1c002c66:	4117a023          	sw	a7,1024(a5)
1c002c6a:	40c7a023          	sw	a2,1024(a5)
1c002c6e:	c0aa                	sw	a0,64(sp)
1c002c70:	30059073          	csrw	mstatus,a1
1c002c74:	000b2603          	lw	a2,0(s6)
1c002c78:	98068693          	addi	a3,a3,-1664
1c002c7c:	c882                	sw	zero,80(sp)
1c002c7e:	96b2                	add	a3,a3,a2
1c002c80:	300475f3          	csrrci	a1,mstatus,8
1c002c84:	4007a503          	lw	a0,1024(a5)
1c002c88:	660d                	lui	a2,0x3
1c002c8a:	20060613          	addi	a2,a2,512 # 0x3200
1c002c8e:	de062733          	p.insert	a4,a2,15,0
1c002c92:	c1374733          	p.bset	a4,a4,0,19
1c002c96:	c1574733          	p.bset	a4,a4,0,21
1c002c9a:	40e7a023          	sw	a4,1024(a5)
1c002c9e:	40d7a023          	sw	a3,1024(a5)
1c002ca2:	4137a023          	sw	s3,1024(a5)
1c002ca6:	d0aa                	sw	a0,96(sp)
1c002ca8:	30059073          	csrw	mstatus,a1
1c002cac:	000b2583          	lw	a1,0(s6)
1c002cb0:	d882                	sw	zero,112(sp)
1c002cb2:	300476f3          	csrrci	a3,mstatus,8
1c002cb6:	4007a603          	lw	a2,1024(a5)
1c002cba:	002f0737          	lui	a4,0x2f0
1c002cbe:	48070713          	addi	a4,a4,1152 # 0x2f0480
1c002cc2:	40e7a023          	sw	a4,1024(a5)
1c002cc6:	40b7a023          	sw	a1,1024(a5)
1c002cca:	4147a023          	sw	s4,1024(a5)
1c002cce:	00900737          	lui	a4,0x900
1c002cd2:	09070713          	addi	a4,a4,144 # 0x900090
1c002cd6:	40e7a023          	sw	a4,1024(a5)
1c002cda:	c132                	sw	a2,128(sp)
1c002cdc:	c902                	sw	zero,144(sp)
1c002cde:	30069073          	csrw	mstatus,a3
1c002ce2:	4746                	lw	a4,80(sp)
1c002ce4:	30070963          	beqz	a4,0x1c002ff6
1c002ce8:	46e6                	lw	a3,88(sp)
1c002cea:	02000713          	li	a4,32
1c002cee:	c699                	beqz	a3,0x1c002cfc
1c002cf0:	c798                	sw	a4,8(a5)
1c002cf2:	03c7e683          	p.elw	a3,60(a5)
1c002cf6:	c3d8                	sw	a4,4(a5)
1c002cf8:	46e6                	lw	a3,88(sp)
1c002cfa:	fafd                	bnez	a3,0x1c002cf0
1c002cfc:	000b2683          	lw	a3,0(s6)
1c002d00:	6485                	lui	s1,0x1
1c002d02:	90048793          	addi	a5,s1,-1792 # 0x900
1c002d06:	96be                	add	a3,a3,a5
1c002d08:	0ff00713          	li	a4,255
1c002d0c:	002047b7          	lui	a5,0x204
1c002d10:	d036                	sw	a3,32(sp)
1c002d12:	08e7a223          	sw	a4,132(a5) # 0x204084
1c002d16:	20078b93          	addi	s7,a5,512
1c002d1a:	00eba023          	sw	a4,0(s7)
1c002d1e:	00eba623          	sw	a4,12(s7)
1c002d22:	1c004737          	lui	a4,0x1c004
1c002d26:	b9470713          	addi	a4,a4,-1132 # 0x1c003b94
1c002d2a:	08e7a023          	sw	a4,128(a5)
1c002d2e:	0848                	addi	a0,sp,20
1c002d30:	08a7a023          	sw	a0,128(a5)
1c002d34:	661000ef          	jal	ra,0x1c003b94
1c002d38:	01cbe783          	p.elw	a5,28(s7)
1c002d3c:	1c005937          	lui	s2,0x1c005
1c002d40:	6c0d                	lui	s8,0x3
1c002d42:	29890913          	addi	s2,s2,664 # 0x1c005298
1c002d46:	0c010d93          	addi	s11,sp,192
1c002d4a:	4d01                	li	s10,0
1c002d4c:	4c81                	li	s9,0
1c002d4e:	4701                	li	a4,0
1c002d50:	200c0c13          	addi	s8,s8,512 # 0x3200
1c002d54:	00204437          	lui	s0,0x204
1c002d58:	98048493          	addi	s1,s1,-1664
1c002d5c:	32372d63          	p.beqimm	a4,3,0x1c003096
1c002d60:	9ce2                	add	s9,s9,s8
1c002d62:	480d0d13          	addi	s10,s10,1152
1c002d66:	88e2                	mv	a7,s8
1c002d68:	48000513          	li	a0,1152
1c002d6c:	57c6                	lw	a5,112(sp)
1c002d6e:	24078063          	beqz	a5,0x1c002fae
1c002d72:	56e6                	lw	a3,120(sp)
1c002d74:	02000793          	li	a5,32
1c002d78:	c699                	beqz	a3,0x1c002d86
1c002d7a:	c41c                	sw	a5,8(s0)
1c002d7c:	03c46683          	p.elw	a3,60(s0) # 0x20403c
1c002d80:	c05c                	sw	a5,4(s0)
1c002d82:	56e6                	lw	a3,120(sp)
1c002d84:	fafd                	bnez	a3,0x1c002d7a
1c002d86:	00170a93          	addi	s5,a4,1
1c002d8a:	02088e63          	beqz	a7,0x1c002dc6
1c002d8e:	fc1ab7b3          	p.bclr	a5,s5,30,1
1c002d92:	86a6                	mv	a3,s1
1c002d94:	438786b3          	p.mac	a3,a5,s8
1c002d98:	000b2783          	lw	a5,0(s6)
1c002d9c:	97b6                	add	a5,a5,a3
1c002d9e:	300476f3          	csrrci	a3,mstatus,8
1c002da2:	40042603          	lw	a2,1024(s0)
1c002da6:	002b05b7          	lui	a1,0x2b0
1c002daa:	00b8e8b3          	or	a7,a7,a1
1c002dae:	41142023          	sw	a7,1024(s0)
1c002db2:	40f42023          	sw	a5,1024(s0)
1c002db6:	019987b3          	add	a5,s3,s9
1c002dba:	40f42023          	sw	a5,1024(s0)
1c002dbe:	d0b2                	sw	a2,96(sp)
1c002dc0:	30069073          	csrw	mstatus,a3
1c002dc4:	d882                	sw	zero,112(sp)
1c002dc6:	47ca                	lw	a5,144(sp)
1c002dc8:	14078863          	beqz	a5,0x1c002f18
1c002dcc:	46ea                	lw	a3,152(sp)
1c002dce:	02000793          	li	a5,32
1c002dd2:	c699                	beqz	a3,0x1c002de0
1c002dd4:	c41c                	sw	a5,8(s0)
1c002dd6:	03c46683          	p.elw	a3,60(s0)
1c002dda:	c05c                	sw	a5,4(s0)
1c002ddc:	46ea                	lw	a3,152(sp)
1c002dde:	fafd                	bnez	a3,0x1c002dd4
1c002de0:	000b2783          	lw	a5,0(s6)
1c002de4:	18051163          	bnez	a0,0x1c002f66
1c002de8:	fc1736b3          	p.bclr	a3,a4,30,1
1c002dec:	8626                	mv	a2,s1
1c002dee:	43868633          	p.mac	a2,a3,s8
1c002df2:	00369713          	slli	a4,a3,0x3
1c002df6:	9736                	add	a4,a4,a3
1c002df8:	071e                	slli	a4,a4,0x7
1c002dfa:	973e                	add	a4,a4,a5
1c002dfc:	0ff00693          	li	a3,255
1c002e00:	c1ba                	sw	a4,192(sp)
1c002e02:	97b2                	add	a5,a5,a2
1c002e04:	cbbe                	sw	a5,212(sp)
1c002e06:	08d42223          	sw	a3,132(s0)
1c002e0a:	00dba023          	sw	a3,0(s7)
1c002e0e:	00dba623          	sw	a3,12(s7)
1c002e12:	09242023          	sw	s2,128(s0)
1c002e16:	09b42023          	sw	s11,128(s0)
1c002e1a:	856e                	mv	a0,s11
1c002e1c:	47c020ef          	jal	ra,0x1c005298
1c002e20:	01cbe783          	p.elw	a5,28(s7)
1c002e24:	8756                	mv	a4,s5
1c002e26:	f24abbe3          	p.bneimm	s5,4,0x1c002d5c
1c002e2a:	0ff00913          	li	s2,255
1c002e2e:	002044b7          	lui	s1,0x204
1c002e32:	0924a223          	sw	s2,132(s1) # 0x204084
1c002e36:	012ba023          	sw	s2,0(s7)
1c002e3a:	012ba623          	sw	s2,12(s7)
1c002e3e:	1c0047b7          	lui	a5,0x1c004
1c002e42:	e2c78793          	addi	a5,a5,-468 # 0x1c003e2c
1c002e46:	08f4a023          	sw	a5,128(s1)
1c002e4a:	1048                	addi	a0,sp,36
1c002e4c:	08a4a023          	sw	a0,128(s1)
1c002e50:	7dd000ef          	jal	ra,0x1c003e2c
1c002e54:	01cbe783          	p.elw	a5,28(s7)
1c002e58:	699d                	lui	s3,0x7
1c002e5a:	000b2783          	lw	a5,0(s6)
1c002e5e:	d8098993          	addi	s3,s3,-640 # 0x6d80
1c002e62:	97ce                	add	a5,a5,s3
1c002e64:	ddbe                	sw	a5,248(sp)
1c002e66:	0924a223          	sw	s2,132(s1)
1c002e6a:	012ba023          	sw	s2,0(s7)
1c002e6e:	012ba623          	sw	s2,12(s7)
1c002e72:	1c0067b7          	lui	a5,0x1c006
1c002e76:	af278793          	addi	a5,a5,-1294 # 0x1c005af2
1c002e7a:	08f4a023          	sw	a5,128(s1)
1c002e7e:	11a8                	addi	a0,sp,232
1c002e80:	08a4a023          	sw	a0,128(s1)
1c002e84:	46f020ef          	jal	ra,0x1c005af2
1c002e88:	01cbe783          	p.elw	a5,28(s7)
1c002e8c:	000b2783          	lw	a5,0(s6)
1c002e90:	99be                	add	s3,s3,a5
1c002e92:	30047773          	csrrci	a4,mstatus,8
1c002e96:	40042683          	lw	a3,1024(s0)
1c002e9a:	002e07b7          	lui	a5,0x2e0
1c002e9e:	40078793          	addi	a5,a5,1024 # 0x2e0400
1c002ea2:	40f4a023          	sw	a5,1024(s1)
1c002ea6:	4134a023          	sw	s3,1024(s1)
1c002eaa:	47b2                	lw	a5,12(sp)
1c002eac:	40f4a023          	sw	a5,1024(s1)
1c002eb0:	001007b7          	lui	a5,0x100
1c002eb4:	07c1                	addi	a5,a5,16
1c002eb6:	40f4a023          	sw	a5,1024(s1)
1c002eba:	d136                	sw	a3,160(sp)
1c002ebc:	d902                	sw	zero,176(sp)
1c002ebe:	30071073          	csrw	mstatus,a4
1c002ec2:	57ca                	lw	a5,176(sp)
1c002ec4:	18078163          	beqz	a5,0x1c003046
1c002ec8:	56ea                	lw	a3,184(sp)
1c002eca:	02000713          	li	a4,32
1c002ece:	002047b7          	lui	a5,0x204
1c002ed2:	c699                	beqz	a3,0x1c002ee0
1c002ed4:	c798                	sw	a4,8(a5)
1c002ed6:	03c7e683          	p.elw	a3,60(a5) # 0x20403c
1c002eda:	c3d8                	sw	a4,4(a5)
1c002edc:	56ea                	lw	a3,184(sp)
1c002ede:	fafd                	bnez	a3,0x1c002ed4
1c002ee0:	14c12083          	lw	ra,332(sp)
1c002ee4:	14812403          	lw	s0,328(sp)
1c002ee8:	14412483          	lw	s1,324(sp)
1c002eec:	14012903          	lw	s2,320(sp)
1c002ef0:	13c12983          	lw	s3,316(sp)
1c002ef4:	13812a03          	lw	s4,312(sp)
1c002ef8:	13412a83          	lw	s5,308(sp)
1c002efc:	13012b03          	lw	s6,304(sp)
1c002f00:	12c12b83          	lw	s7,300(sp)
1c002f04:	12812c03          	lw	s8,296(sp)
1c002f08:	12412c83          	lw	s9,292(sp)
1c002f0c:	12012d03          	lw	s10,288(sp)
1c002f10:	11c12d83          	lw	s11,284(sp)
1c002f14:	6171                	addi	sp,sp,336
1c002f16:	8082                	ret
1c002f18:	30047673          	csrrci	a2,mstatus,8
1c002f1c:	40442783          	lw	a5,1028(s0)
1c002f20:	468a                	lw	a3,128(sp)
1c002f22:	40d7d7b3          	sra	a5,a5,a3
1c002f26:	fc17b7b3          	p.bclr	a5,a5,30,1
1c002f2a:	c39d                	beqz	a5,0x1c002f50
1c002f2c:	10000593          	li	a1,256
1c002f30:	30061073          	csrw	mstatus,a2
1c002f34:	c40c                	sw	a1,8(s0)
1c002f36:	03c46783          	p.elw	a5,60(s0)
1c002f3a:	c04c                	sw	a1,4(s0)
1c002f3c:	30047673          	csrrci	a2,mstatus,8
1c002f40:	40442783          	lw	a5,1028(s0)
1c002f44:	468a                	lw	a3,128(sp)
1c002f46:	40d7d7b3          	sra	a5,a5,a3
1c002f4a:	fc17b7b3          	p.bclr	a5,a5,30,1
1c002f4e:	f3ed                	bnez	a5,0x1c002f30
1c002f50:	4785                	li	a5,1
1c002f52:	00d796b3          	sll	a3,a5,a3
1c002f56:	40d42223          	sw	a3,1028(s0)
1c002f5a:	30061073          	csrw	mstatus,a2
1c002f5e:	000b2783          	lw	a5,0(s6)
1c002f62:	e80503e3          	beqz	a0,0x1c002de8
1c002f66:	300475f3          	csrrci	a1,mstatus,8
1c002f6a:	40042883          	lw	a7,1024(s0)
1c002f6e:	c7054533          	p.bset	a0,a0,3,16
1c002f72:	c1554533          	p.bset	a0,a0,0,21
1c002f76:	40a42023          	sw	a0,1024(s0)
1c002f7a:	fc1ab633          	p.bclr	a2,s5,30,1
1c002f7e:	00361693          	slli	a3,a2,0x3
1c002f82:	96b2                	add	a3,a3,a2
1c002f84:	069e                	slli	a3,a3,0x7
1c002f86:	97b6                	add	a5,a5,a3
1c002f88:	40f42023          	sw	a5,1024(s0)
1c002f8c:	01aa07b3          	add	a5,s4,s10
1c002f90:	40f42023          	sw	a5,1024(s0)
1c002f94:	009007b7          	lui	a5,0x900
1c002f98:	09078793          	addi	a5,a5,144 # 0x900090
1c002f9c:	40f42023          	sw	a5,1024(s0)
1c002fa0:	c146                	sw	a7,128(sp)
1c002fa2:	c902                	sw	zero,144(sp)
1c002fa4:	30059073          	csrw	mstatus,a1
1c002fa8:	000b2783          	lw	a5,0(s6)
1c002fac:	bd35                	j	0x1c002de8
1c002fae:	30047673          	csrrci	a2,mstatus,8
1c002fb2:	40442783          	lw	a5,1028(s0)
1c002fb6:	5686                	lw	a3,96(sp)
1c002fb8:	40d7d7b3          	sra	a5,a5,a3
1c002fbc:	fc17b7b3          	p.bclr	a5,a5,30,1
1c002fc0:	c39d                	beqz	a5,0x1c002fe6
1c002fc2:	10000593          	li	a1,256
1c002fc6:	30061073          	csrw	mstatus,a2
1c002fca:	c40c                	sw	a1,8(s0)
1c002fcc:	03c46783          	p.elw	a5,60(s0)
1c002fd0:	c04c                	sw	a1,4(s0)
1c002fd2:	30047673          	csrrci	a2,mstatus,8
1c002fd6:	40442783          	lw	a5,1028(s0)
1c002fda:	5686                	lw	a3,96(sp)
1c002fdc:	40d7d7b3          	sra	a5,a5,a3
1c002fe0:	fc17b7b3          	p.bclr	a5,a5,30,1
1c002fe4:	f3ed                	bnez	a5,0x1c002fc6
1c002fe6:	4785                	li	a5,1
1c002fe8:	00d796b3          	sll	a3,a5,a3
1c002fec:	40d42223          	sw	a3,1028(s0)
1c002ff0:	30061073          	csrw	mstatus,a2
1c002ff4:	bb49                	j	0x1c002d86
1c002ff6:	30047673          	csrrci	a2,mstatus,8
1c002ffa:	4047a783          	lw	a5,1028(a5)
1c002ffe:	4686                	lw	a3,64(sp)
1c003000:	40d7d7b3          	sra	a5,a5,a3
1c003004:	fc17b7b3          	p.bclr	a5,a5,30,1
1c003008:	c78d                	beqz	a5,0x1c003032
1c00300a:	10000593          	li	a1,256
1c00300e:	00204737          	lui	a4,0x204
1c003012:	30061073          	csrw	mstatus,a2
1c003016:	c70c                	sw	a1,8(a4)
1c003018:	03c76783          	p.elw	a5,60(a4) # 0x20403c
1c00301c:	c34c                	sw	a1,4(a4)
1c00301e:	30047673          	csrrci	a2,mstatus,8
1c003022:	40472783          	lw	a5,1028(a4)
1c003026:	4686                	lw	a3,64(sp)
1c003028:	40d7d7b3          	sra	a5,a5,a3
1c00302c:	fc17b7b3          	p.bclr	a5,a5,30,1
1c003030:	f3ed                	bnez	a5,0x1c003012
1c003032:	4785                	li	a5,1
1c003034:	00d796b3          	sll	a3,a5,a3
1c003038:	002047b7          	lui	a5,0x204
1c00303c:	40d7a223          	sw	a3,1028(a5) # 0x204404
1c003040:	30061073          	csrw	mstatus,a2
1c003044:	b965                	j	0x1c002cfc
1c003046:	30047673          	csrrci	a2,mstatus,8
1c00304a:	40442783          	lw	a5,1028(s0)
1c00304e:	568a                	lw	a3,160(sp)
1c003050:	40d7d7b3          	sra	a5,a5,a3
1c003054:	fc17b7b3          	p.bclr	a5,a5,30,1
1c003058:	c78d                	beqz	a5,0x1c003082
1c00305a:	10000593          	li	a1,256
1c00305e:	00204737          	lui	a4,0x204
1c003062:	30061073          	csrw	mstatus,a2
1c003066:	c70c                	sw	a1,8(a4)
1c003068:	03c76783          	p.elw	a5,60(a4) # 0x20403c
1c00306c:	c34c                	sw	a1,4(a4)
1c00306e:	30047673          	csrrci	a2,mstatus,8
1c003072:	40472783          	lw	a5,1028(a4)
1c003076:	568a                	lw	a3,160(sp)
1c003078:	40d7d7b3          	sra	a5,a5,a3
1c00307c:	fc17b7b3          	p.bclr	a5,a5,30,1
1c003080:	f3ed                	bnez	a5,0x1c003062
1c003082:	4785                	li	a5,1
1c003084:	00d796b3          	sll	a3,a5,a3
1c003088:	002047b7          	lui	a5,0x204
1c00308c:	40d7a223          	sw	a3,1028(a5) # 0x204404
1c003090:	30061073          	csrw	mstatus,a2
1c003094:	b5b1                	j	0x1c002ee0
1c003096:	4881                	li	a7,0
1c003098:	4501                	li	a0,0
1c00309a:	b9c9                	j	0x1c002d6c
1c00309c:	715d                	addi	sp,sp,-80
1c00309e:	c4a2                	sw	s0,72(sp)
1c0030a0:	10000437          	lui	s0,0x10000
1c0030a4:	01c40413          	addi	s0,s0,28 # 0x1000001c
1c0030a8:	1c00aeb7          	lui	t4,0x1c00a
1c0030ac:	00042303          	lw	t1,0(s0)
1c0030b0:	da0eae83          	lw	t4,-608(t4) # 0x1c009da0
1c0030b4:	680d                	lui	a6,0x3
1c0030b6:	c0080893          	addi	a7,a6,-1024 # 0x2c00
1c0030ba:	02f10aa3          	sb	a5,53(sp)
1c0030be:	c0c80813          	addi	a6,a6,-1012
1c0030c2:	f8000793          	li	a5,-128
1c0030c6:	40030e13          	addi	t3,t1,1024
1c0030ca:	989a                	add	a7,a7,t1
1c0030cc:	981a                	add	a6,a6,t1
1c0030ce:	d076                	sw	t4,32(sp)
1c0030d0:	dc3e                	sw	a5,56(sp)
1c0030d2:	4ea9                	li	t4,10
1c0030d4:	07f00793          	li	a5,127
1c0030d8:	c686                	sw	ra,76(sp)
1c0030da:	c2a6                	sw	s1,68(sp)
1c0030dc:	c0ca                	sw	s2,64(sp)
1c0030de:	ce1a                	sw	t1,28(sp)
1c0030e0:	03d11223          	sh	t4,36(sp)
1c0030e4:	d472                	sw	t3,40(sp)
1c0030e6:	d646                	sw	a7,44(sp)
1c0030e8:	d842                	sw	a6,48(sp)
1c0030ea:	02e10a23          	sb	a4,52(sp)
1c0030ee:	de3e                	sw	a5,60(sp)
1c0030f0:	30047e73          	csrrci	t3,mstatus,8
1c0030f4:	002047b7          	lui	a5,0x204
1c0030f8:	4007a803          	lw	a6,1024(a5) # 0x204400
1c0030fc:	000b0737          	lui	a4,0xb0
1c003100:	4885                	li	a7,1
1c003102:	40070713          	addi	a4,a4,1024 # 0xb0400
1c003106:	c1574733          	p.bset	a4,a4,0,21
1c00310a:	40e7a023          	sw	a4,1024(a5)
1c00310e:	4067a023          	sw	t1,1024(a5)
1c003112:	40a7a023          	sw	a0,1024(a5)
1c003116:	300e1073          	csrw	mstatus,t3
1c00311a:	30047573          	csrrci	a0,mstatus,8
1c00311e:	4047a783          	lw	a5,1028(a5)
1c003122:	4107d7b3          	sra	a5,a5,a6
1c003126:	fc17b7b3          	p.bclr	a5,a5,30,1
1c00312a:	010898b3          	sll	a7,a7,a6
1c00312e:	c785                	beqz	a5,0x1c003156
1c003130:	10000813          	li	a6,256
1c003134:	002047b7          	lui	a5,0x204
1c003138:	30051073          	csrw	mstatus,a0
1c00313c:	0107a423          	sw	a6,8(a5) # 0x204008
1c003140:	03c7e703          	p.elw	a4,60(a5)
1c003144:	0107a223          	sw	a6,4(a5)
1c003148:	30047573          	csrrci	a0,mstatus,8
1c00314c:	4047a703          	lw	a4,1028(a5)
1c003150:	01177733          	and	a4,a4,a7
1c003154:	f375                	bnez	a4,0x1c003138
1c003156:	002047b7          	lui	a5,0x204
1c00315a:	4117a223          	sw	a7,1028(a5) # 0x204404
1c00315e:	30051073          	csrw	mstatus,a0
1c003162:	4008                	lw	a0,0(s0)
1c003164:	40050513          	addi	a0,a0,1024
1c003168:	30047373          	csrrci	t1,mstatus,8
1c00316c:	4007a883          	lw	a7,1024(a5)
1c003170:	00033737          	lui	a4,0x33
1c003174:	80070713          	addi	a4,a4,-2048 # 0x32800
1c003178:	4805                	li	a6,1
1c00317a:	c1374733          	p.bset	a4,a4,0,19
1c00317e:	c1574733          	p.bset	a4,a4,0,21
1c003182:	40e7a023          	sw	a4,1024(a5)
1c003186:	40a7a023          	sw	a0,1024(a5)
1c00318a:	40b7a023          	sw	a1,1024(a5)
1c00318e:	30031073          	csrw	mstatus,t1
1c003192:	300475f3          	csrrci	a1,mstatus,8
1c003196:	4047a783          	lw	a5,1028(a5)
1c00319a:	4117d7b3          	sra	a5,a5,a7
1c00319e:	fc17b7b3          	p.bclr	a5,a5,30,1
1c0031a2:	01181833          	sll	a6,a6,a7
1c0031a6:	c395                	beqz	a5,0x1c0031ca
1c0031a8:	10000513          	li	a0,256
1c0031ac:	002047b7          	lui	a5,0x204
1c0031b0:	30059073          	csrw	mstatus,a1
1c0031b4:	c788                	sw	a0,8(a5)
1c0031b6:	03c7e703          	p.elw	a4,60(a5) # 0x20403c
1c0031ba:	c3c8                	sw	a0,4(a5)
1c0031bc:	300475f3          	csrrci	a1,mstatus,8
1c0031c0:	4047a703          	lw	a4,1028(a5)
1c0031c4:	01077733          	and	a4,a4,a6
1c0031c8:	f765                	bnez	a4,0x1c0031b0
1c0031ca:	002047b7          	lui	a5,0x204
1c0031ce:	4107a223          	sw	a6,1028(a5) # 0x204404
1c0031d2:	30059073          	csrw	mstatus,a1
1c0031d6:	400c                	lw	a1,0(s0)
1c0031d8:	670d                	lui	a4,0x3
1c0031da:	c0070713          	addi	a4,a4,-1024 # 0x2c00
1c0031de:	95ba                	add	a1,a1,a4
1c0031e0:	300478f3          	csrrci	a7,mstatus,8
1c0031e4:	4007a803          	lw	a6,1024(a5)
1c0031e8:	000b0737          	lui	a4,0xb0
1c0031ec:	4505                	li	a0,1
1c0031ee:	0729                	addi	a4,a4,10
1c0031f0:	c1574733          	p.bset	a4,a4,0,21
1c0031f4:	40e7a023          	sw	a4,1024(a5)
1c0031f8:	40b7a023          	sw	a1,1024(a5)
1c0031fc:	40c7a023          	sw	a2,1024(a5)
1c003200:	30089073          	csrw	mstatus,a7
1c003204:	30047673          	csrrci	a2,mstatus,8
1c003208:	4047a783          	lw	a5,1028(a5)
1c00320c:	4107d7b3          	sra	a5,a5,a6
1c003210:	fc17b7b3          	p.bclr	a5,a5,30,1
1c003214:	01051533          	sll	a0,a0,a6
1c003218:	c38d                	beqz	a5,0x1c00323a
1c00321a:	10000593          	li	a1,256
1c00321e:	002047b7          	lui	a5,0x204
1c003222:	30061073          	csrw	mstatus,a2
1c003226:	c78c                	sw	a1,8(a5)
1c003228:	03c7e703          	p.elw	a4,60(a5) # 0x20403c
1c00322c:	c3cc                	sw	a1,4(a5)
1c00322e:	30047673          	csrrci	a2,mstatus,8
1c003232:	4047a703          	lw	a4,1028(a5)
1c003236:	8f69                	and	a4,a4,a0
1c003238:	f76d                	bnez	a4,0x1c003222
1c00323a:	002044b7          	lui	s1,0x204
1c00323e:	40a4a223          	sw	a0,1028(s1) # 0x204404
1c003242:	30061073          	csrw	mstatus,a2
1c003246:	0ff00793          	li	a5,255
1c00324a:	08f4a223          	sw	a5,132(s1)
1c00324e:	20048913          	addi	s2,s1,512
1c003252:	00f92023          	sw	a5,0(s2)
1c003256:	00f92623          	sw	a5,12(s2)
1c00325a:	1c0047b7          	lui	a5,0x1c004
1c00325e:	cbe78793          	addi	a5,a5,-834 # 0x1c003cbe
1c003262:	08f4a023          	sw	a5,128(s1)
1c003266:	0868                	addi	a0,sp,28
1c003268:	08a4a023          	sw	a0,128(s1)
1c00326c:	c636                	sw	a3,12(sp)
1c00326e:	251000ef          	jal	ra,0x1c003cbe
1c003272:	01c96783          	p.elw	a5,28(s2)
1c003276:	678d                	lui	a5,0x3
1c003278:	4018                	lw	a4,0(s0)
1c00327a:	c0c78793          	addi	a5,a5,-1012 # 0x2c0c
1c00327e:	973e                	add	a4,a4,a5
1c003280:	30047573          	csrrci	a0,mstatus,8
1c003284:	4004a603          	lw	a2,1024(s1)
1c003288:	000a07b7          	lui	a5,0xa0
1c00328c:	4585                	li	a1,1
1c00328e:	07a9                	addi	a5,a5,10
1c003290:	c157c7b3          	p.bset	a5,a5,0,21
1c003294:	40f4a023          	sw	a5,1024(s1)
1c003298:	40e4a023          	sw	a4,1024(s1)
1c00329c:	46b2                	lw	a3,12(sp)
1c00329e:	40d4a023          	sw	a3,1024(s1)
1c0032a2:	30051073          	csrw	mstatus,a0
1c0032a6:	300476f3          	csrrci	a3,mstatus,8
1c0032aa:	4044a783          	lw	a5,1028(s1)
1c0032ae:	40c7d7b3          	sra	a5,a5,a2
1c0032b2:	fc17b7b3          	p.bclr	a5,a5,30,1
1c0032b6:	00c595b3          	sll	a1,a1,a2
1c0032ba:	c38d                	beqz	a5,0x1c0032dc
1c0032bc:	10000613          	li	a2,256
1c0032c0:	002047b7          	lui	a5,0x204
1c0032c4:	30069073          	csrw	mstatus,a3
1c0032c8:	c790                	sw	a2,8(a5)
1c0032ca:	03c7e703          	p.elw	a4,60(a5) # 0x20403c
1c0032ce:	c3d0                	sw	a2,4(a5)
1c0032d0:	300476f3          	csrrci	a3,mstatus,8
1c0032d4:	4047a703          	lw	a4,1028(a5)
1c0032d8:	8f6d                	and	a4,a4,a1
1c0032da:	f76d                	bnez	a4,0x1c0032c4
1c0032dc:	002047b7          	lui	a5,0x204
1c0032e0:	40b7a223          	sw	a1,1028(a5) # 0x204404
1c0032e4:	30069073          	csrw	mstatus,a3
1c0032e8:	40b6                	lw	ra,76(sp)
1c0032ea:	4426                	lw	s0,72(sp)
1c0032ec:	4496                	lw	s1,68(sp)
1c0032ee:	4906                	lw	s2,64(sp)
1c0032f0:	6161                	addi	sp,sp,80
1c0032f2:	8082                	ret
1c0032f4:	7179                	addi	sp,sp,-48
1c0032f6:	d226                	sw	s1,36(sp)
1c0032f8:	100004b7          	lui	s1,0x10000
1c0032fc:	01c48493          	addi	s1,s1,28 # 0x1000001c
1c003300:	0004a803          	lw	a6,0(s1)
1c003304:	d04a                	sw	s2,32(sp)
1c003306:	00c80793          	addi	a5,a6,12
1c00330a:	892e                	mv	s2,a1
1c00330c:	d606                	sw	ra,44(sp)
1c00330e:	d422                	sw	s0,40(sp)
1c003310:	ce4e                	sw	s3,28(sp)
1c003312:	c242                	sw	a6,4(sp)
1c003314:	00c11523          	sh	a2,10(sp)
1c003318:	c63e                	sw	a5,12(sp)
1c00331a:	300475f3          	csrrci	a1,mstatus,8
1c00331e:	002047b7          	lui	a5,0x204
1c003322:	4007a603          	lw	a2,1024(a5) # 0x204400
1c003326:	000b06b7          	lui	a3,0xb0
1c00332a:	4705                	li	a4,1
1c00332c:	06a9                	addi	a3,a3,10
1c00332e:	c156c6b3          	p.bset	a3,a3,0,21
1c003332:	40d7a023          	sw	a3,1024(a5)
1c003336:	4107a023          	sw	a6,1024(a5)
1c00333a:	40a7a023          	sw	a0,1024(a5)
1c00333e:	30059073          	csrw	mstatus,a1
1c003342:	300476f3          	csrrci	a3,mstatus,8
1c003346:	4047a783          	lw	a5,1028(a5)
1c00334a:	40c7d7b3          	sra	a5,a5,a2
1c00334e:	fc17b7b3          	p.bclr	a5,a5,30,1
1c003352:	00c71533          	sll	a0,a4,a2
1c003356:	c38d                	beqz	a5,0x1c003378
1c003358:	10000613          	li	a2,256
1c00335c:	002047b7          	lui	a5,0x204
1c003360:	30069073          	csrw	mstatus,a3
1c003364:	c790                	sw	a2,8(a5)
1c003366:	03c7e703          	p.elw	a4,60(a5) # 0x20403c
1c00336a:	c3d0                	sw	a2,4(a5)
1c00336c:	300476f3          	csrrci	a3,mstatus,8
1c003370:	4047a703          	lw	a4,1028(a5)
1c003374:	8f69                	and	a4,a4,a0
1c003376:	f76d                	bnez	a4,0x1c003360
1c003378:	00204437          	lui	s0,0x204
1c00337c:	40a42223          	sw	a0,1028(s0) # 0x204404
1c003380:	30069073          	csrw	mstatus,a3
1c003384:	4729                	li	a4,10
1c003386:	0ff00793          	li	a5,255
1c00338a:	00e11423          	sh	a4,8(sp)
1c00338e:	08f42223          	sw	a5,132(s0)
1c003392:	20040993          	addi	s3,s0,512
1c003396:	00f9a023          	sw	a5,0(s3)
1c00339a:	00f9a623          	sw	a5,12(s3)
1c00339e:	1c0067b7          	lui	a5,0x1c006
1c0033a2:	c6e78793          	addi	a5,a5,-914 # 0x1c005c6e
1c0033a6:	08f42023          	sw	a5,128(s0)
1c0033aa:	0048                	addi	a0,sp,4
1c0033ac:	08a42023          	sw	a0,128(s0)
1c0033b0:	0bf020ef          	jal	ra,0x1c005c6e
1c0033b4:	01c9e783          	p.elw	a5,28(s3)
1c0033b8:	4094                	lw	a3,0(s1)
1c0033ba:	06b1                	addi	a3,a3,12
1c0033bc:	30047673          	csrrci	a2,mstatus,8
1c0033c0:	40042583          	lw	a1,1024(s0)
1c0033c4:	000a0737          	lui	a4,0xa0
1c0033c8:	4785                	li	a5,1
1c0033ca:	0751                	addi	a4,a4,20
1c0033cc:	c1574733          	p.bset	a4,a4,0,21
1c0033d0:	40e42023          	sw	a4,1024(s0)
1c0033d4:	40d42023          	sw	a3,1024(s0)
1c0033d8:	41242023          	sw	s2,1024(s0)
1c0033dc:	30061073          	csrw	mstatus,a2
1c0033e0:	300476f3          	csrrci	a3,mstatus,8
1c0033e4:	40442403          	lw	s0,1028(s0)
1c0033e8:	40b45433          	sra	s0,s0,a1
1c0033ec:	fc143433          	p.bclr	s0,s0,30,1
1c0033f0:	00b795b3          	sll	a1,a5,a1
1c0033f4:	c00d                	beqz	s0,0x1c003416
1c0033f6:	10000613          	li	a2,256
1c0033fa:	002047b7          	lui	a5,0x204
1c0033fe:	30069073          	csrw	mstatus,a3
1c003402:	c790                	sw	a2,8(a5)
1c003404:	03c7e703          	p.elw	a4,60(a5) # 0x20403c
1c003408:	c3d0                	sw	a2,4(a5)
1c00340a:	300476f3          	csrrci	a3,mstatus,8
1c00340e:	4047a703          	lw	a4,1028(a5)
1c003412:	8f6d                	and	a4,a4,a1
1c003414:	f76d                	bnez	a4,0x1c0033fe
1c003416:	002047b7          	lui	a5,0x204
1c00341a:	40b7a223          	sw	a1,1028(a5) # 0x204404
1c00341e:	30069073          	csrw	mstatus,a3
1c003422:	50b2                	lw	ra,44(sp)
1c003424:	5422                	lw	s0,40(sp)
1c003426:	5492                	lw	s1,36(sp)
1c003428:	5902                	lw	s2,32(sp)
1c00342a:	49f2                	lw	s3,28(sp)
1c00342c:	6145                	addi	sp,sp,48
1c00342e:	8082                	ret
1c003430:	7131                	addi	sp,sp,-192
1c003432:	0028                	addi	a0,sp,8
1c003434:	df06                	sw	ra,188(sp)
1c003436:	dd22                	sw	s0,184(sp)
1c003438:	db26                	sw	s1,180(sp)
1c00343a:	d74e                	sw	s3,172(sp)
1c00343c:	d94a                	sw	s2,176(sp)
1c00343e:	d552                	sw	s4,168(sp)
1c003440:	d356                	sw	s5,164(sp)
1c003442:	d15a                	sw	s6,160(sp)
1c003444:	cf5e                	sw	s7,156(sp)
1c003446:	1c00a9b7          	lui	s3,0x1c00a
1c00344a:	c65fc0ef          	jal	ra,0x1c0000ae
1c00344e:	0848                	addi	a0,sp,20
1c003450:	66898493          	addi	s1,s3,1640 # 0x1c00a668
1c003454:	e27fd0ef          	jal	ra,0x1c00127a
1c003458:	00c48413          	addi	s0,s1,12
1c00345c:	8522                	mv	a0,s0
1c00345e:	084c                	addi	a1,sp,20
1c003460:	525020ef          	jal	ra,0x1c006184
1c003464:	8522                	mv	a0,s0
1c003466:	c3bfc0ef          	jal	ra,0x1c0000a0
1c00346a:	cd11                	beqz	a0,0x1c003486
1c00346c:	4905                	li	s2,1
1c00346e:	50fa                	lw	ra,188(sp)
1c003470:	546a                	lw	s0,184(sp)
1c003472:	854a                	mv	a0,s2
1c003474:	54da                	lw	s1,180(sp)
1c003476:	594a                	lw	s2,176(sp)
1c003478:	59ba                	lw	s3,172(sp)
1c00347a:	5a2a                	lw	s4,168(sp)
1c00347c:	5a9a                	lw	s5,164(sp)
1c00347e:	5b0a                	lw	s6,160(sp)
1c003480:	4bfa                	lw	s7,156(sp)
1c003482:	6129                	addi	sp,sp,192
1c003484:	8082                	ret
1c003486:	892a                	mv	s2,a0
1c003488:	002c                	addi	a1,sp,8
1c00348a:	66898513          	addi	a0,s3,1640
1c00348e:	c622                	sw	s0,12(sp)
1c003490:	4f5020ef          	jal	ra,0x1c006184
1c003494:	66898513          	addi	a0,s3,1640
1c003498:	c1dfc0ef          	jal	ra,0x1c0000b4
1c00349c:	c511                	beqz	a0,0x1c0034a8
1c00349e:	44dc                	lw	a5,12(s1)
1c0034a0:	8522                	mv	a0,s0
1c0034a2:	43dc                	lw	a5,4(a5)
1c0034a4:	9782                	jalr	a5
1c0034a6:	b7d9                	j	0x1c00346c
1c0034a8:	1c00a5b7          	lui	a1,0x1c00a
1c0034ac:	4601                	li	a2,0
1c0034ae:	d7c58593          	addi	a1,a1,-644 # 0x1c009d7c
1c0034b2:	66898513          	addi	a0,s3,1640
1c0034b6:	c27fc0ef          	jal	ra,0x1c0000dc
1c0034ba:	cc88                	sw	a0,24(s1)
1c0034bc:	16050163          	beqz	a0,0x1c00361e
1c0034c0:	6ac5                	lui	s5,0x11
1c0034c2:	98aa8513          	addi	a0,s5,-1654 # 0x1098a
1c0034c6:	61a030ef          	jal	ra,0x1c006ae0
1c0034ca:	1c00a9b7          	lui	s3,0x1c00a
1c0034ce:	53898993          	addi	s3,s3,1336 # 0x1c00a538
1c0034d2:	65ad                	lui	a1,0xb
1c0034d4:	00a9a023          	sw	a0,0(s3)
1c0034d8:	58058593          	addi	a1,a1,1408 # 0xb580
1c0034dc:	4501                	li	a0,0
1c0034de:	5f0030ef          	jal	ra,0x1c006ace
1c0034e2:	0009a603          	lw	a2,0(s3)
1c0034e6:	6741                	lui	a4,0x10
1c0034e8:	1c00ab37          	lui	s6,0x1c00a
1c0034ec:	60070713          	addi	a4,a4,1536 # 0x10600
1c0034f0:	963a                	add	a2,a2,a4
1c0034f2:	7c4b2583          	lw	a1,1988(s6) # 0x1c00a7c4
1c0034f6:	10000737          	lui	a4,0x10000
1c0034fa:	00a72e23          	sw	a0,28(a4) # 0x1000001c
1c0034fe:	4c88                	lw	a0,24(s1)
1c003500:	6a3d                	lui	s4,0xf
1c003502:	4405                	li	s0,1
1c003504:	085c                	addi	a5,sp,20
1c003506:	95d2                	add	a1,a1,s4
1c003508:	4705                	li	a4,1
1c00350a:	32000693          	li	a3,800
1c00350e:	d422                	sw	s0,40(sp)
1c003510:	ca02                	sw	zero,20(sp)
1c003512:	dc22                	sw	s0,56(sp)
1c003514:	02010223          	sb	zero,36(sp)
1c003518:	c6dfc0ef          	jal	ra,0x1c000184
1c00351c:	0848                	addi	a0,sp,20
1c00351e:	3b0030ef          	jal	ra,0x1c0068ce
1c003522:	7c4b2583          	lw	a1,1988(s6)
1c003526:	0009a603          	lw	a2,0(s3)
1c00352a:	4c88                	lw	a0,24(s1)
1c00352c:	360a0713          	addi	a4,s4,864 # 0xf360
1c003530:	960a8693          	addi	a3,s5,-1696
1c003534:	085c                	addi	a5,sp,20
1c003536:	9636                	add	a2,a2,a3
1c003538:	95ba                	add	a1,a1,a4
1c00353a:	02000693          	li	a3,32
1c00353e:	4705                	li	a4,1
1c003540:	d422                	sw	s0,40(sp)
1c003542:	ca02                	sw	zero,20(sp)
1c003544:	dc22                	sw	s0,56(sp)
1c003546:	02010223          	sb	zero,36(sp)
1c00354a:	c3bfc0ef          	jal	ra,0x1c000184
1c00354e:	0848                	addi	a0,sp,20
1c003550:	37e030ef          	jal	ra,0x1c0068ce
1c003554:	0009a603          	lw	a2,0(s3)
1c003558:	7c4b2583          	lw	a1,1988(s6)
1c00355c:	4c88                	lw	a0,24(s1)
1c00355e:	6705                	lui	a4,0x1
1c003560:	6bb5                	lui	s7,0xd
1c003562:	60070713          	addi	a4,a4,1536 # 0x1600
1c003566:	085c                	addi	a5,sp,20
1c003568:	800b8693          	addi	a3,s7,-2048 # 0xc800
1c00356c:	963a                	add	a2,a2,a4
1c00356e:	4705                	li	a4,1
1c003570:	d422                	sw	s0,40(sp)
1c003572:	ca02                	sw	zero,20(sp)
1c003574:	dc22                	sw	s0,56(sp)
1c003576:	02010223          	sb	zero,36(sp)
1c00357a:	c0bfc0ef          	jal	ra,0x1c000184
1c00357e:	0848                	addi	a0,sp,20
1c003580:	34e030ef          	jal	ra,0x1c0068ce
1c003584:	7c4b2583          	lw	a1,1988(s6)
1c003588:	0009a603          	lw	a2,0(s3)
1c00358c:	4c88                	lw	a0,24(s1)
1c00358e:	320a0713          	addi	a4,s4,800
1c003592:	920a8693          	addi	a3,s5,-1760
1c003596:	085c                	addi	a5,sp,20
1c003598:	9636                	add	a2,a2,a3
1c00359a:	95ba                	add	a1,a1,a4
1c00359c:	04000693          	li	a3,64
1c0035a0:	4705                	li	a4,1
1c0035a2:	d422                	sw	s0,40(sp)
1c0035a4:	ca02                	sw	zero,20(sp)
1c0035a6:	dc22                	sw	s0,56(sp)
1c0035a8:	02010223          	sb	zero,36(sp)
1c0035ac:	bd9fc0ef          	jal	ra,0x1c000184
1c0035b0:	0848                	addi	a0,sp,20
1c0035b2:	31c030ef          	jal	ra,0x1c0068ce
1c0035b6:	7c4b2583          	lw	a1,1988(s6)
1c0035ba:	0009a603          	lw	a2,0(s3)
1c0035be:	4c88                	lw	a0,24(s1)
1c0035c0:	6739                	lui	a4,0xe
1c0035c2:	800b8b93          	addi	s7,s7,-2048
1c0035c6:	e0070713          	addi	a4,a4,-512 # 0xde00
1c0035ca:	668d                	lui	a3,0x3
1c0035cc:	085c                	addi	a5,sp,20
1c0035ce:	963a                	add	a2,a2,a4
1c0035d0:	95de                	add	a1,a1,s7
1c0035d2:	80068693          	addi	a3,a3,-2048 # 0x2800
1c0035d6:	4705                	li	a4,1
1c0035d8:	d422                	sw	s0,40(sp)
1c0035da:	ca02                	sw	zero,20(sp)
1c0035dc:	dc22                	sw	s0,56(sp)
1c0035de:	02010223          	sb	zero,36(sp)
1c0035e2:	ba3fc0ef          	jal	ra,0x1c000184
1c0035e6:	0848                	addi	a0,sp,20
1c0035e8:	2e6030ef          	jal	ra,0x1c0068ce
1c0035ec:	7c4b2583          	lw	a1,1988(s6)
1c0035f0:	0009a603          	lw	a2,0(s3)
1c0035f4:	4c88                	lw	a0,24(s1)
1c0035f6:	380a0a13          	addi	s4,s4,896
1c0035fa:	980a8a93          	addi	s5,s5,-1664
1c0035fe:	085c                	addi	a5,sp,20
1c003600:	4705                	li	a4,1
1c003602:	46a9                	li	a3,10
1c003604:	9656                	add	a2,a2,s5
1c003606:	95d2                	add	a1,a1,s4
1c003608:	d422                	sw	s0,40(sp)
1c00360a:	ca02                	sw	zero,20(sp)
1c00360c:	dc22                	sw	s0,56(sp)
1c00360e:	02010223          	sb	zero,36(sp)
1c003612:	b73fc0ef          	jal	ra,0x1c000184
1c003616:	0848                	addi	a0,sp,20
1c003618:	2b6030ef          	jal	ra,0x1c0068ce
1c00361c:	bd89                	j	0x1c00346e
1c00361e:	66898513          	addi	a0,s3,1640
1c003622:	ab3fc0ef          	jal	ra,0x1c0000d4
1c003626:	bda5                	j	0x1c00349e
1c003628:	1c00a7b7          	lui	a5,0x1c00a
1c00362c:	5387a503          	lw	a0,1336(a5) # 0x1c00a538
1c003630:	65c5                	lui	a1,0x11
1c003632:	1141                	addi	sp,sp,-16
1c003634:	98a58593          	addi	a1,a1,-1654 # 0x1098a
1c003638:	c606                	sw	ra,12(sp)
1c00363a:	c422                	sw	s0,8(sp)
1c00363c:	c226                	sw	s1,4(sp)
1c00363e:	4b0030ef          	jal	ra,0x1c006aee
1c003642:	100007b7          	lui	a5,0x10000
1c003646:	01c7a583          	lw	a1,28(a5) # 0x1000001c
1c00364a:	662d                	lui	a2,0xb
1c00364c:	58060613          	addi	a2,a2,1408 # 0xb580
1c003650:	1c00a4b7          	lui	s1,0x1c00a
1c003654:	4501                	li	a0,0
1c003656:	47e030ef          	jal	ra,0x1c006ad4
1c00365a:	66848413          	addi	s0,s1,1640 # 0x1c00a668
1c00365e:	4c08                	lw	a0,24(s0)
1c003660:	a85fc0ef          	jal	ra,0x1c0000e4
1c003664:	66848513          	addi	a0,s1,1640
1c003668:	a6dfc0ef          	jal	ra,0x1c0000d4
1c00366c:	445c                	lw	a5,12(s0)
1c00366e:	00c40513          	addi	a0,s0,12
1c003672:	43dc                	lw	a5,4(a5)
1c003674:	9782                	jalr	a5
1c003676:	40b2                	lw	ra,12(sp)
1c003678:	4422                	lw	s0,8(sp)
1c00367a:	4492                	lw	s1,4(sp)
1c00367c:	4501                	li	a0,0
1c00367e:	0141                	addi	sp,sp,16
1c003680:	8082                	ret
1c003682:	1141                	addi	sp,sp,-16
1c003684:	c226                	sw	s1,4(sp)
1c003686:	014027f3          	csrr	a5,uhartid
1c00368a:	c606                	sw	ra,12(sp)
1c00368c:	c422                	sw	s0,8(sp)
1c00368e:	c04a                	sw	s2,0(sp)
1c003690:	02000713          	li	a4,32
1c003694:	ca5797b3          	p.extractu	a5,a5,5,5
1c003698:	84ae                	mv	s1,a1
1c00369a:	18e78663          	beq	a5,a4,0x1c003826
1c00369e:	10200837          	lui	a6,0x10200
1c0036a2:	40080813          	addi	a6,a6,1024 # 0x10200400
1c0036a6:	00882803          	lw	a6,8(a6)
1c0036aa:	1c00a937          	lui	s2,0x1c00a
1c0036ae:	53890913          	addi	s2,s2,1336 # 0x1c00a538
1c0036b2:	00092883          	lw	a7,0(s2)
1c0036b6:	6645                	lui	a2,0x11
1c0036b8:	65c1                	lui	a1,0x10
1c0036ba:	96060613          	addi	a2,a2,-1696 # 0x10960
1c0036be:	60058593          	addi	a1,a1,1536 # 0x10600
1c0036c2:	47a1                	li	a5,8
1c0036c4:	4721                	li	a4,8
1c0036c6:	1c00b437          	lui	s0,0x1c00b
1c0036ca:	40088693          	addi	a3,a7,1024
1c0036ce:	9646                	add	a2,a2,a7
1c0036d0:	95c6                	add	a1,a1,a7
1c0036d2:	81042023          	sw	a6,-2048(s0) # 0x1c00a800
1c0036d6:	9b8ff0ef          	jal	ra,0x1c00288e
1c0036da:	02000713          	li	a4,32
1c0036de:	014027f3          	csrr	a5,uhartid
1c0036e2:	ca5797b3          	p.extractu	a5,a5,5,5
1c0036e6:	18e78a63          	beq	a5,a4,0x1c00387a
1c0036ea:	102007b7          	lui	a5,0x10200
1c0036ee:	40078793          	addi	a5,a5,1024 # 0x10200400
1c0036f2:	0087a783          	lw	a5,8(a5)
1c0036f6:	80042603          	lw	a2,-2048(s0)
1c0036fa:	01402773          	csrr	a4,uhartid
1c0036fe:	02000693          	li	a3,32
1c003702:	8f91                	sub	a5,a5,a2
1c003704:	80f42023          	sw	a5,-2048(s0)
1c003708:	ca5717b3          	p.extractu	a5,a4,5,5
1c00370c:	16d78063          	beq	a5,a3,0x1c00386c
1c003710:	10200837          	lui	a6,0x10200
1c003714:	40080813          	addi	a6,a6,1024 # 0x10200400
1c003718:	00882803          	lw	a6,8(a6)
1c00371c:	00092683          	lw	a3,0(s2)
1c003720:	6645                	lui	a2,0x11
1c003722:	6585                	lui	a1,0x1
1c003724:	92060613          	addi	a2,a2,-1760 # 0x10920
1c003728:	60058593          	addi	a1,a1,1536 # 0x1600
1c00372c:	47a1                	li	a5,8
1c00372e:	4721                	li	a4,8
1c003730:	80040413          	addi	s0,s0,-2048
1c003734:	9636                	add	a2,a2,a3
1c003736:	95b6                	add	a1,a1,a3
1c003738:	40068513          	addi	a0,a3,1024
1c00373c:	01042223          	sw	a6,4(s0)
1c003740:	c32ff0ef          	jal	ra,0x1c002b72
1c003744:	02000713          	li	a4,32
1c003748:	014027f3          	csrr	a5,uhartid
1c00374c:	ca5797b3          	p.extractu	a5,a5,5,5
1c003750:	10e78763          	beq	a5,a4,0x1c00385e
1c003754:	102007b7          	lui	a5,0x10200
1c003758:	40078793          	addi	a5,a5,1024 # 0x10200400
1c00375c:	0087a783          	lw	a5,8(a5)
1c003760:	4050                	lw	a2,4(s0)
1c003762:	01402773          	csrr	a4,uhartid
1c003766:	02000693          	li	a3,32
1c00376a:	8f91                	sub	a5,a5,a2
1c00376c:	c05c                	sw	a5,4(s0)
1c00376e:	ca5717b3          	p.extractu	a5,a4,5,5
1c003772:	0cd78f63          	beq	a5,a3,0x1c003850
1c003776:	10200837          	lui	a6,0x10200
1c00377a:	40080813          	addi	a6,a6,1024 # 0x10200400
1c00377e:	00882803          	lw	a6,8(a6)
1c003782:	00092503          	lw	a0,0(s2)
1c003786:	6645                	lui	a2,0x11
1c003788:	65b9                	lui	a1,0xe
1c00378a:	98060613          	addi	a2,a2,-1664 # 0x10980
1c00378e:	e0058593          	addi	a1,a1,-512 # 0xde00
1c003792:	47a1                	li	a5,8
1c003794:	4721                	li	a4,8
1c003796:	40050693          	addi	a3,a0,1024
1c00379a:	962a                	add	a2,a2,a0
1c00379c:	95aa                	add	a1,a1,a0
1c00379e:	01042423          	sw	a6,8(s0)
1c0037a2:	8fbff0ef          	jal	ra,0x1c00309c
1c0037a6:	02000713          	li	a4,32
1c0037aa:	014027f3          	csrr	a5,uhartid
1c0037ae:	ca5797b3          	p.extractu	a5,a5,5,5
1c0037b2:	08e78863          	beq	a5,a4,0x1c003842
1c0037b6:	102007b7          	lui	a5,0x10200
1c0037ba:	40078793          	addi	a5,a5,1024 # 0x10200400
1c0037be:	0087a783          	lw	a5,8(a5)
1c0037c2:	4410                	lw	a2,8(s0)
1c0037c4:	01402773          	csrr	a4,uhartid
1c0037c8:	02000693          	li	a3,32
1c0037cc:	8f91                	sub	a5,a5,a2
1c0037ce:	c41c                	sw	a5,8(s0)
1c0037d0:	ca5717b3          	p.extractu	a5,a4,5,5
1c0037d4:	06d78063          	beq	a5,a3,0x1c003834
1c0037d8:	102007b7          	lui	a5,0x10200
1c0037dc:	40078793          	addi	a5,a5,1024 # 0x10200400
1c0037e0:	0087a783          	lw	a5,8(a5)
1c0037e4:	00092503          	lw	a0,0(s2)
1c0037e8:	4605                	li	a2,1
1c0037ea:	85a6                	mv	a1,s1
1c0037ec:	40050513          	addi	a0,a0,1024
1c0037f0:	c45c                	sw	a5,12(s0)
1c0037f2:	b03ff0ef          	jal	ra,0x1c0032f4
1c0037f6:	02000713          	li	a4,32
1c0037fa:	014027f3          	csrr	a5,uhartid
1c0037fe:	ca5797b3          	p.extractu	a5,a5,5,5
1c003802:	08e78363          	beq	a5,a4,0x1c003888
1c003806:	102007b7          	lui	a5,0x10200
1c00380a:	40078793          	addi	a5,a5,1024 # 0x10200400
1c00380e:	0087a783          	lw	a5,8(a5)
1c003812:	4458                	lw	a4,12(s0)
1c003814:	40b2                	lw	ra,12(sp)
1c003816:	4492                	lw	s1,4(sp)
1c003818:	8f99                	sub	a5,a5,a4
1c00381a:	c45c                	sw	a5,12(s0)
1c00381c:	4422                	lw	s0,8(sp)
1c00381e:	4902                	lw	s2,0(sp)
1c003820:	4501                	li	a0,0
1c003822:	0141                	addi	sp,sp,16
1c003824:	8082                	ret
1c003826:	00200837          	lui	a6,0x200
1c00382a:	40080813          	addi	a6,a6,1024 # 0x200400
1c00382e:	00882803          	lw	a6,8(a6)
1c003832:	bda5                	j	0x1c0036aa
1c003834:	002007b7          	lui	a5,0x200
1c003838:	40078793          	addi	a5,a5,1024 # 0x200400
1c00383c:	0087a783          	lw	a5,8(a5)
1c003840:	b755                	j	0x1c0037e4
1c003842:	002007b7          	lui	a5,0x200
1c003846:	40078793          	addi	a5,a5,1024 # 0x200400
1c00384a:	0087a783          	lw	a5,8(a5)
1c00384e:	bf95                	j	0x1c0037c2
1c003850:	00200837          	lui	a6,0x200
1c003854:	40080813          	addi	a6,a6,1024 # 0x200400
1c003858:	00882803          	lw	a6,8(a6)
1c00385c:	b71d                	j	0x1c003782
1c00385e:	002007b7          	lui	a5,0x200
1c003862:	40078793          	addi	a5,a5,1024 # 0x200400
1c003866:	0087a783          	lw	a5,8(a5)
1c00386a:	bddd                	j	0x1c003760
1c00386c:	00200837          	lui	a6,0x200
1c003870:	40080813          	addi	a6,a6,1024 # 0x200400
1c003874:	00882803          	lw	a6,8(a6)
1c003878:	b555                	j	0x1c00371c
1c00387a:	002007b7          	lui	a5,0x200
1c00387e:	40078793          	addi	a5,a5,1024 # 0x200400
1c003882:	0087a783          	lw	a5,8(a5)
1c003886:	bd85                	j	0x1c0036f6
1c003888:	002007b7          	lui	a5,0x200
1c00388c:	40078793          	addi	a5,a5,1024 # 0x200400
1c003890:	0087a783          	lw	a5,8(a5)
1c003894:	bfbd                	j	0x1c003812
1c003896:	00855683          	lhu	a3,8(a0)
1c00389a:	f1402773          	csrr	a4,mhartid
1c00389e:	7179                	addi	sp,sp,-48
1c0038a0:	f836b7b3          	p.bclr	a5,a3,28,3
1c0038a4:	0036d613          	srli	a2,a3,0x3
1c0038a8:	00f037b3          	snez	a5,a5
1c0038ac:	97b2                	add	a5,a5,a2
1c0038ae:	c8071733          	p.extractu	a4,a4,4,0
1c0038b2:	02f70733          	mul	a4,a4,a5
1c0038b6:	d622                	sw	s0,44(sp)
1c0038b8:	d426                	sw	s1,40(sp)
1c0038ba:	d24a                	sw	s2,36(sp)
1c0038bc:	d04e                	sw	s3,32(sp)
1c0038be:	ce52                	sw	s4,28(sp)
1c0038c0:	cc56                	sw	s5,24(sp)
1c0038c2:	ca5a                	sw	s6,20(sp)
1c0038c4:	c85e                	sw	s7,16(sp)
1c0038c6:	c662                	sw	s8,12(sp)
1c0038c8:	c466                	sw	s9,8(sp)
1c0038ca:	00a54f83          	lbu	t6,10(a0)
1c0038ce:	00b54803          	lbu	a6,11(a0)
1c0038d2:	00f705b3          	add	a1,a4,a5
1c0038d6:	00052883          	lw	a7,0(a0)
1c0038da:	00455603          	lhu	a2,4(a0)
1c0038de:	00655303          	lhu	t1,6(a0)
1c0038e2:	00c52e03          	lw	t3,12(a0)
1c0038e6:	04d5d5b3          	p.minu	a1,a1,a3
1c0038ea:	150fcd63          	blt	t6,a6,0x1c003a44
1c0038ee:	410f8fb3          	sub	t6,t6,a6
1c0038f2:	12b77763          	bleu	a1,a4,0x1c003a20
1c0038f6:	02660633          	mul	a2,a2,t1
1c0038fa:	4411                	li	s0,4
1c0038fc:	9e3a                	add	t3,t3,a4
1c0038fe:	4995                	li	s3,5
1c003900:	8d99                	sub	a1,a1,a4
1c003902:	c4063333          	p.bclr	t1,a2,2,0
1c003906:	881a                	mv	a6,t1
1c003908:	42e60833          	p.mac	a6,a2,a4
1c00390c:	00365293          	srli	t0,a2,0x3
1c003910:	00329493          	slli	s1,t0,0x3
1c003914:	fff60393          	addi	t2,a2,-1
1c003918:	406484b3          	sub	s1,s1,t1
1c00391c:	01130933          	add	s2,t1,a7
1c003920:	40640433          	sub	s0,s0,t1
1c003924:	40660a33          	sub	s4,a2,t1
1c003928:	406383b3          	sub	t2,t2,t1
1c00392c:	00130a93          	addi	s5,t1,1
1c003930:	9846                	add	a6,a6,a7
1c003932:	41000f33          	neg	t5,a6
1c003936:	00230b13          	addi	s6,t1,2
1c00393a:	00330b93          	addi	s7,t1,3
1c00393e:	0705c07b          	lp.setup	x0,a1,0x1c003a1e
1c003942:	001e050b          	p.lb	a0,1(t3!)
1c003946:	41280eb3          	sub	t4,a6,s2
1c00394a:	01f51533          	sll	a0,a0,t6
1c00394e:	10056533          	p.extbs	a0,a0
1c003952:	00a05757          	pv.add.sc.b	a4,zero,a0
1c003956:	02028163          	beqz	t0,0x1c003978
1c00395a:	009307b3          	add	a5,t1,s1
1c00395e:	17e1                	addi	a5,a5,-8
1c003960:	838d                	srli	a5,a5,0x3
1c003962:	01040c33          	add	s8,s0,a6
1c003966:	406806b3          	sub	a3,a6,t1
1c00396a:	0785                	addi	a5,a5,1
1c00396c:	0047c0fb          	lp.setup	x1,a5,0x1c003974
1c003970:	00e6a42b          	p.sw	a4,8(a3!)
1c003974:	00ec242b          	p.sw	a4,8(s8!)
1c003978:	0ac37163          	bleu	a2,t1,0x1c003a1a
1c00397c:	fa2f36b3          	p.bclr	a3,t5,29,2
1c003980:	00368793          	addi	a5,a3,3
1c003984:	0537f7b3          	p.maxu	a5,a5,s3
1c003988:	1ef3e563          	bltu	t2,a5,0x1c003b72
1c00398c:	8c1a                	mv	s8,t1
1c00398e:	ce91                	beqz	a3,0x1c0039aa
1c003990:	00a80023          	sb	a0,0(a6)
1c003994:	8c56                	mv	s8,s5
1c003996:	0016aa63          	p.beqimm	a3,1,0x1c0039aa
1c00399a:	00a800a3          	sb	a0,1(a6)
1c00399e:	8c5a                	mv	s8,s6
1c0039a0:	0036b563          	p.bneimm	a3,3,0x1c0039aa
1c0039a4:	00a80123          	sb	a0,2(a6)
1c0039a8:	8c5e                	mv	s8,s7
1c0039aa:	40da0cb3          	sub	s9,s4,a3
1c0039ae:	002cd793          	srli	a5,s9,0x2
1c0039b2:	96c2                	add	a3,a3,a6
1c0039b4:	1c078963          	beqz	a5,0x1c003b86
1c0039b8:	0047c0fb          	lp.setup	x1,a5,0x1c0039c0
1c0039bc:	00e6a22b          	p.sw	a4,4(a3!)
1c0039c0:	0001                	nop
1c0039c2:	c20cb733          	p.bclr	a4,s9,1,0
1c0039c6:	018707b3          	add	a5,a4,s8
1c0039ca:	05970863          	beq	a4,s9,0x1c003a1a
1c0039ce:	00f88733          	add	a4,a7,a5
1c0039d2:	00a74ea3          	p.sb	a0,t4(a4)
1c0039d6:	00178713          	addi	a4,a5,1
1c0039da:	04c77063          	bleu	a2,a4,0x1c003a1a
1c0039de:	9746                	add	a4,a4,a7
1c0039e0:	00a74ea3          	p.sb	a0,t4(a4)
1c0039e4:	00278713          	addi	a4,a5,2
1c0039e8:	02c77963          	bleu	a2,a4,0x1c003a1a
1c0039ec:	9746                	add	a4,a4,a7
1c0039ee:	00a74ea3          	p.sb	a0,t4(a4)
1c0039f2:	00378713          	addi	a4,a5,3
1c0039f6:	02c77263          	bleu	a2,a4,0x1c003a1a
1c0039fa:	9746                	add	a4,a4,a7
1c0039fc:	00a74ea3          	p.sb	a0,t4(a4)
1c003a00:	00478713          	addi	a4,a5,4
1c003a04:	00c77b63          	bleu	a2,a4,0x1c003a1a
1c003a08:	9746                	add	a4,a4,a7
1c003a0a:	00a74ea3          	p.sb	a0,t4(a4)
1c003a0e:	0795                	addi	a5,a5,5
1c003a10:	00c7f563          	bleu	a2,a5,0x1c003a1a
1c003a14:	97c6                	add	a5,a5,a7
1c003a16:	00a7cea3          	p.sb	a0,t4(a5)
1c003a1a:	40cf0f33          	sub	t5,t5,a2
1c003a1e:	9832                	add	a6,a6,a2
1c003a20:	002047b7          	lui	a5,0x204
1c003a24:	20078793          	addi	a5,a5,512 # 0x204200
1c003a28:	01c7e703          	p.elw	a4,28(a5)
1c003a2c:	5432                	lw	s0,44(sp)
1c003a2e:	54a2                	lw	s1,40(sp)
1c003a30:	5912                	lw	s2,36(sp)
1c003a32:	5982                	lw	s3,32(sp)
1c003a34:	4a72                	lw	s4,28(sp)
1c003a36:	4ae2                	lw	s5,24(sp)
1c003a38:	4b52                	lw	s6,20(sp)
1c003a3a:	4bc2                	lw	s7,16(sp)
1c003a3c:	4c32                	lw	s8,12(sp)
1c003a3e:	4ca2                	lw	s9,8(sp)
1c003a40:	6145                	addi	sp,sp,48
1c003a42:	8082                	ret
1c003a44:	41f80fb3          	sub	t6,a6,t6
1c003a48:	fcb77ce3          	bleu	a1,a4,0x1c003a20
1c003a4c:	02660633          	mul	a2,a2,t1
1c003a50:	4411                	li	s0,4
1c003a52:	9e3a                	add	t3,t3,a4
1c003a54:	4995                	li	s3,5
1c003a56:	8d99                	sub	a1,a1,a4
1c003a58:	c4063333          	p.bclr	t1,a2,2,0
1c003a5c:	881a                	mv	a6,t1
1c003a5e:	42e60833          	p.mac	a6,a2,a4
1c003a62:	00365293          	srli	t0,a2,0x3
1c003a66:	00329493          	slli	s1,t0,0x3
1c003a6a:	fff60393          	addi	t2,a2,-1
1c003a6e:	406484b3          	sub	s1,s1,t1
1c003a72:	01130933          	add	s2,t1,a7
1c003a76:	40640433          	sub	s0,s0,t1
1c003a7a:	40660a33          	sub	s4,a2,t1
1c003a7e:	406383b3          	sub	t2,t2,t1
1c003a82:	00130a93          	addi	s5,t1,1
1c003a86:	9846                	add	a6,a6,a7
1c003a88:	41000f33          	neg	t5,a6
1c003a8c:	00230b13          	addi	s6,t1,2
1c003a90:	00330b93          	addi	s7,t1,3
1c003a94:	06d5c07b          	lp.setup	x0,a1,0x1c003b6e
1c003a98:	001e050b          	p.lb	a0,1(t3!)
1c003a9c:	41280eb3          	sub	t4,a6,s2
1c003aa0:	41f55533          	sra	a0,a0,t6
1c003aa4:	00a05757          	pv.add.sc.b	a4,zero,a0
1c003aa8:	02028163          	beqz	t0,0x1c003aca
1c003aac:	009307b3          	add	a5,t1,s1
1c003ab0:	17e1                	addi	a5,a5,-8
1c003ab2:	838d                	srli	a5,a5,0x3
1c003ab4:	01040c33          	add	s8,s0,a6
1c003ab8:	406806b3          	sub	a3,a6,t1
1c003abc:	0785                	addi	a5,a5,1
1c003abe:	0047c0fb          	lp.setup	x1,a5,0x1c003ac6
1c003ac2:	00e6a42b          	p.sw	a4,8(a3!)
1c003ac6:	00ec242b          	p.sw	a4,8(s8!)
1c003aca:	0ac37063          	bleu	a2,t1,0x1c003b6a
1c003ace:	fa2f36b3          	p.bclr	a3,t5,29,2
1c003ad2:	00368793          	addi	a5,a3,3
1c003ad6:	0537f7b3          	p.maxu	a5,a5,s3
1c003ada:	08f3ee63          	bltu	t2,a5,0x1c003b76
1c003ade:	8c1a                	mv	s8,t1
1c003ae0:	ce91                	beqz	a3,0x1c003afc
1c003ae2:	00a80023          	sb	a0,0(a6)
1c003ae6:	8c56                	mv	s8,s5
1c003ae8:	0016aa63          	p.beqimm	a3,1,0x1c003afc
1c003aec:	00a800a3          	sb	a0,1(a6)
1c003af0:	8c5a                	mv	s8,s6
1c003af2:	0036b563          	p.bneimm	a3,3,0x1c003afc
1c003af6:	00a80123          	sb	a0,2(a6)
1c003afa:	8c5e                	mv	s8,s7
1c003afc:	40da0cb3          	sub	s9,s4,a3
1c003b00:	002cd793          	srli	a5,s9,0x2
1c003b04:	96c2                	add	a3,a3,a6
1c003b06:	cbb5                	beqz	a5,0x1c003b7a
1c003b08:	0047c0fb          	lp.setup	x1,a5,0x1c003b10
1c003b0c:	00e6a22b          	p.sw	a4,4(a3!)
1c003b10:	0001                	nop
1c003b12:	c20cb733          	p.bclr	a4,s9,1,0
1c003b16:	00ec07b3          	add	a5,s8,a4
1c003b1a:	04ec8863          	beq	s9,a4,0x1c003b6a
1c003b1e:	00f88733          	add	a4,a7,a5
1c003b22:	00a74ea3          	p.sb	a0,t4(a4)
1c003b26:	00178713          	addi	a4,a5,1
1c003b2a:	04c77063          	bleu	a2,a4,0x1c003b6a
1c003b2e:	9746                	add	a4,a4,a7
1c003b30:	00a74ea3          	p.sb	a0,t4(a4)
1c003b34:	00278713          	addi	a4,a5,2
1c003b38:	02c77963          	bleu	a2,a4,0x1c003b6a
1c003b3c:	9746                	add	a4,a4,a7
1c003b3e:	00a74ea3          	p.sb	a0,t4(a4)
1c003b42:	00378713          	addi	a4,a5,3
1c003b46:	02c77263          	bleu	a2,a4,0x1c003b6a
1c003b4a:	9746                	add	a4,a4,a7
1c003b4c:	00a74ea3          	p.sb	a0,t4(a4)
1c003b50:	00478713          	addi	a4,a5,4
1c003b54:	00c77b63          	bleu	a2,a4,0x1c003b6a
1c003b58:	9746                	add	a4,a4,a7
1c003b5a:	00a74ea3          	p.sb	a0,t4(a4)
1c003b5e:	0795                	addi	a5,a5,5
1c003b60:	00c7f563          	bleu	a2,a5,0x1c003b6a
1c003b64:	97c6                	add	a5,a5,a7
1c003b66:	00a7cea3          	p.sb	a0,t4(a5)
1c003b6a:	40cf0f33          	sub	t5,t5,a2
1c003b6e:	9832                	add	a6,a6,a2
1c003b70:	bd45                	j	0x1c003a20
1c003b72:	879a                	mv	a5,t1
1c003b74:	bda9                	j	0x1c0039ce
1c003b76:	879a                	mv	a5,t1
1c003b78:	b75d                	j	0x1c003b1e
1c003b7a:	4785                	li	a5,1
1c003b7c:	00e6a22b          	p.sw	a4,4(a3!)
1c003b80:	17fd                	addi	a5,a5,-1
1c003b82:	f3d9                	bnez	a5,0x1c003b08
1c003b84:	b779                	j	0x1c003b12
1c003b86:	4785                	li	a5,1
1c003b88:	00e6a22b          	p.sw	a4,4(a3!)
1c003b8c:	17fd                	addi	a5,a5,-1
1c003b8e:	e20795e3          	bnez	a5,0x1c0039b8
1c003b92:	bd05                	j	0x1c0039c2
1c003b94:	00855603          	lhu	a2,8(a0)
1c003b98:	f1402773          	csrr	a4,mhartid
1c003b9c:	00a54303          	lbu	t1,10(a0)
1c003ba0:	f83637b3          	p.bclr	a5,a2,28,3
1c003ba4:	00365693          	srli	a3,a2,0x3
1c003ba8:	00f037b3          	snez	a5,a5
1c003bac:	97b6                	add	a5,a5,a3
1c003bae:	c8071733          	p.extractu	a4,a4,4,0
1c003bb2:	02f70733          	mul	a4,a4,a5
1c003bb6:	00b54683          	lbu	a3,11(a0)
1c003bba:	0306                	slli	t1,t1,0x1
1c003bbc:	00052803          	lw	a6,0(a0)
1c003bc0:	00455883          	lhu	a7,4(a0)
1c003bc4:	00655e03          	lhu	t3,6(a0)
1c003bc8:	4548                	lw	a0,12(a0)
1c003bca:	00f705b3          	add	a1,a4,a5
1c003bce:	04c5d5b3          	p.minu	a1,a1,a2
1c003bd2:	06d34c63          	blt	t1,a3,0x1c003c4a
1c003bd6:	40d30333          	sub	t1,t1,a3
1c003bda:	06b77163          	bleu	a1,a4,0x1c003c3c
1c003bde:	03c888b3          	mul	a7,a7,t3
1c003be2:	4e91                	li	t4,4
1c003be4:	953a                	add	a0,a0,a4
1c003be6:	8d99                	sub	a1,a1,a4
1c003be8:	00289f93          	slli	t6,a7,0x2
1c003bec:	ffcf8e13          	addi	t3,t6,-4
1c003bf0:	87f2                	mv	a5,t3
1c003bf2:	42ef87b3          	p.mac	a5,t6,a4
1c003bf6:	0018d893          	srli	a7,a7,0x1
1c003bfa:	00389f13          	slli	t5,a7,0x3
1c003bfe:	41cf0f33          	sub	t5,t5,t3
1c003c02:	41ce8eb3          	sub	t4,t4,t3
1c003c06:	983e                	add	a6,a6,a5
1c003c08:	0195c07b          	lp.setup	x0,a1,0x1c003c3a
1c003c0c:	0015070b          	p.lb	a4,1(a0!)
1c003c10:	00671733          	sll	a4,a4,t1
1c003c14:	02088163          	beqz	a7,0x1c003c36
1c003c18:	01ee07b3          	add	a5,t3,t5
1c003c1c:	17e1                	addi	a5,a5,-8
1c003c1e:	838d                	srli	a5,a5,0x3
1c003c20:	010e8633          	add	a2,t4,a6
1c003c24:	41c806b3          	sub	a3,a6,t3
1c003c28:	0785                	addi	a5,a5,1
1c003c2a:	0047c0fb          	lp.setup	x1,a5,0x1c003c32
1c003c2e:	00e6a42b          	p.sw	a4,8(a3!)
1c003c32:	00e6242b          	p.sw	a4,8(a2!)
1c003c36:	00e86fab          	p.sw	a4,t6(a6!)
1c003c3a:	0001                	nop
1c003c3c:	002047b7          	lui	a5,0x204
1c003c40:	20078793          	addi	a5,a5,512 # 0x204200
1c003c44:	01c7e703          	p.elw	a4,28(a5)
1c003c48:	8082                	ret
1c003c4a:	40668333          	sub	t1,a3,t1
1c003c4e:	feb777e3          	bleu	a1,a4,0x1c003c3c
1c003c52:	03c888b3          	mul	a7,a7,t3
1c003c56:	4e91                	li	t4,4
1c003c58:	953a                	add	a0,a0,a4
1c003c5a:	8d99                	sub	a1,a1,a4
1c003c5c:	00289f93          	slli	t6,a7,0x2
1c003c60:	ffcf8e13          	addi	t3,t6,-4
1c003c64:	87f2                	mv	a5,t3
1c003c66:	42ef87b3          	p.mac	a5,t6,a4
1c003c6a:	0018d893          	srli	a7,a7,0x1
1c003c6e:	00389f13          	slli	t5,a7,0x3
1c003c72:	41cf0f33          	sub	t5,t5,t3
1c003c76:	41ce8eb3          	sub	t4,t4,t3
1c003c7a:	983e                	add	a6,a6,a5
1c003c7c:	0195c07b          	lp.setup	x0,a1,0x1c003cae
1c003c80:	0015070b          	p.lb	a4,1(a0!)
1c003c84:	40675733          	sra	a4,a4,t1
1c003c88:	02088163          	beqz	a7,0x1c003caa
1c003c8c:	01ee07b3          	add	a5,t3,t5
1c003c90:	17e1                	addi	a5,a5,-8
1c003c92:	838d                	srli	a5,a5,0x3
1c003c94:	010e8633          	add	a2,t4,a6
1c003c98:	41c806b3          	sub	a3,a6,t3
1c003c9c:	0785                	addi	a5,a5,1
1c003c9e:	0047c0fb          	lp.setup	x1,a5,0x1c003ca6
1c003ca2:	00e6a42b          	p.sw	a4,8(a3!)
1c003ca6:	00e6242b          	p.sw	a4,8(a2!)
1c003caa:	00e86fab          	p.sw	a4,t6(a6!)
1c003cae:	0001                	nop
1c003cb0:	002047b7          	lui	a5,0x204
1c003cb4:	20078793          	addi	a5,a5,512 # 0x204200
1c003cb8:	01c7e703          	p.elw	a4,28(a5)
1c003cbc:	8082                	ret
1c003cbe:	00855683          	lhu	a3,8(a0)
1c003cc2:	f1402f73          	csrr	t5,mhartid
1c003cc6:	7139                	addi	sp,sp,-64
1c003cc8:	f836b7b3          	p.bclr	a5,a3,28,3
1c003ccc:	0036d713          	srli	a4,a3,0x3
1c003cd0:	00f037b3          	snez	a5,a5
1c003cd4:	97ba                	add	a5,a5,a4
1c003cd6:	c80f1f33          	p.extractu	t5,t5,4,0
1c003cda:	02ff0733          	mul	a4,t5,a5
1c003cde:	de22                	sw	s0,60(sp)
1c003ce0:	da4a                	sw	s2,52(sp)
1c003ce2:	d84e                	sw	s3,48(sp)
1c003ce4:	d652                	sw	s4,44(sp)
1c003ce6:	d25a                	sw	s6,36(sp)
1c003ce8:	d05e                	sw	s7,32(sp)
1c003cea:	dc26                	sw	s1,56(sp)
1c003cec:	d456                	sw	s5,40(sp)
1c003cee:	ce62                	sw	s8,28(sp)
1c003cf0:	cc66                	sw	s9,24(sp)
1c003cf2:	ca6a                	sw	s10,20(sp)
1c003cf4:	c86e                	sw	s11,16(sp)
1c003cf6:	01854a83          	lbu	s5,24(a0)
1c003cfa:	01954603          	lbu	a2,25(a0)
1c003cfe:	00f70f33          	add	t5,a4,a5
1c003d02:	001a9913          	slli	s2,s5,0x1
1c003d06:	04df5f33          	p.minu	t5,t5,a3
1c003d0a:	00052f83          	lw	t6,0(a0)
1c003d0e:	40c90933          	sub	s2,s2,a2
1c003d12:	00655b83          	lhu	s7,6(a0)
1c003d16:	00455a03          	lhu	s4,4(a0)
1c003d1a:	00c52e83          	lw	t4,12(a0)
1c003d1e:	01052383          	lw	t2,16(a0)
1c003d22:	4940                	lw	s0,20(a0)
1c003d24:	01c52983          	lw	s3,28(a0)
1c003d28:	02052b03          	lw	s6,32(a0)
1c003d2c:	0de77c63          	bleu	t5,a4,0x1c003e04
1c003d30:	402a5293          	srai	t0,s4,0x2
1c003d34:	028a                	slli	t0,t0,0x2
1c003d36:	8796                	mv	a5,t0
1c003d38:	42eb87b3          	p.mac	a5,s7,a4
1c003d3c:	403a5c13          	srai	s8,s4,0x3
1c003d40:	4691                	li	a3,4
1c003d42:	003c1c93          	slli	s9,s8,0x3
1c003d46:	405686b3          	sub	a3,a3,t0
1c003d4a:	014f85b3          	add	a1,t6,s4
1c003d4e:	04090933          	p.avg	s2,s2,zero
1c003d52:	004a7d93          	andi	s11,s4,4
1c003d56:	005f84b3          	add	s1,t6,t0
1c003d5a:	943a                	add	s0,s0,a4
1c003d5c:	9ebe                	add	t4,t4,a5
1c003d5e:	1009e7b3          	p.extbs	a5,s3
1c003d62:	93ba                	add	t2,t2,a4
1c003d64:	9cfe                	add	s9,s9,t6
1c003d66:	c236                	sw	a3,4(sp)
1c003d68:	c42e                	sw	a1,8(sp)
1c003d6a:	100b6d33          	p.extbs	s10,s6
1c003d6e:	c63e                	sw	a5,12(sp)
1c003d70:	40ef0f33          	sub	t5,t5,a4
1c003d74:	047f407b          	lp.setup	x0,t5,0x1c003e02
1c003d78:	0013878b          	p.lb	a5,1(t2!)
1c003d7c:	012797b3          	sll	a5,a5,s2
1c003d80:	020c0d63          	beqz	s8,0x1c003dba
1c003d84:	41fc8533          	sub	a0,s9,t6
1c003d88:	4592                	lw	a1,4(sp)
1c003d8a:	1561                	addi	a0,a0,-8
1c003d8c:	810d                	srli	a0,a0,0x3
1c003d8e:	405e8e33          	sub	t3,t4,t0
1c003d92:	004f8313          	addi	t1,t6,4
1c003d96:	01d588b3          	add	a7,a1,t4
1c003d9a:	887e                	mv	a6,t6
1c003d9c:	0505                	addi	a0,a0,1
1c003d9e:	00c540fb          	lp.setup	x1,a0,0x1c003db6
1c003da2:	0088258b          	p.lw	a1,8(a6!)
1c003da6:	008e260b          	p.lw	a2,8(t3!)
1c003daa:	0083268b          	p.lw	a3,8(t1!)
1c003dae:	0088a70b          	p.lw	a4,8(a7!)
1c003db2:	b8c597d7          	pv.sdotsp.b	a5,a1,a2
1c003db6:	b8e697d7          	pv.sdotsp.b	a5,a3,a4
1c003dba:	000d8763          	beqz	s11,0x1c003dc8
1c003dbe:	4094                	lw	a3,0(s1)
1c003dc0:	000ea703          	lw	a4,0(t4)
1c003dc4:	b8e697d7          	pv.sdotsp.b	a5,a3,a4
1c003dc8:	0142df63          	ble	s4,t0,0x1c003de6
1c003dcc:	45a2                	lw	a1,8(sp)
1c003dce:	8626                	mv	a2,s1
1c003dd0:	86f6                	mv	a3,t4
1c003dd2:	40958733          	sub	a4,a1,s1
1c003dd6:	006740fb          	lp.setup	x1,a4,0x1c003de2
1c003dda:	0016050b          	p.lb	a0,1(a2!)
1c003dde:	0016858b          	p.lb	a1,1(a3!)
1c003de2:	42b507b3          	p.mac	a5,a0,a1
1c003de6:	4157d7b3          	sra	a5,a5,s5
1c003dea:	0537e6b3          	p.max	a3,a5,s3
1c003dee:	876a                	mv	a4,s10
1c003df0:	0166d763          	ble	s6,a3,0x1c003dfe
1c003df4:	4732                	lw	a4,12(sp)
1c003df6:	00f9d463          	ble	a5,s3,0x1c003dfe
1c003dfa:	1007e733          	p.extbs	a4,a5
1c003dfe:	00e400ab          	p.sb	a4,1(s0!)
1c003e02:	9ede                	add	t4,t4,s7
1c003e04:	002047b7          	lui	a5,0x204
1c003e08:	20078793          	addi	a5,a5,512 # 0x204200
1c003e0c:	01c7e703          	p.elw	a4,28(a5)
1c003e10:	5472                	lw	s0,60(sp)
1c003e12:	54e2                	lw	s1,56(sp)
1c003e14:	5952                	lw	s2,52(sp)
1c003e16:	59c2                	lw	s3,48(sp)
1c003e18:	5a32                	lw	s4,44(sp)
1c003e1a:	5aa2                	lw	s5,40(sp)
1c003e1c:	5b12                	lw	s6,36(sp)
1c003e1e:	5b82                	lw	s7,32(sp)
1c003e20:	4c72                	lw	s8,28(sp)
1c003e22:	4ce2                	lw	s9,24(sp)
1c003e24:	4d52                	lw	s10,20(sp)
1c003e26:	4dc2                	lw	s11,16(sp)
1c003e28:	6121                	addi	sp,sp,64
1c003e2a:	8082                	ret
1c003e2c:	00655703          	lhu	a4,6(a0)
1c003e30:	00455783          	lhu	a5,4(a0)
1c003e34:	00e55f03          	lhu	t5,14(a0)
1c003e38:	7139                	addi	sp,sp,-64
1c003e3a:	00e787db          	p.mac	a5,a5,a4,zero
1c003e3e:	dc26                	sw	s1,56(sp)
1c003e40:	f14024f3          	csrr	s1,mhartid
1c003e44:	d84e                	sw	s3,48(sp)
1c003e46:	da4a                	sw	s2,52(sp)
1c003e48:	c80494b3          	p.extractu	s1,s1,4,0
1c003e4c:	d05e                	sw	s7,32(sp)
1c003e4e:	00052b83          	lw	s7,0(a0)
1c003e52:	de22                	sw	s0,60(sp)
1c003e54:	d652                	sw	s4,44(sp)
1c003e56:	03e787b3          	mul	a5,a5,t5
1c003e5a:	d456                	sw	s5,40(sp)
1c003e5c:	d25a                	sw	s6,36(sp)
1c003e5e:	ce62                	sw	s8,28(sp)
1c003e60:	cc66                	sw	s9,24(sp)
1c003e62:	ca6a                	sw	s10,20(sp)
1c003e64:	c86e                	sw	s11,16(sp)
1c003e66:	4910                	lw	a2,16(a0)
1c003e68:	01452803          	lw	a6,20(a0)
1c003e6c:	00c54583          	lbu	a1,12(a0)
1c003e70:	f837b9b3          	p.bclr	s3,a5,28,3
1c003e74:	013039b3          	snez	s3,s3
1c003e78:	0037d713          	srli	a4,a5,0x3
1c003e7c:	99ba                	add	s3,s3,a4
1c003e7e:	03348e33          	mul	t3,s1,s3
1c003e82:	013e0f33          	add	t5,t3,s3
1c003e86:	04ff5f33          	p.minu	t5,t5,a5
1c003e8a:	41cf0f33          	sub	t5,t5,t3
1c003e8e:	41ff5913          	srai	s2,t5,0x1f
1c003e92:	fa293fb3          	p.bclr	t6,s2,29,2
1c003e96:	0e0a                	slli	t3,t3,0x2
1c003e98:	05efafdb          	p.addn	t6,t6,t5,2
1c003e9c:	01cb8333          	add	t1,s7,t3
1c003ea0:	07f05063          	blez	t6,0x1c003f00
1c003ea4:	004f9893          	slli	a7,t6,0x4
1c003ea8:	18c1                	addi	a7,a7,-16
1c003eaa:	0048d893          	srli	a7,a7,0x4
1c003eae:	8e9a                	mv	t4,t1
1c003eb0:	851a                	mv	a0,t1
1c003eb2:	0885                	addi	a7,a7,1
1c003eb4:	0258c0fb          	lp.setup	x1,a7,0x1c003efe
1c003eb8:	411c                	lw	a5,0(a0)
1c003eba:	00452283          	lw	t0,4(a0)
1c003ebe:	4514                	lw	a3,8(a0)
1c003ec0:	4558                	lw	a4,12(a0)
1c003ec2:	40b7d7b3          	sra	a5,a5,a1
1c003ec6:	40b2d2b3          	sra	t0,t0,a1
1c003eca:	04c7e7b3          	p.max	a5,a5,a2
1c003ece:	04c2e2b3          	p.max	t0,t0,a2
1c003ed2:	40b6d6b3          	sra	a3,a3,a1
1c003ed6:	40b75733          	sra	a4,a4,a1
1c003eda:	0507c7b3          	p.min	a5,a5,a6
1c003ede:	0502c2b3          	p.min	t0,t0,a6
1c003ee2:	04c6e6b3          	p.max	a3,a3,a2
1c003ee6:	04c76733          	p.max	a4,a4,a2
1c003eea:	0506c6b3          	p.min	a3,a3,a6
1c003eee:	05074733          	p.min	a4,a4,a6
1c003ef2:	e0f297d7          	pv.packlo.b	a5,t0,a5
1c003ef6:	d8d717d7          	pv.packhi.b	a5,a4,a3
1c003efa:	00fea22b          	p.sw	a5,4(t4!)
1c003efe:	0541                	addi	a0,a0,16
1c003f00:	002f9713          	slli	a4,t6,0x2
1c003f04:	05e75d63          	ble	t5,a4,0x1c003f5e
1c003f08:	0f92                	slli	t6,t6,0x4
1c003f0a:	002f1793          	slli	a5,t5,0x2
1c003f0e:	41f787b3          	sub	a5,a5,t6
1c003f12:	17f1                	addi	a5,a5,-4
1c003f14:	9e3a                	add	t3,t3,a4
1c003f16:	8389                	srli	a5,a5,0x2
1c003f18:	9e5e                	add	t3,t3,s7
1c003f1a:	937e                	add	t1,t1,t6
1c003f1c:	100868b3          	p.extbs	a7,a6
1c003f20:	10066eb3          	p.extbs	t4,a2
1c003f24:	0785                	addi	a5,a5,1
1c003f26:	01b7c0fb          	lp.setup	x1,a5,0x1c003f5c
1c003f2a:	0043270b          	p.lw	a4,4(t1!)
1c003f2e:	86b2                	mv	a3,a2
1c003f30:	8546                	mv	a0,a7
1c003f32:	40b75733          	sra	a4,a4,a1
1c003f36:	00e65663          	ble	a4,a2,0x1c003f42
1c003f3a:	ffc32683          	lw	a3,-4(t1)
1c003f3e:	40b6d6b3          	sra	a3,a3,a1
1c003f42:	0106db63          	ble	a6,a3,0x1c003f58
1c003f46:	ffc32703          	lw	a4,-4(t1)
1c003f4a:	8576                	mv	a0,t4
1c003f4c:	40b75733          	sra	a4,a4,a1
1c003f50:	00e65463          	ble	a4,a2,0x1c003f58
1c003f54:	10076533          	p.extbs	a0,a4
1c003f58:	00ae00ab          	p.sb	a0,1(t3!)
1c003f5c:	0001                	nop
1c003f5e:	00204437          	lui	s0,0x204
1c003f62:	20040413          	addi	s0,s0,512 # 0x204200
1c003f66:	01c46783          	p.elw	a5,28(s0)
1c003f6a:	4a8d                	li	s5,3
1c003f6c:	f8393933          	p.bclr	s2,s2,28,3
1c003f70:	07e9295b          	p.addn	s2,s2,t5,3
1c003f74:	00391e93          	slli	t4,s2,0x3
1c003f78:	41df0cb3          	sub	s9,t5,t4
1c003f7c:	008cba13          	sltiu	s4,s9,8
1c003f80:	001a4a13          	xori	s4,s4,1
1c003f84:	ffff0b13          	addi	s6,t5,-1
1c003f88:	003e8793          	addi	a5,t4,3
1c003f8c:	4385                	li	t2,1
1c003f8e:	4289                	li	t0,2
1c003f90:	4691                	li	a3,4
1c003f92:	4e01                	li	t3,0
1c003f94:	004e8c13          	addi	s8,t4,4
1c003f98:	0ffa7a13          	andi	s4,s4,255
1c003f9c:	41db0b33          	sub	s6,s6,t4
1c003fa0:	001e8d13          	addi	s10,t4,1
1c003fa4:	002e8d93          	addi	s11,t4,2
1c003fa8:	c63e                	sw	a5,12(sp)
1c003faa:	02d4eb63          	bltu	s1,a3,0x1c003fe0
1c003fae:	01f6d793          	srli	a5,a3,0x1f
1c003fb2:	02d7a6db          	p.addn	a3,a5,a3,1
1c003fb6:	0286                	slli	t0,t0,0x1
1c003fb8:	0386                	slli	t2,t2,0x1
1c003fba:	01c46783          	p.elw	a5,28(s0)
1c003fbe:	0e05                	addi	t3,t3,1
1c003fc0:	ffca95e3          	bne	s5,t3,0x1c003faa
1c003fc4:	5472                	lw	s0,60(sp)
1c003fc6:	54e2                	lw	s1,56(sp)
1c003fc8:	5952                	lw	s2,52(sp)
1c003fca:	59c2                	lw	s3,48(sp)
1c003fcc:	5a32                	lw	s4,44(sp)
1c003fce:	5aa2                	lw	s5,40(sp)
1c003fd0:	5b12                	lw	s6,36(sp)
1c003fd2:	5b82                	lw	s7,32(sp)
1c003fd4:	4c72                	lw	s8,28(sp)
1c003fd6:	4ce2                	lw	s9,24(sp)
1c003fd8:	4d52                	lw	s10,20(sp)
1c003fda:	4dc2                	lw	s11,16(sp)
1c003fdc:	6121                	addi	sp,sp,64
1c003fde:	8082                	ret
1c003fe0:	871e                	mv	a4,t2
1c003fe2:	42928733          	p.mac	a4,t0,s1
1c003fe6:	03370733          	mul	a4,a4,s3
1c003fea:	00eb85b3          	add	a1,s7,a4
1c003fee:	972e                	add	a4,a4,a1
1c003ff0:	03205663          	blez	s2,0x1c00401c
1c003ff4:	ff8e8793          	addi	a5,t4,-8
1c003ff8:	838d                	srli	a5,a5,0x3
1c003ffa:	88ba                	mv	a7,a4
1c003ffc:	882e                	mv	a6,a1
1c003ffe:	00470513          	addi	a0,a4,4
1c004002:	00458613          	addi	a2,a1,4
1c004006:	0785                	addi	a5,a5,1
1c004008:	0087c0fb          	lp.setup	x1,a5,0x1c004018
1c00400c:	0088af8b          	p.lw	t6,8(a7!)
1c004010:	0085230b          	p.lw	t1,8(a0!)
1c004014:	01f8242b          	p.sw	t6,8(a6!)
1c004018:	0066242b          	p.sw	t1,8(a2!)
1c00401c:	f9eed9e3          	ble	t5,t4,0x1c003fae
1c004020:	01d70533          	add	a0,a4,t4
1c004024:	01d58833          	add	a6,a1,t4
1c004028:	018707b3          	add	a5,a4,s8
1c00402c:	018588b3          	add	a7,a1,s8
1c004030:	0507b7b3          	p.sletu	a5,a5,a6
1c004034:	04a8b8b3          	p.sletu	a7,a7,a0
1c004038:	863e                	mv	a2,a5
1c00403a:	87c6                	mv	a5,a7
1c00403c:	8fd1                	or	a5,a5,a2
1c00403e:	0ff7f793          	andi	a5,a5,255
1c004042:	cff9                	beqz	a5,0x1c004120
1c004044:	0c0a0e63          	beqz	s4,0x1c004120
1c004048:	40a007b3          	neg	a5,a0
1c00404c:	fa27b7b3          	p.bclr	a5,a5,29,2
1c004050:	00378613          	addi	a2,a5,3
1c004054:	8876                	mv	a6,t4
1c004056:	04cb6e63          	bltu	s6,a2,0x1c0040b2
1c00405a:	cb85                	beqz	a5,0x1c00408a
1c00405c:	00050603          	lb	a2,0(a0)
1c004060:	886a                	mv	a6,s10
1c004062:	00c5cea3          	p.sb	a2,t4(a1)
1c004066:	0217a263          	p.beqimm	a5,1,0x1c00408a
1c00406a:	01a70633          	add	a2,a4,s10
1c00406e:	00060603          	lb	a2,0(a2)
1c004072:	886e                	mv	a6,s11
1c004074:	00c5cd23          	p.sb	a2,s10(a1)
1c004078:	0037b963          	p.bneimm	a5,3,0x1c00408a
1c00407c:	01b70633          	add	a2,a4,s11
1c004080:	00060603          	lb	a2,0(a2)
1c004084:	4832                	lw	a6,12(sp)
1c004086:	00c5cda3          	p.sb	a2,s11(a1)
1c00408a:	40fc88b3          	sub	a7,s9,a5
1c00408e:	0028d613          	srli	a2,a7,0x2
1c004092:	97f6                	add	a5,a5,t4
1c004094:	00f58533          	add	a0,a1,a5
1c004098:	97ba                	add	a5,a5,a4
1c00409a:	ce49                	beqz	a2,0x1c004134
1c00409c:	004640fb          	lp.setup	x1,a2,0x1c0040a4
1c0040a0:	0047a30b          	p.lw	t1,4(a5!)
1c0040a4:	0065222b          	p.sw	t1,4(a0!)
1c0040a8:	c208b7b3          	p.bclr	a5,a7,1,0
1c0040ac:	983e                	add	a6,a6,a5
1c0040ae:	f0f880e3          	beq	a7,a5,0x1c003fae
1c0040b2:	010707b3          	add	a5,a4,a6
1c0040b6:	00078603          	lb	a2,0(a5)
1c0040ba:	00180793          	addi	a5,a6,1
1c0040be:	00c5c823          	p.sb	a2,a6(a1)
1c0040c2:	efe7d6e3          	ble	t5,a5,0x1c003fae
1c0040c6:	00f70633          	add	a2,a4,a5
1c0040ca:	00060503          	lb	a0,0(a2)
1c0040ce:	00280613          	addi	a2,a6,2
1c0040d2:	00a5c7a3          	p.sb	a0,a5(a1)
1c0040d6:	ede65ce3          	ble	t5,a2,0x1c003fae
1c0040da:	00c707b3          	add	a5,a4,a2
1c0040de:	00078503          	lb	a0,0(a5)
1c0040e2:	00380793          	addi	a5,a6,3
1c0040e6:	00a5c623          	p.sb	a0,a2(a1)
1c0040ea:	ede7d2e3          	ble	t5,a5,0x1c003fae
1c0040ee:	00f70633          	add	a2,a4,a5
1c0040f2:	00060503          	lb	a0,0(a2)
1c0040f6:	00480613          	addi	a2,a6,4
1c0040fa:	00a5c7a3          	p.sb	a0,a5(a1)
1c0040fe:	ebe658e3          	ble	t5,a2,0x1c003fae
1c004102:	00c707b3          	add	a5,a4,a2
1c004106:	00078783          	lb	a5,0(a5)
1c00410a:	0815                	addi	a6,a6,5
1c00410c:	00f5c623          	p.sb	a5,a2(a1)
1c004110:	e9e85fe3          	ble	t5,a6,0x1c003fae
1c004114:	9742                	add	a4,a4,a6
1c004116:	00070783          	lb	a5,0(a4)
1c00411a:	00f5c823          	p.sb	a5,a6(a1)
1c00411e:	bd41                	j	0x1c003fae
1c004120:	9776                	add	a4,a4,t4
1c004122:	41df07b3          	sub	a5,t5,t4
1c004126:	0047c0fb          	lp.setup	x1,a5,0x1c00412e
1c00412a:	0017060b          	p.lb	a2,1(a4!)
1c00412e:	00c800ab          	p.sb	a2,1(a6!)
1c004132:	bdb5                	j	0x1c003fae
1c004134:	4605                	li	a2,1
1c004136:	b79d                	j	0x1c00409c
1c004138:	1101                	addi	sp,sp,-32
1c00413a:	5e32                	lw	t3,44(sp)
1c00413c:	c84e                	sw	s3,16(sp)
1c00413e:	ce22                	sw	s0,28(sp)
1c004140:	cc26                	sw	s1,24(sp)
1c004142:	ca4a                	sw	s2,20(sp)
1c004144:	c652                	sw	s4,12(sp)
1c004146:	c456                	sw	s5,8(sp)
1c004148:	c25a                	sw	s6,4(sp)
1c00414a:	5982                	lw	s3,32(sp)
1c00414c:	5322                	lw	t1,40(sp)
1c00414e:	7816fed7          	pv.extract.b	t4,a3,2
1c004152:	1a3e2a63          	p.beqimm	t3,3,0x1c004306
1c004156:	4f0d                	li	t5,3
1c004158:	15cf5563          	ble	t3,t5,0x1c0042a2
1c00415c:	164e2a63          	p.beqimm	t3,4,0x1c0042d0
1c004160:	185e3863          	p.bneimm	t3,5,0x1c0042f0
1c004164:	00032283          	lw	t0,0(t1)
1c004168:	00532f83          	lw	t6,5(t1)
1c00416c:	00a32f03          	lw	t5,10(t1)
1c004170:	00f32383          	lw	t2,15(t1)
1c004174:	01432403          	lw	s0,20(t1)
1c004178:	b21072d7          	pv.insert.b	t0,zero,3
1c00417c:	b2107fd7          	pv.insert.b	t6,zero,3
1c004180:	b2107f57          	pv.insert.b	t5,zero,3
1c004184:	b21073d7          	pv.insert.b	t2,zero,3
1c004188:	b2107457          	pv.insert.b	s0,zero,3
1c00418c:	0e2eab63          	p.beqimm	t4,2,0x1c004282
1c004190:	0e0e8e63          	beqz	t4,0x1c00428c
1c004194:	20b5760b          	p.lw	a2,a1(a0!)
1c004198:	00007b57          	pv.add.sci.b	s6,zero,0
1c00419c:	4801                	li	a6,0
1c00419e:	00052303          	lw	t1,0(a0)
1c0041a2:	0c17a763          	p.beqimm	a5,1,0x1c004270
1c0041a6:	5a92                	lw	s5,36(sp)
1c0041a8:	00b504b3          	add	s1,a0,a1
1c0041ac:	20b4fe0b          	p.lw	t3,a1(s1!)
1c0041b0:	42e80ab3          	p.mac	s5,a6,a4
1c0041b4:	05187a63          	bleu	a7,a6,0x1c004208
1c0041b8:	8942                	mv	s2,a6
1c0041ba:	8556                	mv	a0,s5
1c0041bc:	8a26                	mv	s4,s1
1c0041be:	410888b3          	sub	a7,a7,a6
1c0041c2:	01c8c0fb          	lp.setup	x1,a7,0x1c0041fa
1c0041c6:	00050783          	lb	a5,0(a0)
1c0041ca:	20ba7e8b          	p.lw	t4,a1(s4!)
1c0041ce:	0905                	addi	s2,s2,1
1c0041d0:	013797b3          	sll	a5,a5,s3
1c0041d4:	b85b17d7          	pv.sdotsp.b	a5,s6,t0
1c0041d8:	b9f617d7          	pv.sdotsp.b	a5,a2,t6
1c0041dc:	b9e317d7          	pv.sdotsp.b	a5,t1,t5
1c0041e0:	b87e17d7          	pv.sdotsp.b	a5,t3,t2
1c0041e4:	b88e97d7          	pv.sdotsp.b	a5,t4,s0
1c0041e8:	4137d7b3          	sra	a5,a5,s3
1c0041ec:	148797b3          	p.clip	a5,a5,8
1c0041f0:	00f5472b          	p.sb	a5,a4(a0!)
1c0041f4:	8b32                	mv	s6,a2
1c0041f6:	861a                	mv	a2,t1
1c0041f8:	8372                	mv	t1,t3
1c0041fa:	8e76                	mv	t3,t4
1c0041fc:	41090833          	sub	a6,s2,a6
1c004200:	42b804b3          	p.mac	s1,a6,a1
1c004204:	43070ab3          	p.mac	s5,a4,a6
1c004208:	7a16f6d7          	pv.extract.b	a3,a3,3
1c00420c:	c2b5                	beqz	a3,0x1c004270
1c00420e:	00259513          	slli	a0,a1,0x2
1c004212:	8c89                	sub	s1,s1,a0
1c004214:	00b48633          	add	a2,s1,a1
1c004218:	20b6780b          	p.lw	a6,a1(a2!)
1c00421c:	000a8783          	lb	a5,0(s5)
1c004220:	0004a883          	lw	a7,0(s1)
1c004224:	4208                	lw	a0,0(a2)
1c004226:	013797b3          	sll	a5,a5,s3
1c00422a:	20b67583          	p.lw	a1,a1(a2)
1c00422e:	b85897d7          	pv.sdotsp.b	a5,a7,t0
1c004232:	b9f817d7          	pv.sdotsp.b	a5,a6,t6
1c004236:	b9e517d7          	pv.sdotsp.b	a5,a0,t5
1c00423a:	b87597d7          	pv.sdotsp.b	a5,a1,t2
1c00423e:	4137d7b3          	sra	a5,a5,s3
1c004242:	148797b3          	p.clip	a5,a5,8
1c004246:	00fa8023          	sb	a5,0(s5)
1c00424a:	0226b363          	p.bneimm	a3,2,0x1c004270
1c00424e:	9756                	add	a4,a4,s5
1c004250:	00070783          	lb	a5,0(a4)
1c004254:	013797b3          	sll	a5,a5,s3
1c004258:	b85817d7          	pv.sdotsp.b	a5,a6,t0
1c00425c:	b9f517d7          	pv.sdotsp.b	a5,a0,t6
1c004260:	b9e597d7          	pv.sdotsp.b	a5,a1,t5
1c004264:	4137d9b3          	sra	s3,a5,s3
1c004268:	148999b3          	p.clip	s3,s3,8
1c00426c:	01370023          	sb	s3,0(a4)
1c004270:	4472                	lw	s0,28(sp)
1c004272:	44e2                	lw	s1,24(sp)
1c004274:	4952                	lw	s2,20(sp)
1c004276:	49c2                	lw	s3,16(sp)
1c004278:	4a32                	lw	s4,12(sp)
1c00427a:	4aa2                	lw	s5,8(sp)
1c00427c:	4b12                	lw	s6,4(sp)
1c00427e:	6105                	addi	sp,sp,32
1c004280:	8082                	ret
1c004282:	00007657          	pv.add.sci.b	a2,zero,0
1c004286:	8b32                	mv	s6,a2
1c004288:	4801                	li	a6,0
1c00428a:	bf11                	j	0x1c00419e
1c00428c:	78167657          	pv.extract.b	a2,a2,2
1c004290:	40c80633          	sub	a2,a6,a2
1c004294:	42b60533          	p.mac	a0,a2,a1
1c004298:	20b57b0b          	p.lw	s6,a1(a0!)
1c00429c:	20b5760b          	p.lw	a2,a1(a0!)
1c0042a0:	bdfd                	j	0x1c00419e
1c0042a2:	042e3763          	p.bneimm	t3,2,0x1c0042f0
1c0042a6:	00232283          	lw	t0,2(t1)
1c0042aa:	00732f83          	lw	t6,7(t1)
1c0042ae:	00c32f03          	lw	t5,12(t1)
1c0042b2:	01132383          	lw	t2,17(t1)
1c0042b6:	01632403          	lw	s0,22(t1)
1c0042ba:	b21072d7          	pv.insert.b	t0,zero,3
1c0042be:	b2107fd7          	pv.insert.b	t6,zero,3
1c0042c2:	b2107f57          	pv.insert.b	t5,zero,3
1c0042c6:	b21073d7          	pv.insert.b	t2,zero,3
1c0042ca:	b2107457          	pv.insert.b	s0,zero,3
1c0042ce:	bd7d                	j	0x1c00418c
1c0042d0:	00032283          	lw	t0,0(t1)
1c0042d4:	00532f83          	lw	t6,5(t1)
1c0042d8:	00a32f03          	lw	t5,10(t1)
1c0042dc:	00f32383          	lw	t2,15(t1)
1c0042e0:	01432403          	lw	s0,20(t1)
1c0042e4:	02a2                	slli	t0,t0,0x8
1c0042e6:	0fa2                	slli	t6,t6,0x8
1c0042e8:	0f22                	slli	t5,t5,0x8
1c0042ea:	03a2                	slli	t2,t2,0x8
1c0042ec:	0422                	slli	s0,s0,0x8
1c0042ee:	bd79                	j	0x1c00418c
1c0042f0:	00132283          	lw	t0,1(t1)
1c0042f4:	00632f83          	lw	t6,6(t1)
1c0042f8:	00b32f03          	lw	t5,11(t1)
1c0042fc:	01032383          	lw	t2,16(t1)
1c004300:	01532403          	lw	s0,21(t1)
1c004304:	b561                	j	0x1c00418c
1c004306:	00032283          	lw	t0,0(t1)
1c00430a:	00532f83          	lw	t6,5(t1)
1c00430e:	00a32f03          	lw	t5,10(t1)
1c004312:	00f32383          	lw	t2,15(t1)
1c004316:	01432403          	lw	s0,20(t1)
1c00431a:	bd8d                	j	0x1c00418c
1c00431c:	833e                	mv	t1,a5
1c00431e:	43170333          	p.mac	t1,a4,a7
1c004322:	711d                	addi	sp,sp,-96
1c004324:	caca                	sw	s2,84(sp)
1c004326:	c2da                	sw	s6,68(sp)
1c004328:	cea2                	sw	s0,92(sp)
1c00432a:	cca6                	sw	s1,88(sp)
1c00432c:	c8ce                	sw	s3,80(sp)
1c00432e:	c6d2                	sw	s4,76(sp)
1c004330:	c4d6                	sw	s5,72(sp)
1c004332:	c0de                	sw	s7,64(sp)
1c004334:	de62                	sw	s8,60(sp)
1c004336:	dc66                	sw	s9,56(sp)
1c004338:	da6a                	sw	s10,52(sp)
1c00433a:	d86e                	sw	s11,48(sp)
1c00433c:	00464f83          	lbu	t6,4(a2)
1c004340:	00964e83          	lbu	t4,9(a2)
1c004344:	d246                	sw	a7,36(sp)
1c004346:	00e64983          	lbu	s3,14(a2)
1c00434a:	5896                	lw	a7,100(sp)
1c00434c:	01364e03          	lbu	t3,19(a2)
1c004350:	932e                	add	t1,t1,a1
1c004352:	e1fe9ed7          	pv.packlo.b	t4,t4,t6
1c004356:	d01a                	sw	t1,32(sp)
1c004358:	7808f957          	pv.extract.b	s2,a7,0
1c00435c:	01864f03          	lbu	t5,24(a2)
1c004360:	7818f8d7          	pv.extract.b	a7,a7,2
1c004364:	5b26                	lw	s6,104(sp)
1c004366:	00062f83          	lw	t6,0(a2)
1c00436a:	00562283          	lw	t0,5(a2)
1c00436e:	00a62383          	lw	t2,10(a2)
1c004372:	00f62403          	lw	s0,15(a2)
1c004376:	4a44                	lw	s1,20(a2)
1c004378:	d93e1ed7          	pv.packhi.b	t4,t3,s3
1c00437c:	1507f263          	bleu	a6,a5,0x1c0044c0
1c004380:	5312                	lw	t1,36(sp)
1c004382:	1008d8b3          	p.exthz	a7,a7
1c004386:	00169593          	slli	a1,a3,0x1
1c00438a:	411308b3          	sub	a7,t1,a7
1c00438e:	02d88633          	mul	a2,a7,a3
1c004392:	00b68333          	add	t1,a3,a1
1c004396:	10095933          	p.exthz	s2,s2
1c00439a:	00458d13          	addi	s10,a1,4
1c00439e:	00430c93          	addi	s9,t1,4
1c0043a2:	00468c13          	addi	s8,a3,4
1c0043a6:	933e                	add	t1,t1,a5
1c0043a8:	010508b3          	add	a7,a0,a6
1c0043ac:	00d78e33          	add	t3,a5,a3
1c0043b0:	95be                	add	a1,a1,a5
1c0043b2:	41260633          	sub	a2,a2,s2
1c0043b6:	00c78933          	add	s2,a5,a2
1c0043ba:	9d3e                	add	s10,s10,a5
1c0043bc:	9cbe                	add	s9,s9,a5
1c0043be:	00478d93          	addi	s11,a5,4
1c0043c2:	9c3e                	add	s8,s8,a5
1c0043c4:	1c00a7b7          	lui	a5,0x1c00a
1c0043c8:	00c30833          	add	a6,t1,a2
1c0043cc:	992a                	add	s2,s2,a0
1c0043ce:	95b2                	add	a1,a1,a2
1c0043d0:	9d32                	add	s10,s10,a2
1c0043d2:	9cb2                	add	s9,s9,a2
1c0043d4:	9db2                	add	s11,s11,a2
1c0043d6:	9c32                	add	s8,s8,a2
1c0043d8:	e107ab83          	lw	s7,-496(a5) # 0x1c009e10
1c0043dc:	00ce07b3          	add	a5,t3,a2
1c0043e0:	9646                	add	a2,a2,a7
1c0043e2:	00269893          	slli	a7,a3,0x2
1c0043e6:	97aa                	add	a5,a5,a0
1c0043e8:	95aa                	add	a1,a1,a0
1c0043ea:	982a                	add	a6,a6,a0
1c0043ec:	00488313          	addi	t1,a7,4
1c0043f0:	41260633          	sub	a2,a2,s2
1c0043f4:	c64a                	sw	s2,12(sp)
1c0043f6:	d646                	sw	a7,44(sp)
1c0043f8:	ca3e                	sw	a5,20(sp)
1c0043fa:	c82e                	sw	a1,16(sp)
1c0043fc:	9d2a                	add	s10,s10,a0
1c0043fe:	cc42                	sw	a6,24(sp)
1c004400:	9caa                	add	s9,s9,a0
1c004402:	9daa                	add	s11,s11,a0
1c004404:	9c2a                	add	s8,s8,a0
1c004406:	d41a                	sw	t1,40(sp)
1c004408:	ce32                	sw	a2,28(sp)
1c00440a:	001d858b          	p.lb	a1,1(s11!)
1c00440e:	001c060b          	p.lb	a2,1(s8!)
1c004412:	001d088b          	p.lb	a7,1(s10!)
1c004416:	001c878b          	p.lb	a5,1(s9!)
1c00441a:	e0b61657          	pv.packlo.b	a2,a2,a1
1c00441e:	4352                	lw	t1,20(sp)
1c004420:	55b2                	lw	a1,44(sp)
1c004422:	4a32                	lw	s4,12(sp)
1c004424:	d9179657          	pv.packhi.b	a2,a5,a7
1c004428:	00032803          	lw	a6,0(t1)
1c00442c:	20ba7e0b          	p.lw	t3,a1(s4!)
1c004430:	4362                	lw	t1,24(sp)
1c004432:	45c2                	lw	a1,16(sp)
1c004434:	5792                	lw	a5,36(sp)
1c004436:	5886                	lw	a7,96(sp)
1c004438:	4188                	lw	a0,0(a1)
1c00443a:	00032583          	lw	a1,0(t1)
1c00443e:	0517fe63          	bleu	a7,a5,0x1c00449a
1c004442:	5322                	lw	t1,40(sp)
1c004444:	47b2                	lw	a5,12(sp)
1c004446:	5982                	lw	s3,32(sp)
1c004448:	00f30ab3          	add	s5,t1,a5
1c00444c:	5312                	lw	t1,36(sp)
1c00444e:	40688933          	sub	s2,a7,t1
1c004452:	023940fb          	lp.setup	x1,s2,0x1c004498
1c004456:	00098783          	lb	a5,0(s3)
1c00445a:	20da788b          	p.lw	a7,a3(s4!)
1c00445e:	00daf30b          	p.lb	t1,a3(s5!)
1c004462:	016797b3          	sll	a5,a5,s6
1c004466:	b9fe17d7          	pv.sdotsp.b	a5,t3,t6
1c00446a:	b85817d7          	pv.sdotsp.b	a5,a6,t0
1c00446e:	b87517d7          	pv.sdotsp.b	a5,a0,t2
1c004472:	b88597d7          	pv.sdotsp.b	a5,a1,s0
1c004476:	b89897d7          	pv.sdotsp.b	a5,a7,s1
1c00447a:	b9d617d7          	pv.sdotsp.b	a5,a2,t4
1c00447e:	b9e317d7          	pv.sdotsp.b	a5,t1,t5
1c004482:	4167d7b3          	sra	a5,a5,s6
1c004486:	148797b3          	p.clip	a5,a5,8
1c00448a:	00f9c72b          	p.sb	a5,a4(s3!)
1c00448e:	8e42                	mv	t3,a6
1c004490:	c9731657          	pv.shuffle2.b	a2,t1,s7
1c004494:	882a                	mv	a6,a0
1c004496:	852e                	mv	a0,a1
1c004498:	85c6                	mv	a1,a7
1c00449a:	5582                	lw	a1,32(sp)
1c00449c:	4632                	lw	a2,12(sp)
1c00449e:	47d2                	lw	a5,20(sp)
1c0044a0:	0585                	addi	a1,a1,1
1c0044a2:	48c2                	lw	a7,16(sp)
1c0044a4:	4362                	lw	t1,24(sp)
1c0044a6:	d02e                	sw	a1,32(sp)
1c0044a8:	45f2                	lw	a1,28(sp)
1c0044aa:	0605                	addi	a2,a2,1
1c0044ac:	0785                	addi	a5,a5,1
1c0044ae:	0885                	addi	a7,a7,1
1c0044b0:	0305                	addi	t1,t1,1
1c0044b2:	15fd                	addi	a1,a1,-1
1c0044b4:	c632                	sw	a2,12(sp)
1c0044b6:	ca3e                	sw	a5,20(sp)
1c0044b8:	c846                	sw	a7,16(sp)
1c0044ba:	cc1a                	sw	t1,24(sp)
1c0044bc:	ce2e                	sw	a1,28(sp)
1c0044be:	f5b1                	bnez	a1,0x1c00440a
1c0044c0:	4476                	lw	s0,92(sp)
1c0044c2:	44e6                	lw	s1,88(sp)
1c0044c4:	4956                	lw	s2,84(sp)
1c0044c6:	49c6                	lw	s3,80(sp)
1c0044c8:	4a36                	lw	s4,76(sp)
1c0044ca:	4aa6                	lw	s5,72(sp)
1c0044cc:	4b16                	lw	s6,68(sp)
1c0044ce:	4b86                	lw	s7,64(sp)
1c0044d0:	5c72                	lw	s8,60(sp)
1c0044d2:	5ce2                	lw	s9,56(sp)
1c0044d4:	5d52                	lw	s10,52(sp)
1c0044d6:	5dc2                	lw	s11,48(sp)
1c0044d8:	6125                	addi	sp,sp,96
1c0044da:	8082                	ret
1c0044dc:	7179                	addi	sp,sp,-48
1c0044de:	5342                	lw	t1,48(sp)
1c0044e0:	d622                	sw	s0,44(sp)
1c0044e2:	d426                	sw	s1,40(sp)
1c0044e4:	d24a                	sw	s2,36(sp)
1c0044e6:	d04e                	sw	s3,32(sp)
1c0044e8:	ce52                	sw	s4,28(sp)
1c0044ea:	cc56                	sw	s5,24(sp)
1c0044ec:	ca5a                	sw	s6,20(sp)
1c0044ee:	c85e                	sw	s7,16(sp)
1c0044f0:	c662                	sw	s8,12(sp)
1c0044f2:	c466                	sw	s9,8(sp)
1c0044f4:	40c68633          	sub	a2,a3,a2
1c0044f8:	9532                	add	a0,a0,a2
1c0044fa:	00a8af83          	lw	t6,10(a7)
1c0044fe:	00e88603          	lb	a2,14(a7)
1c004502:	14332e63          	p.beqimm	t1,3,0x1c00465e
1c004506:	4e0d                	li	t3,3
1c004508:	0e6e5563          	ble	t1,t3,0x1c0045f2
1c00450c:	10432663          	p.beqimm	t1,4,0x1c004618
1c004510:	12533563          	p.bneimm	t1,5,0x1c00463a
1c004514:	0048cf03          	lbu	t5,4(a7)
1c004518:	0098c303          	lbu	t1,9(a7)
1c00451c:	0008a383          	lw	t2,0(a7)
1c004520:	0058a403          	lw	s0,5(a7)
1c004524:	e1e31f57          	pv.packlo.b	t5,t1,t5
1c004528:	4881                	li	a7,0
1c00452a:	d8c89f57          	pv.packhi.b	t5,a7,a2
1c00452e:	000072d7          	pv.add.sci.b	t0,zero,0
1c004532:	862a                	mv	a2,a0
1c004534:	20b6730b          	p.lw	t1,a1(a2!)
1c004538:	00159493          	slli	s1,a1,0x1
1c00453c:	00b48bb3          	add	s7,s1,a1
1c004540:	00b608b3          	add	a7,a2,a1
1c004544:	0008ae83          	lw	t4,0(a7)
1c004548:	00062e03          	lw	t3,0(a2)
1c00454c:	20b8f883          	p.lw	a7,a1(a7)
1c004550:	00450913          	addi	s2,a0,4
1c004554:	08e6f363          	bleu	a4,a3,0x1c0045da
1c004558:	1c00a637          	lui	a2,0x1c00a
1c00455c:	e1062b03          	lw	s6,-496(a2) # 0x1c009e10
1c004560:	1c00a637          	lui	a2,0x1c00a
1c004564:	e1462a83          	lw	s5,-492(a2) # 0x1c009e14
1c004568:	1c00a637          	lui	a2,0x1c00a
1c00456c:	e1862a03          	lw	s4,-488(a2) # 0x1c009e18
1c004570:	1c00a637          	lui	a2,0x1c00a
1c004574:	e1c62983          	lw	s3,-484(a2) # 0x1c009e1c
1c004578:	0591                	addi	a1,a1,4
1c00457a:	0491                	addi	s1,s1,4
1c00457c:	0b91                	addi	s7,s7,4
1c00457e:	95aa                	add	a1,a1,a0
1c004580:	94aa                	add	s1,s1,a0
1c004582:	8f15                	sub	a4,a4,a3
1c004584:	955e                	add	a0,a0,s7
1c004586:	028740fb          	lp.setup	x1,a4,0x1c0045d6
1c00458a:	00080603          	lb	a2,0(a6)
1c00458e:	00190c8b          	p.lb	s9,1(s2!)
1c004592:	0015868b          	p.lb	a3,1(a1!)
1c004596:	00f61633          	sll	a2,a2,a5
1c00459a:	b8731657          	pv.sdotsp.b	a2,t1,t2
1c00459e:	00148c0b          	p.lb	s8,1(s1!)
1c0045a2:	00150b8b          	p.lb	s7,1(a0!)
1c0045a6:	b88e1657          	pv.sdotsp.b	a2,t3,s0
1c0045aa:	b9fe9657          	pv.sdotsp.b	a2,t4,t6
1c0045ae:	e19696d7          	pv.packlo.b	a3,a3,s9
1c0045b2:	d98b96d7          	pv.packhi.b	a3,s7,s8
1c0045b6:	b8589657          	pv.sdotsp.b	a2,a7,t0
1c0045ba:	b9e69657          	pv.sdotsp.b	a2,a3,t5
1c0045be:	40f65633          	sra	a2,a2,a5
1c0045c2:	14861633          	p.clip	a2,a2,8
1c0045c6:	00c800ab          	p.sb	a2,1(a6!)
1c0045ca:	c9669357          	pv.shuffle2.b	t1,a3,s6
1c0045ce:	c9569e57          	pv.shuffle2.b	t3,a3,s5
1c0045d2:	c9469ed7          	pv.shuffle2.b	t4,a3,s4
1c0045d6:	c93698d7          	pv.shuffle2.b	a7,a3,s3
1c0045da:	5432                	lw	s0,44(sp)
1c0045dc:	54a2                	lw	s1,40(sp)
1c0045de:	5912                	lw	s2,36(sp)
1c0045e0:	5982                	lw	s3,32(sp)
1c0045e2:	4a72                	lw	s4,28(sp)
1c0045e4:	4ae2                	lw	s5,24(sp)
1c0045e6:	4b52                	lw	s6,20(sp)
1c0045e8:	4bc2                	lw	s7,16(sp)
1c0045ea:	4c32                	lw	s8,12(sp)
1c0045ec:	4ca2                	lw	s9,8(sp)
1c0045ee:	6145                	addi	sp,sp,48
1c0045f0:	8082                	ret
1c0045f2:	04233463          	p.bneimm	t1,2,0x1c00463a
1c0045f6:	0138cf03          	lbu	t5,19(a7)
1c0045fa:	0188c303          	lbu	t1,24(a7)
1c0045fe:	83fe                	mv	t2,t6
1c004600:	e0cf1f57          	pv.packlo.b	t5,t5,a2
1c004604:	4601                	li	a2,0
1c004606:	00f8a403          	lw	s0,15(a7)
1c00460a:	d8661f57          	pv.packhi.b	t5,a2,t1
1c00460e:	0148af83          	lw	t6,20(a7)
1c004612:	000072d7          	pv.add.sci.b	t0,zero,0
1c004616:	bf31                	j	0x1c004532
1c004618:	0048ce03          	lbu	t3,4(a7)
1c00461c:	0098c303          	lbu	t1,9(a7)
1c004620:	4f01                	li	t5,0
1c004622:	e1ee1f57          	pv.packlo.b	t5,t3,t5
1c004626:	82fe                	mv	t0,t6
1c004628:	0008a403          	lw	s0,0(a7)
1c00462c:	d8661f57          	pv.packhi.b	t5,a2,t1
1c004630:	0058af83          	lw	t6,5(a7)
1c004634:	000073d7          	pv.add.sci.b	t2,zero,0
1c004638:	bded                	j	0x1c004532
1c00463a:	0098cf03          	lbu	t5,9(a7)
1c00463e:	0138ce03          	lbu	t3,19(a7)
1c004642:	0188c303          	lbu	t1,24(a7)
1c004646:	e1e61f57          	pv.packlo.b	t5,a2,t5
1c00464a:	847e                	mv	s0,t6
1c00464c:	0058a383          	lw	t2,5(a7)
1c004650:	0148a283          	lw	t0,20(a7)
1c004654:	d9c31f57          	pv.packhi.b	t5,t1,t3
1c004658:	00f8af83          	lw	t6,15(a7)
1c00465c:	bdd9                	j	0x1c004532
1c00465e:	0048cf03          	lbu	t5,4(a7)
1c004662:	0098ce03          	lbu	t3,9(a7)
1c004666:	0138c303          	lbu	t1,19(a7)
1c00466a:	0008a383          	lw	t2,0(a7)
1c00466e:	e1ee1f57          	pv.packlo.b	t5,t3,t5
1c004672:	0058a403          	lw	s0,5(a7)
1c004676:	00f8a283          	lw	t0,15(a7)
1c00467a:	d8c31f57          	pv.packhi.b	t5,t1,a2
1c00467e:	bd55                	j	0x1c004532
1c004680:	7159                	addi	sp,sp,-112
1c004682:	5376                	lw	t1,124(sp)
1c004684:	d4a2                	sw	s0,104(sp)
1c004686:	5466                	lw	s0,120(sp)
1c004688:	de6e                	sw	s11,60(sp)
1c00468a:	8dbe                	mv	s11,a5
1c00468c:	781377d7          	pv.extract.b	a5,t1,2
1c004690:	d2a6                	sw	s1,100(sp)
1c004692:	d0ca                	sw	s2,96(sp)
1c004694:	cece                	sw	s3,92(sp)
1c004696:	ccd2                	sw	s4,88(sp)
1c004698:	cad6                	sw	s5,84(sp)
1c00469a:	c8da                	sw	s6,80(sp)
1c00469c:	c6de                	sw	s7,76(sp)
1c00469e:	c4e2                	sw	s8,72(sp)
1c0046a0:	c2e6                	sw	s9,68(sp)
1c0046a2:	c0ea                	sw	s10,64(sp)
1c0046a4:	d686                	sw	ra,108(sp)
1c0046a6:	78047f57          	pv.extract.b	t5,s0,0
1c0046aa:	d63e                	sw	a5,44(sp)
1c0046ac:	892a                	mv	s2,a0
1c0046ae:	8aae                	mv	s5,a1
1c0046b0:	8bb2                	mv	s7,a2
1c0046b2:	84b6                	mv	s1,a3
1c0046b4:	89ba                	mv	s3,a4
1c0046b6:	8cc2                	mv	s9,a6
1c0046b8:	8d46                	mv	s10,a7
1c0046ba:	53c6                	lw	t2,112(sp)
1c0046bc:	5a56                	lw	s4,116(sp)
1c0046be:	4b0a                	lw	s6,128(sp)
1c0046c0:	78037c57          	pv.extract.b	s8,t1,0
1c0046c4:	7a0472d7          	pv.extract.b	t0,s0,1
1c0046c8:	78147ed7          	pv.extract.b	t4,s0,2
1c0046cc:	7a147fd7          	pv.extract.b	t6,s0,3
1c0046d0:	142f2463          	p.beqimm	t5,2,0x1c004818
1c0046d4:	1a1f2b63          	p.beqimm	t5,1,0x1c00488a
1c0046d8:	0222ab63          	p.beqimm	t0,2,0x1c00470e
1c0046dc:	1c12ae63          	p.beqimm	t0,1,0x1c0048b8
1c0046e0:	082eac63          	p.beqimm	t4,2,0x1c004778
1c0046e4:	181ea463          	p.beqimm	t4,1,0x1c00486c
1c0046e8:	0c2fa463          	p.beqimm	t6,2,0x1c0047b0
1c0046ec:	1e1faf63          	p.beqimm	t6,1,0x1c0048ea
1c0046f0:	50b6                	lw	ra,108(sp)
1c0046f2:	5426                	lw	s0,104(sp)
1c0046f4:	5496                	lw	s1,100(sp)
1c0046f6:	5906                	lw	s2,96(sp)
1c0046f8:	49f6                	lw	s3,92(sp)
1c0046fa:	4a66                	lw	s4,88(sp)
1c0046fc:	4ad6                	lw	s5,84(sp)
1c0046fe:	4b46                	lw	s6,80(sp)
1c004700:	4bb6                	lw	s7,76(sp)
1c004702:	4c26                	lw	s8,72(sp)
1c004704:	4c96                	lw	s9,68(sp)
1c004706:	4d06                	lw	s10,64(sp)
1c004708:	5df2                	lw	s11,60(sp)
1c00470a:	6165                	addi	sp,sp,112
1c00470c:	8082                	ret
1c00470e:	418c8f33          	sub	t5,s9,s8
1c004712:	9f4a                	add	t5,t5,s2
1c004714:	2019a263          	p.beqimm	s3,1,0x1c004918
1c004718:	ffe98293          	addi	t0,s3,-2
1c00471c:	92d6                	add	t0,t0,s5
1c00471e:	408d                	li	ra,3
1c004720:	881e                	mv	a6,t2
1c004722:	861a                	mv	a2,t1
1c004724:	857a                	mv	a0,t5
1c004726:	88d2                	mv	a7,s4
1c004728:	87ea                	mv	a5,s10
1c00472a:	874e                	mv	a4,s3
1c00472c:	86a2                	mv	a3,s0
1c00472e:	85a6                	mv	a1,s1
1c004730:	c606                	sw	ra,12(sp)
1c004732:	c216                	sw	t0,4(sp)
1c004734:	c45e                	sw	s7,8(sp)
1c004736:	c05a                	sw	s6,0(sp)
1c004738:	ce76                	sw	t4,28(sp)
1c00473a:	cc7e                	sw	t6,24(sp)
1c00473c:	d01a                	sw	t1,32(sp)
1c00473e:	d21e                	sw	t2,36(sp)
1c004740:	d47a                	sw	t5,40(sp)
1c004742:	9f7ff0ef          	jal	ra,0x1c004138
1c004746:	5392                	lw	t2,36(sp)
1c004748:	5302                	lw	t1,32(sp)
1c00474a:	5f22                	lw	t5,40(sp)
1c00474c:	fff98793          	addi	a5,s3,-1
1c004750:	97d6                	add	a5,a5,s5
1c004752:	4711                	li	a4,4
1c004754:	c63a                	sw	a4,12(sp)
1c004756:	c23e                	sw	a5,4(sp)
1c004758:	c45e                	sw	s7,8(sp)
1c00475a:	c05a                	sw	s6,0(sp)
1c00475c:	88d2                	mv	a7,s4
1c00475e:	881e                	mv	a6,t2
1c004760:	87ea                	mv	a5,s10
1c004762:	874e                	mv	a4,s3
1c004764:	86a2                	mv	a3,s0
1c004766:	861a                	mv	a2,t1
1c004768:	85a6                	mv	a1,s1
1c00476a:	857a                	mv	a0,t5
1c00476c:	9cdff0ef          	jal	ra,0x1c004138
1c004770:	4ef2                	lw	t4,28(sp)
1c004772:	4fe2                	lw	t6,24(sp)
1c004774:	f62eb8e3          	p.bneimm	t4,2,0x1c0046e4
1c004778:	88de                	mv	a7,s7
1c00477a:	01ba8833          	add	a6,s5,s11
1c00477e:	87da                	mv	a5,s6
1c004780:	8766                	mv	a4,s9
1c004782:	86ee                	mv	a3,s11
1c004784:	8662                	mv	a2,s8
1c004786:	85a6                	mv	a1,s1
1c004788:	854a                	mv	a0,s2
1c00478a:	c076                	sw	t4,0(sp)
1c00478c:	cc7e                	sw	t6,24(sp)
1c00478e:	33b9                	jal	0x1c0044dc
1c004790:	4785                	li	a5,1
1c004792:	01b98833          	add	a6,s3,s11
1c004796:	c03e                	sw	a5,0(sp)
1c004798:	88de                	mv	a7,s7
1c00479a:	9856                	add	a6,a6,s5
1c00479c:	87da                	mv	a5,s6
1c00479e:	8766                	mv	a4,s9
1c0047a0:	86ee                	mv	a3,s11
1c0047a2:	8662                	mv	a2,s8
1c0047a4:	85a6                	mv	a1,s1
1c0047a6:	854a                	mv	a0,s2
1c0047a8:	3b15                	jal	0x1c0044dc
1c0047aa:	4fe2                	lw	t6,24(sp)
1c0047ac:	f42fb0e3          	p.bneimm	t6,2,0x1c0046ec
1c0047b0:	03498433          	mul	s0,s3,s4
1c0047b4:	57b2                	lw	a5,44(sp)
1c0047b6:	40fa0a33          	sub	s4,s4,a5
1c0047ba:	01b40833          	add	a6,s0,s11
1c0047be:	429a0933          	p.mac	s2,s4,s1
1c0047c2:	9856                	add	a6,a6,s5
1c0047c4:	141d2663          	p.beqimm	s10,1,0x1c004910
1c0047c8:	430d                	li	t1,3
1c0047ca:	88de                	mv	a7,s7
1c0047cc:	87da                	mv	a5,s6
1c0047ce:	8766                	mv	a4,s9
1c0047d0:	86ee                	mv	a3,s11
1c0047d2:	8662                	mv	a2,s8
1c0047d4:	85a6                	mv	a1,s1
1c0047d6:	854a                	mv	a0,s2
1c0047d8:	c01a                	sw	t1,0(sp)
1c0047da:	d03ff0ef          	jal	ra,0x1c0044dc
1c0047de:	99a2                	add	s3,s3,s0
1c0047e0:	01b98833          	add	a6,s3,s11
1c0047e4:	4791                	li	a5,4
1c0047e6:	d8be                	sw	a5,112(sp)
1c0047e8:	88de                	mv	a7,s7
1c0047ea:	9856                	add	a6,a6,s5
1c0047ec:	87da                	mv	a5,s6
1c0047ee:	8766                	mv	a4,s9
1c0047f0:	86ee                	mv	a3,s11
1c0047f2:	8662                	mv	a2,s8
1c0047f4:	85a6                	mv	a1,s1
1c0047f6:	854a                	mv	a0,s2
1c0047f8:	5426                	lw	s0,104(sp)
1c0047fa:	50b6                	lw	ra,108(sp)
1c0047fc:	5496                	lw	s1,100(sp)
1c0047fe:	5906                	lw	s2,96(sp)
1c004800:	49f6                	lw	s3,92(sp)
1c004802:	4a66                	lw	s4,88(sp)
1c004804:	4ad6                	lw	s5,84(sp)
1c004806:	4b46                	lw	s6,80(sp)
1c004808:	4bb6                	lw	s7,76(sp)
1c00480a:	4c26                	lw	s8,72(sp)
1c00480c:	4c96                	lw	s9,68(sp)
1c00480e:	4d06                	lw	s10,64(sp)
1c004810:	5df2                	lw	s11,60(sp)
1c004812:	6165                	addi	sp,sp,112
1c004814:	cc9ff06f          	j	0x1c0044dc
1c004818:	881e                	mv	a6,t2
1c00481a:	861a                	mv	a2,t1
1c00481c:	88d2                	mv	a7,s4
1c00481e:	87ea                	mv	a5,s10
1c004820:	86a2                	mv	a3,s0
1c004822:	85a6                	mv	a1,s1
1c004824:	c67a                	sw	t5,12(sp)
1c004826:	c45e                	sw	s7,8(sp)
1c004828:	c256                	sw	s5,4(sp)
1c00482a:	c05a                	sw	s6,0(sp)
1c00482c:	d416                	sw	t0,40(sp)
1c00482e:	ce76                	sw	t4,28(sp)
1c004830:	cc7e                	sw	t6,24(sp)
1c004832:	d01a                	sw	t1,32(sp)
1c004834:	d21e                	sw	t2,36(sp)
1c004836:	903ff0ef          	jal	ra,0x1c004138
1c00483a:	5392                	lw	t2,36(sp)
1c00483c:	5302                	lw	t1,32(sp)
1c00483e:	001a8793          	addi	a5,s5,1
1c004842:	4705                	li	a4,1
1c004844:	c63a                	sw	a4,12(sp)
1c004846:	c23e                	sw	a5,4(sp)
1c004848:	881e                	mv	a6,t2
1c00484a:	861a                	mv	a2,t1
1c00484c:	c45e                	sw	s7,8(sp)
1c00484e:	c05a                	sw	s6,0(sp)
1c004850:	88d2                	mv	a7,s4
1c004852:	87ea                	mv	a5,s10
1c004854:	874e                	mv	a4,s3
1c004856:	86a2                	mv	a3,s0
1c004858:	85a6                	mv	a1,s1
1c00485a:	854a                	mv	a0,s2
1c00485c:	8ddff0ef          	jal	ra,0x1c004138
1c004860:	52a2                	lw	t0,40(sp)
1c004862:	5302                	lw	t1,32(sp)
1c004864:	5392                	lw	t2,36(sp)
1c004866:	4ef2                	lw	t4,28(sp)
1c004868:	4fe2                	lw	t6,24(sp)
1c00486a:	b5bd                	j	0x1c0046d8
1c00486c:	c076                	sw	t4,0(sp)
1c00486e:	88de                	mv	a7,s7
1c004870:	01ba8833          	add	a6,s5,s11
1c004874:	87da                	mv	a5,s6
1c004876:	8766                	mv	a4,s9
1c004878:	86ee                	mv	a3,s11
1c00487a:	8662                	mv	a2,s8
1c00487c:	85a6                	mv	a1,s1
1c00487e:	854a                	mv	a0,s2
1c004880:	cc7e                	sw	t6,24(sp)
1c004882:	c5bff0ef          	jal	ra,0x1c0044dc
1c004886:	4fe2                	lw	t6,24(sp)
1c004888:	b585                	j	0x1c0046e8
1c00488a:	c432                	sw	a2,8(sp)
1c00488c:	c22e                	sw	a1,4(sp)
1c00488e:	881e                	mv	a6,t2
1c004890:	861a                	mv	a2,t1
1c004892:	c67a                	sw	t5,12(sp)
1c004894:	c05a                	sw	s6,0(sp)
1c004896:	88d2                	mv	a7,s4
1c004898:	87ea                	mv	a5,s10
1c00489a:	86a2                	mv	a3,s0
1c00489c:	85a6                	mv	a1,s1
1c00489e:	d416                	sw	t0,40(sp)
1c0048a0:	d01a                	sw	t1,32(sp)
1c0048a2:	d21e                	sw	t2,36(sp)
1c0048a4:	ce76                	sw	t4,28(sp)
1c0048a6:	cc7e                	sw	t6,24(sp)
1c0048a8:	891ff0ef          	jal	ra,0x1c004138
1c0048ac:	4fe2                	lw	t6,24(sp)
1c0048ae:	4ef2                	lw	t4,28(sp)
1c0048b0:	5392                	lw	t2,36(sp)
1c0048b2:	5302                	lw	t1,32(sp)
1c0048b4:	52a2                	lw	t0,40(sp)
1c0048b6:	b50d                	j	0x1c0046d8
1c0048b8:	fff98793          	addi	a5,s3,-1
1c0048bc:	97d6                	add	a5,a5,s5
1c0048be:	470d                	li	a4,3
1c0048c0:	418c8533          	sub	a0,s9,s8
1c0048c4:	c63a                	sw	a4,12(sp)
1c0048c6:	c23e                	sw	a5,4(sp)
1c0048c8:	c45e                	sw	s7,8(sp)
1c0048ca:	c05a                	sw	s6,0(sp)
1c0048cc:	88d2                	mv	a7,s4
1c0048ce:	881e                	mv	a6,t2
1c0048d0:	87ea                	mv	a5,s10
1c0048d2:	874e                	mv	a4,s3
1c0048d4:	86a2                	mv	a3,s0
1c0048d6:	861a                	mv	a2,t1
1c0048d8:	85a6                	mv	a1,s1
1c0048da:	954a                	add	a0,a0,s2
1c0048dc:	ce76                	sw	t4,28(sp)
1c0048de:	cc7e                	sw	t6,24(sp)
1c0048e0:	859ff0ef          	jal	ra,0x1c004138
1c0048e4:	4fe2                	lw	t6,24(sp)
1c0048e6:	4ef2                	lw	t4,28(sp)
1c0048e8:	bbe5                	j	0x1c0046e0
1c0048ea:	886e                	mv	a6,s11
1c0048ec:	43498833          	p.mac	a6,s3,s4
1c0048f0:	57b2                	lw	a5,44(sp)
1c0048f2:	854a                	mv	a0,s2
1c0048f4:	88de                	mv	a7,s7
1c0048f6:	40fa0a33          	sub	s4,s4,a5
1c0048fa:	478d                	li	a5,3
1c0048fc:	d8be                	sw	a5,112(sp)
1c0048fe:	8766                	mv	a4,s9
1c004900:	87da                	mv	a5,s6
1c004902:	86ee                	mv	a3,s11
1c004904:	8662                	mv	a2,s8
1c004906:	85a6                	mv	a1,s1
1c004908:	429a0533          	p.mac	a0,s4,s1
1c00490c:	9856                	add	a6,a6,s5
1c00490e:	b5ed                	j	0x1c0047f8
1c004910:	4795                	li	a5,5
1c004912:	d8be                	sw	a5,112(sp)
1c004914:	88de                	mv	a7,s7
1c004916:	bdd9                	j	0x1c0047ec
1c004918:	4795                	li	a5,5
1c00491a:	c63e                	sw	a5,12(sp)
1c00491c:	c45e                	sw	s7,8(sp)
1c00491e:	c256                	sw	s5,4(sp)
1c004920:	c05a                	sw	s6,0(sp)
1c004922:	88d2                	mv	a7,s4
1c004924:	881e                	mv	a6,t2
1c004926:	87ea                	mv	a5,s10
1c004928:	4705                	li	a4,1
1c00492a:	86a2                	mv	a3,s0
1c00492c:	861a                	mv	a2,t1
1c00492e:	85a6                	mv	a1,s1
1c004930:	857a                	mv	a0,t5
1c004932:	ce76                	sw	t4,28(sp)
1c004934:	cc7e                	sw	t6,24(sp)
1c004936:	803ff0ef          	jal	ra,0x1c004138
1c00493a:	4ef2                	lw	t4,28(sp)
1c00493c:	4fe2                	lw	t6,24(sp)
1c00493e:	b34d                	j	0x1c0046e0
1c004940:	00e55703          	lhu	a4,14(a0)
1c004944:	f14026f3          	csrr	a3,mhartid
1c004948:	7175                	addi	sp,sp,-144
1c00494a:	f83737b3          	p.bclr	a5,a4,28,3
1c00494e:	00375613          	srli	a2,a4,0x3
1c004952:	00f037b3          	snez	a5,a5
1c004956:	97b2                	add	a5,a5,a2
1c004958:	c80696b3          	p.extractu	a3,a3,4,0
1c00495c:	02f686b3          	mul	a3,a3,a5
1c004960:	c326                	sw	s1,132(sp)
1c004962:	c14a                	sw	s2,128(sp)
1c004964:	dece                	sw	s3,124(sp)
1c004966:	dcd2                	sw	s4,120(sp)
1c004968:	dad6                	sw	s5,116(sp)
1c00496a:	d8da                	sw	s6,112(sp)
1c00496c:	d6de                	sw	s7,108(sp)
1c00496e:	d2e6                	sw	s9,100(sp)
1c004970:	ceee                	sw	s11,92(sp)
1c004972:	c706                	sw	ra,140(sp)
1c004974:	c522                	sw	s0,136(sp)
1c004976:	d4e2                	sw	s8,104(sp)
1c004978:	d0ea                	sw	s10,96(sp)
1c00497a:	5100                	lw	s0,32(a0)
1c00497c:	00a55983          	lhu	s3,10(a0)
1c004980:	d636                	sw	a3,44(sp)
1c004982:	78147ad7          	pv.extract.b	s5,s0,2
1c004986:	19f1                	addi	s3,s3,-4
1c004988:	99d6                	add	s3,s3,s5
1c00498a:	7a1476d7          	pv.extract.b	a3,s0,3
1c00498e:	96ce                	add	a3,a3,s3
1c004990:	00655903          	lhu	s2,6(a0)
1c004994:	0556cab3          	p.min	s5,a3,s5
1c004998:	d836                	sw	a3,48(sp)
1c00499a:	4114                	lw	a3,0(a0)
1c00499c:	5632                	lw	a2,44(sp)
1c00499e:	78047a57          	pv.extract.b	s4,s0,0
1c0049a2:	1971                	addi	s2,s2,-4
1c0049a4:	c2b6                	sw	a3,68(sp)
1c0049a6:	00455b83          	lhu	s7,4(a0)
1c0049aa:	00855c83          	lhu	s9,8(a0)
1c0049ae:	01051683          	lh	a3,16(a0)
1c0049b2:	01452d83          	lw	s11,20(a0)
1c0049b6:	4d04                	lw	s1,24(a0)
1c0049b8:	02454c03          	lbu	s8,36(a0)
1c0049bc:	00c55503          	lhu	a0,12(a0)
1c0049c0:	9952                	add	s2,s2,s4
1c0049c2:	7a047b57          	pv.extract.b	s6,s0,1
1c0049c6:	97b2                	add	a5,a5,a2
1c0049c8:	9b4a                	add	s6,s6,s2
1c0049ca:	04e7c7b3          	p.min	a5,a5,a4
1c0049ce:	054b4a33          	p.min	s4,s6,s4
1c0049d2:	dc3e                	sw	a5,56(sp)
1c0049d4:	da2a                	sw	a0,52(sp)
1c0049d6:	052a6933          	p.max	s2,s4,s2
1c0049da:	053ae9b3          	p.max	s3,s5,s3
1c0049de:	08f67363          	bleu	a5,a2,0x1c004a64
1c0049e2:	5742                	lw	a4,48(sp)
1c0049e4:	00151793          	slli	a5,a0,0x1
1c0049e8:	97aa                	add	a5,a5,a0
1c0049ea:	02eb0733          	mul	a4,s6,a4
1c0049ee:	078e                	slli	a5,a5,0x3
1c0049f0:	97aa                	add	a5,a5,a0
1c0049f2:	c6be                	sw	a5,76(sp)
1c0049f4:	c4a2                	sw	s0,72(sp)
1c0049f6:	de3a                	sw	a4,60(sp)
1c0049f8:	00169713          	slli	a4,a3,0x1
1c0049fc:	9736                	add	a4,a4,a3
1c0049fe:	070e                	slli	a4,a4,0x3
1c004a00:	57f2                	lw	a5,60(sp)
1c004a02:	9736                	add	a4,a4,a3
1c004a04:	42e60db3          	p.mac	s11,a2,a4
1c004a08:	c0ba                	sw	a4,64(sp)
1c004a0a:	039b8cb3          	mul	s9,s7,s9
1c004a0e:	d46e                	sw	s11,40(sp)
1c004a10:	42c784b3          	p.mac	s1,a5,a2
1c004a14:	56d2                	lw	a3,52(sp)
1c004a16:	ca9d                	beqz	a3,0x1c004a4c
1c004a18:	4626                	lw	a2,72(sp)
1c004a1a:	ea35                	bnez	a2,0x1c004a8e
1c004a1c:	56a2                	lw	a3,40(sp)
1c004a1e:	4736                	lw	a4,76(sp)
1c004a20:	4d16                	lw	s10,68(sp)
1c004a22:	5da2                	lw	s11,40(sp)
1c004a24:	96ba                	add	a3,a3,a4
1c004a26:	d236                	sw	a3,36(sp)
1c004a28:	866e                	mv	a2,s11
1c004a2a:	856a                	mv	a0,s10
1c004a2c:	87d2                	mv	a5,s4
1c004a2e:	c462                	sw	s8,8(sp)
1c004a30:	c222                	sw	s0,4(sp)
1c004a32:	c04e                	sw	s3,0(sp)
1c004a34:	88d6                	mv	a7,s5
1c004a36:	884a                	mv	a6,s2
1c004a38:	875a                	mv	a4,s6
1c004a3a:	86de                	mv	a3,s7
1c004a3c:	85a6                	mv	a1,s1
1c004a3e:	8dfff0ef          	jal	ra,0x1c00431c
1c004a42:	5792                	lw	a5,36(sp)
1c004a44:	0de5                	addi	s11,s11,25
1c004a46:	9d66                	add	s10,s10,s9
1c004a48:	fefd90e3          	bne	s11,a5,0x1c004a28
1c004a4c:	5622                	lw	a2,40(sp)
1c004a4e:	4686                	lw	a3,64(sp)
1c004a50:	57b2                	lw	a5,44(sp)
1c004a52:	5772                	lw	a4,60(sp)
1c004a54:	9636                	add	a2,a2,a3
1c004a56:	d432                	sw	a2,40(sp)
1c004a58:	5662                	lw	a2,56(sp)
1c004a5a:	0785                	addi	a5,a5,1
1c004a5c:	d63e                	sw	a5,44(sp)
1c004a5e:	94ba                	add	s1,s1,a4
1c004a60:	faf61ae3          	bne	a2,a5,0x1c004a14
1c004a64:	002047b7          	lui	a5,0x204
1c004a68:	20078793          	addi	a5,a5,512 # 0x204200
1c004a6c:	01c7e703          	p.elw	a4,28(a5)
1c004a70:	40ba                	lw	ra,140(sp)
1c004a72:	442a                	lw	s0,136(sp)
1c004a74:	449a                	lw	s1,132(sp)
1c004a76:	490a                	lw	s2,128(sp)
1c004a78:	59f6                	lw	s3,124(sp)
1c004a7a:	5a66                	lw	s4,120(sp)
1c004a7c:	5ad6                	lw	s5,116(sp)
1c004a7e:	5b46                	lw	s6,112(sp)
1c004a80:	5bb6                	lw	s7,108(sp)
1c004a82:	5c26                	lw	s8,104(sp)
1c004a84:	5c96                	lw	s9,100(sp)
1c004a86:	5d06                	lw	s10,96(sp)
1c004a88:	4df6                	lw	s11,92(sp)
1c004a8a:	6149                	addi	sp,sp,144
1c004a8c:	8082                	ret
1c004a8e:	5d22                	lw	s10,40(sp)
1c004a90:	5622                	lw	a2,40(sp)
1c004a92:	46b6                	lw	a3,76(sp)
1c004a94:	4d96                	lw	s11,68(sp)
1c004a96:	87ea                	mv	a5,s10
1c004a98:	9636                	add	a2,a2,a3
1c004a9a:	8d6e                	mv	s10,s11
1c004a9c:	d232                	sw	a2,36(sp)
1c004a9e:	8dbe                	mv	s11,a5
1c004aa0:	866e                	mv	a2,s11
1c004aa2:	856a                	mv	a0,s10
1c004aa4:	88d6                	mv	a7,s5
1c004aa6:	884a                	mv	a6,s2
1c004aa8:	87d2                	mv	a5,s4
1c004aaa:	875a                	mv	a4,s6
1c004aac:	86de                	mv	a3,s7
1c004aae:	85a6                	mv	a1,s1
1c004ab0:	c462                	sw	s8,8(sp)
1c004ab2:	c222                	sw	s0,4(sp)
1c004ab4:	c04e                	sw	s3,0(sp)
1c004ab6:	867ff0ef          	jal	ra,0x1c00431c
1c004aba:	58c2                	lw	a7,48(sp)
1c004abc:	866e                	mv	a2,s11
1c004abe:	856a                	mv	a0,s10
1c004ac0:	875a                	mv	a4,s6
1c004ac2:	c862                	sw	s8,16(sp)
1c004ac4:	c622                	sw	s0,12(sp)
1c004ac6:	c422                	sw	s0,8(sp)
1c004ac8:	c24e                	sw	s3,4(sp)
1c004aca:	c056                	sw	s5,0(sp)
1c004acc:	884a                	mv	a6,s2
1c004ace:	87d2                	mv	a5,s4
1c004ad0:	86de                	mv	a3,s7
1c004ad2:	85a6                	mv	a1,s1
1c004ad4:	badff0ef          	jal	ra,0x1c004680
1c004ad8:	5712                	lw	a4,36(sp)
1c004ada:	0de5                	addi	s11,s11,25
1c004adc:	9d66                	add	s10,s10,s9
1c004ade:	fced91e3          	bne	s11,a4,0x1c004aa0
1c004ae2:	b7ad                	j	0x1c004a4c
1c004ae4:	1101                	addi	sp,sp,-32
1c004ae6:	5e22                	lw	t3,40(sp)
1c004ae8:	ce22                	sw	s0,28(sp)
1c004aea:	cc26                	sw	s1,24(sp)
1c004aec:	ca4a                	sw	s2,20(sp)
1c004aee:	c84e                	sw	s3,16(sp)
1c004af0:	c652                	sw	s4,12(sp)
1c004af2:	c456                	sw	s5,8(sp)
1c004af4:	c25a                	sw	s6,4(sp)
1c004af6:	5312                	lw	t1,36(sp)
1c004af8:	7816fed7          	pv.extract.b	t4,a3,2
1c004afc:	183e2f63          	p.beqimm	t3,3,0x1c004c9a
1c004b00:	4f0d                	li	t5,3
1c004b02:	13cf5a63          	ble	t3,t5,0x1c004c36
1c004b06:	144e2f63          	p.beqimm	t3,4,0x1c004c64
1c004b0a:	165e3d63          	p.bneimm	t3,5,0x1c004c84
1c004b0e:	00032383          	lw	t2,0(t1)
1c004b12:	00532283          	lw	t0,5(t1)
1c004b16:	00a32f83          	lw	t6,10(t1)
1c004b1a:	00f32403          	lw	s0,15(t1)
1c004b1e:	01432483          	lw	s1,20(t1)
1c004b22:	b21073d7          	pv.insert.b	t2,zero,3
1c004b26:	b21072d7          	pv.insert.b	t0,zero,3
1c004b2a:	b2107fd7          	pv.insert.b	t6,zero,3
1c004b2e:	b2107457          	pv.insert.b	s0,zero,3
1c004b32:	b21074d7          	pv.insert.b	s1,zero,3
1c004b36:	0e2ea063          	p.beqimm	t4,2,0x1c004c16
1c004b3a:	0e0e8363          	beqz	t4,0x1c004c20
1c004b3e:	20b5760b          	p.lw	a2,a1(a0!)
1c004b42:	00007f57          	pv.add.sci.b	t5,zero,0
1c004b46:	4801                	li	a6,0
1c004b48:	00052303          	lw	t1,0(a0)
1c004b4c:	0a17ac63          	p.beqimm	a5,1,0x1c004c04
1c004b50:	02e80ab3          	mul	s5,a6,a4
1c004b54:	00b50933          	add	s2,a0,a1
1c004b58:	20b97e0b          	p.lw	t3,a1(s2!)
1c004b5c:	002a9793          	slli	a5,s5,0x2
1c004b60:	5a82                	lw	s5,32(sp)
1c004b62:	9abe                	add	s5,s5,a5
1c004b64:	05187563          	bleu	a7,a6,0x1c004bae
1c004b68:	00271b13          	slli	s6,a4,0x2
1c004b6c:	89c2                	mv	s3,a6
1c004b6e:	8556                	mv	a0,s5
1c004b70:	8a4a                	mv	s4,s2
1c004b72:	410888b3          	sub	a7,a7,a6
1c004b76:	0158c0fb          	lp.setup	x1,a7,0x1c004ba0
1c004b7a:	411c                	lw	a5,0(a0)
1c004b7c:	20ba7e8b          	p.lw	t4,a1(s4!)
1c004b80:	0985                	addi	s3,s3,1
1c004b82:	b87f17d7          	pv.sdotsp.b	a5,t5,t2
1c004b86:	b85617d7          	pv.sdotsp.b	a5,a2,t0
1c004b8a:	b9f317d7          	pv.sdotsp.b	a5,t1,t6
1c004b8e:	b88e17d7          	pv.sdotsp.b	a5,t3,s0
1c004b92:	b89e97d7          	pv.sdotsp.b	a5,t4,s1
1c004b96:	00f56b2b          	p.sw	a5,s6(a0!)
1c004b9a:	8f32                	mv	t5,a2
1c004b9c:	861a                	mv	a2,t1
1c004b9e:	8372                	mv	t1,t3
1c004ba0:	8e76                	mv	t3,t4
1c004ba2:	41098833          	sub	a6,s3,a6
1c004ba6:	42b80933          	p.mac	s2,a6,a1
1c004baa:	430b0ab3          	p.mac	s5,s6,a6
1c004bae:	7a16f6d7          	pv.extract.b	a3,a3,3
1c004bb2:	caa9                	beqz	a3,0x1c004c04
1c004bb4:	00259513          	slli	a0,a1,0x2
1c004bb8:	40a90933          	sub	s2,s2,a0
1c004bbc:	00b907b3          	add	a5,s2,a1
1c004bc0:	20b7f80b          	p.lw	a6,a1(a5!)
1c004bc4:	000aa603          	lw	a2,0(s5)
1c004bc8:	00092883          	lw	a7,0(s2)
1c004bcc:	4388                	lw	a0,0(a5)
1c004bce:	20b7f583          	p.lw	a1,a1(a5)
1c004bd2:	87b2                	mv	a5,a2
1c004bd4:	b87897d7          	pv.sdotsp.b	a5,a7,t2
1c004bd8:	b85817d7          	pv.sdotsp.b	a5,a6,t0
1c004bdc:	b9f517d7          	pv.sdotsp.b	a5,a0,t6
1c004be0:	b88597d7          	pv.sdotsp.b	a5,a1,s0
1c004be4:	00faa023          	sw	a5,0(s5)
1c004be8:	0026be63          	p.bneimm	a3,2,0x1c004c04
1c004bec:	070a                	slli	a4,a4,0x2
1c004bee:	9aba                	add	s5,s5,a4
1c004bf0:	000aa783          	lw	a5,0(s5)
1c004bf4:	b87817d7          	pv.sdotsp.b	a5,a6,t2
1c004bf8:	b85517d7          	pv.sdotsp.b	a5,a0,t0
1c004bfc:	b9f597d7          	pv.sdotsp.b	a5,a1,t6
1c004c00:	00faa023          	sw	a5,0(s5)
1c004c04:	4472                	lw	s0,28(sp)
1c004c06:	44e2                	lw	s1,24(sp)
1c004c08:	4952                	lw	s2,20(sp)
1c004c0a:	49c2                	lw	s3,16(sp)
1c004c0c:	4a32                	lw	s4,12(sp)
1c004c0e:	4aa2                	lw	s5,8(sp)
1c004c10:	4b12                	lw	s6,4(sp)
1c004c12:	6105                	addi	sp,sp,32
1c004c14:	8082                	ret
1c004c16:	00007657          	pv.add.sci.b	a2,zero,0
1c004c1a:	8f32                	mv	t5,a2
1c004c1c:	4801                	li	a6,0
1c004c1e:	b72d                	j	0x1c004b48
1c004c20:	78167657          	pv.extract.b	a2,a2,2
1c004c24:	40c80633          	sub	a2,a6,a2
1c004c28:	42b60533          	p.mac	a0,a2,a1
1c004c2c:	20b57f0b          	p.lw	t5,a1(a0!)
1c004c30:	20b5760b          	p.lw	a2,a1(a0!)
1c004c34:	bf11                	j	0x1c004b48
1c004c36:	042e3763          	p.bneimm	t3,2,0x1c004c84
1c004c3a:	00232383          	lw	t2,2(t1)
1c004c3e:	00732283          	lw	t0,7(t1)
1c004c42:	00c32f83          	lw	t6,12(t1)
1c004c46:	01132403          	lw	s0,17(t1)
1c004c4a:	01632483          	lw	s1,22(t1)
1c004c4e:	b21073d7          	pv.insert.b	t2,zero,3
1c004c52:	b21072d7          	pv.insert.b	t0,zero,3
1c004c56:	b2107fd7          	pv.insert.b	t6,zero,3
1c004c5a:	b2107457          	pv.insert.b	s0,zero,3
1c004c5e:	b21074d7          	pv.insert.b	s1,zero,3
1c004c62:	bdd1                	j	0x1c004b36
1c004c64:	00032383          	lw	t2,0(t1)
1c004c68:	00532283          	lw	t0,5(t1)
1c004c6c:	00a32f83          	lw	t6,10(t1)
1c004c70:	00f32403          	lw	s0,15(t1)
1c004c74:	01432483          	lw	s1,20(t1)
1c004c78:	03a2                	slli	t2,t2,0x8
1c004c7a:	02a2                	slli	t0,t0,0x8
1c004c7c:	0fa2                	slli	t6,t6,0x8
1c004c7e:	0422                	slli	s0,s0,0x8
1c004c80:	04a2                	slli	s1,s1,0x8
1c004c82:	bd55                	j	0x1c004b36
1c004c84:	00132383          	lw	t2,1(t1)
1c004c88:	00632283          	lw	t0,6(t1)
1c004c8c:	00b32f83          	lw	t6,11(t1)
1c004c90:	01032403          	lw	s0,16(t1)
1c004c94:	01532483          	lw	s1,21(t1)
1c004c98:	bd79                	j	0x1c004b36
1c004c9a:	00032383          	lw	t2,0(t1)
1c004c9e:	00532283          	lw	t0,5(t1)
1c004ca2:	00a32f83          	lw	t6,10(t1)
1c004ca6:	00f32403          	lw	s0,15(t1)
1c004caa:	01432483          	lw	s1,20(t1)
1c004cae:	b561                	j	0x1c004b36
1c004cb0:	833e                	mv	t1,a5
1c004cb2:	43170333          	p.mac	t1,a4,a7
1c004cb6:	715d                	addi	sp,sp,-80
1c004cb8:	c2ca                	sw	s2,68(sp)
1c004cba:	c6a2                	sw	s0,76(sp)
1c004cbc:	c4a6                	sw	s1,72(sp)
1c004cbe:	c0ce                	sw	s3,64(sp)
1c004cc0:	de52                	sw	s4,60(sp)
1c004cc2:	dc56                	sw	s5,56(sp)
1c004cc4:	da5a                	sw	s6,52(sp)
1c004cc6:	d85e                	sw	s7,48(sp)
1c004cc8:	d662                	sw	s8,44(sp)
1c004cca:	d466                	sw	s9,40(sp)
1c004ccc:	d26a                	sw	s10,36(sp)
1c004cce:	d06e                	sw	s11,32(sp)
1c004cd0:	00464f03          	lbu	t5,4(a2)
1c004cd4:	00964e03          	lbu	t3,9(a2)
1c004cd8:	ca46                	sw	a7,20(sp)
1c004cda:	00e64983          	lbu	s3,14(a2)
1c004cde:	48d6                	lw	a7,84(sp)
1c004ce0:	01364483          	lbu	s1,19(a2)
1c004ce4:	030a                	slli	t1,t1,0x2
1c004ce6:	932e                	add	t1,t1,a1
1c004ce8:	e1ee1e57          	pv.packlo.b	t3,t3,t5
1c004cec:	c81a                	sw	t1,16(sp)
1c004cee:	7808f957          	pv.extract.b	s2,a7,0
1c004cf2:	01864e83          	lbu	t4,24(a2)
1c004cf6:	7818f8d7          	pv.extract.b	a7,a7,2
1c004cfa:	00062f03          	lw	t5,0(a2)
1c004cfe:	00562f83          	lw	t6,5(a2)
1c004d02:	00a62283          	lw	t0,10(a2)
1c004d06:	00f62383          	lw	t2,15(a2)
1c004d0a:	4a40                	lw	s0,20(a2)
1c004d0c:	d9349e57          	pv.packhi.b	t3,s1,s3
1c004d10:	1307f963          	bleu	a6,a5,0x1c004e42
1c004d14:	4652                	lw	a2,20(sp)
1c004d16:	1008d8b3          	p.exthz	a7,a7
1c004d1a:	00169593          	slli	a1,a3,0x1
1c004d1e:	411608b3          	sub	a7,a2,a7
1c004d22:	02d88633          	mul	a2,a7,a3
1c004d26:	10095933          	p.exthz	s2,s2
1c004d2a:	00b688b3          	add	a7,a3,a1
1c004d2e:	00458c93          	addi	s9,a1,4
1c004d32:	00488c13          	addi	s8,a7,4
1c004d36:	00468b93          	addi	s7,a3,4
1c004d3a:	98be                	add	a7,a7,a5
1c004d3c:	00d784b3          	add	s1,a5,a3
1c004d40:	95be                	add	a1,a1,a5
1c004d42:	9cbe                	add	s9,s9,a5
1c004d44:	41260633          	sub	a2,a2,s2
1c004d48:	00c78b33          	add	s6,a5,a2
1c004d4c:	9c3e                	add	s8,s8,a5
1c004d4e:	00478d13          	addi	s10,a5,4
1c004d52:	9bbe                	add	s7,s7,a5
1c004d54:	1c00a7b7          	lui	a5,0x1c00a
1c004d58:	01050333          	add	t1,a0,a6
1c004d5c:	e107aa83          	lw	s5,-496(a5) # 0x1c009e10
1c004d60:	00c487b3          	add	a5,s1,a2
1c004d64:	00c88833          	add	a6,a7,a2
1c004d68:	95b2                	add	a1,a1,a2
1c004d6a:	9cb2                	add	s9,s9,a2
1c004d6c:	9c32                	add	s8,s8,a2
1c004d6e:	9d32                	add	s10,s10,a2
1c004d70:	9bb2                	add	s7,s7,a2
1c004d72:	00269893          	slli	a7,a3,0x2
1c004d76:	97aa                	add	a5,a5,a0
1c004d78:	9b2a                	add	s6,s6,a0
1c004d7a:	961a                	add	a2,a2,t1
1c004d7c:	c23e                	sw	a5,4(sp)
1c004d7e:	95aa                	add	a1,a1,a0
1c004d80:	982a                	add	a6,a6,a0
1c004d82:	00488793          	addi	a5,a7,4
1c004d86:	41660633          	sub	a2,a2,s6
1c004d8a:	ce46                	sw	a7,28(sp)
1c004d8c:	00271d93          	slli	s11,a4,0x2
1c004d90:	c02e                	sw	a1,0(sp)
1c004d92:	9caa                	add	s9,s9,a0
1c004d94:	c442                	sw	a6,8(sp)
1c004d96:	9c2a                	add	s8,s8,a0
1c004d98:	9d2a                	add	s10,s10,a0
1c004d9a:	9baa                	add	s7,s7,a0
1c004d9c:	cc3e                	sw	a5,24(sp)
1c004d9e:	c632                	sw	a2,12(sp)
1c004da0:	48f2                	lw	a7,28(sp)
1c004da2:	001d060b          	p.lb	a2,1(s10!)
1c004da6:	001b870b          	p.lb	a4,1(s7!)
1c004daa:	89da                	mv	s3,s6
1c004dac:	001c880b          	p.lb	a6,1(s9!)
1c004db0:	001c078b          	p.lb	a5,1(s8!)
1c004db4:	2119f30b          	p.lw	t1,a7(s3!)
1c004db8:	4882                	lw	a7,0(sp)
1c004dba:	e0c71757          	pv.packlo.b	a4,a4,a2
1c004dbe:	d9079757          	pv.packhi.b	a4,a5,a6
1c004dc2:	4612                	lw	a2,4(sp)
1c004dc4:	0008a583          	lw	a1,0(a7)
1c004dc8:	47d2                	lw	a5,20(sp)
1c004dca:	48a2                	lw	a7,8(sp)
1c004dcc:	4846                	lw	a6,80(sp)
1c004dce:	4208                	lw	a0,0(a2)
1c004dd0:	0008a603          	lw	a2,0(a7)
1c004dd4:	0507f663          	bleu	a6,a5,0x1c004e20
1c004dd8:	48e2                	lw	a7,24(sp)
1c004dda:	4942                	lw	s2,16(sp)
1c004ddc:	40f804b3          	sub	s1,a6,a5
1c004de0:	01688a33          	add	s4,a7,s6
1c004de4:	01d4c0fb          	lp.setup	x1,s1,0x1c004e1e
1c004de8:	00092783          	lw	a5,0(s2)
1c004dec:	20d9f80b          	p.lw	a6,a3(s3!)
1c004df0:	00da788b          	p.lb	a7,a3(s4!)
1c004df4:	b9e317d7          	pv.sdotsp.b	a5,t1,t5
1c004df8:	b9f517d7          	pv.sdotsp.b	a5,a0,t6
1c004dfc:	b85597d7          	pv.sdotsp.b	a5,a1,t0
1c004e00:	b87617d7          	pv.sdotsp.b	a5,a2,t2
1c004e04:	b88817d7          	pv.sdotsp.b	a5,a6,s0
1c004e08:	b9c717d7          	pv.sdotsp.b	a5,a4,t3
1c004e0c:	b9d897d7          	pv.sdotsp.b	a5,a7,t4
1c004e10:	00f96dab          	p.sw	a5,s11(s2!)
1c004e14:	832a                	mv	t1,a0
1c004e16:	c9589757          	pv.shuffle2.b	a4,a7,s5
1c004e1a:	852e                	mv	a0,a1
1c004e1c:	85b2                	mv	a1,a2
1c004e1e:	8642                	mv	a2,a6
1c004e20:	4642                	lw	a2,16(sp)
1c004e22:	4792                	lw	a5,4(sp)
1c004e24:	4802                	lw	a6,0(sp)
1c004e26:	0611                	addi	a2,a2,4
1c004e28:	48a2                	lw	a7,8(sp)
1c004e2a:	c832                	sw	a2,16(sp)
1c004e2c:	4632                	lw	a2,12(sp)
1c004e2e:	0785                	addi	a5,a5,1
1c004e30:	0805                	addi	a6,a6,1
1c004e32:	0885                	addi	a7,a7,1
1c004e34:	167d                	addi	a2,a2,-1
1c004e36:	c23e                	sw	a5,4(sp)
1c004e38:	c042                	sw	a6,0(sp)
1c004e3a:	c446                	sw	a7,8(sp)
1c004e3c:	c632                	sw	a2,12(sp)
1c004e3e:	0b05                	addi	s6,s6,1
1c004e40:	f225                	bnez	a2,0x1c004da0
1c004e42:	4436                	lw	s0,76(sp)
1c004e44:	44a6                	lw	s1,72(sp)
1c004e46:	4916                	lw	s2,68(sp)
1c004e48:	4986                	lw	s3,64(sp)
1c004e4a:	5a72                	lw	s4,60(sp)
1c004e4c:	5ae2                	lw	s5,56(sp)
1c004e4e:	5b52                	lw	s6,52(sp)
1c004e50:	5bc2                	lw	s7,48(sp)
1c004e52:	5c32                	lw	s8,44(sp)
1c004e54:	5ca2                	lw	s9,40(sp)
1c004e56:	5d12                	lw	s10,36(sp)
1c004e58:	5d82                	lw	s11,32(sp)
1c004e5a:	6161                	addi	sp,sp,80
1c004e5c:	8082                	ret
1c004e5e:	7179                	addi	sp,sp,-48
1c004e60:	d622                	sw	s0,44(sp)
1c004e62:	d426                	sw	s1,40(sp)
1c004e64:	d24a                	sw	s2,36(sp)
1c004e66:	d04e                	sw	s3,32(sp)
1c004e68:	ce52                	sw	s4,28(sp)
1c004e6a:	cc56                	sw	s5,24(sp)
1c004e6c:	ca5a                	sw	s6,20(sp)
1c004e6e:	c85e                	sw	s7,16(sp)
1c004e70:	c662                	sw	s8,12(sp)
1c004e72:	40c68633          	sub	a2,a3,a2
1c004e76:	9532                	add	a0,a0,a2
1c004e78:	00a82f03          	lw	t5,10(a6)
1c004e7c:	00e80603          	lb	a2,14(a6)
1c004e80:	1438ab63          	p.beqimm	a7,3,0x1c004fd6
1c004e84:	430d                	li	t1,3
1c004e86:	0f135263          	ble	a7,t1,0x1c004f6a
1c004e8a:	1048a363          	p.beqimm	a7,4,0x1c004f90
1c004e8e:	1258b263          	p.bneimm	a7,5,0x1c004fb2
1c004e92:	00484e83          	lbu	t4,4(a6)
1c004e96:	00984883          	lbu	a7,9(a6)
1c004e9a:	00082283          	lw	t0,0(a6)
1c004e9e:	00582383          	lw	t2,5(a6)
1c004ea2:	e1d89ed7          	pv.packlo.b	t4,a7,t4
1c004ea6:	4801                	li	a6,0
1c004ea8:	d8c81ed7          	pv.packhi.b	t4,a6,a2
1c004eac:	00007fd7          	pv.add.sci.b	t6,zero,0
1c004eb0:	832a                	mv	t1,a0
1c004eb2:	20b3788b          	p.lw	a7,a1(t1!)
1c004eb6:	00159613          	slli	a2,a1,0x1
1c004eba:	00b60433          	add	s0,a2,a1
1c004ebe:	00b30833          	add	a6,t1,a1
1c004ec2:	00082e03          	lw	t3,0(a6)
1c004ec6:	00032303          	lw	t1,0(t1)
1c004eca:	20b87803          	p.lw	a6,a1(a6)
1c004ece:	00450493          	addi	s1,a0,4
1c004ed2:	08e6f163          	bleu	a4,a3,0x1c004f54
1c004ed6:	1c00a937          	lui	s2,0x1c00a
1c004eda:	e1092a83          	lw	s5,-496(s2) # 0x1c009e10
1c004ede:	1c00a937          	lui	s2,0x1c00a
1c004ee2:	e1492a03          	lw	s4,-492(s2) # 0x1c009e14
1c004ee6:	1c00a937          	lui	s2,0x1c00a
1c004eea:	0711                	addi	a4,a4,4
1c004eec:	e1892983          	lw	s3,-488(s2) # 0x1c009e18
1c004ef0:	1c00a937          	lui	s2,0x1c00a
1c004ef4:	972e                	add	a4,a4,a1
1c004ef6:	e1c92903          	lw	s2,-484(s2) # 0x1c009e1c
1c004efa:	0591                	addi	a1,a1,4
1c004efc:	0611                	addi	a2,a2,4
1c004efe:	0411                	addi	s0,s0,4
1c004f00:	40d706b3          	sub	a3,a4,a3
1c004f04:	962a                	add	a2,a2,a0
1c004f06:	942a                	add	s0,s0,a0
1c004f08:	952e                	add	a0,a0,a1
1c004f0a:	40b685b3          	sub	a1,a3,a1
1c004f0e:	0215c0fb          	lp.setup	x1,a1,0x1c004f50
1c004f12:	4394                	lw	a3,0(a5)
1c004f14:	0014870b          	p.lb	a4,1(s1!)
1c004f18:	00150c0b          	p.lb	s8,1(a0!)
1c004f1c:	b85896d7          	pv.sdotsp.b	a3,a7,t0
1c004f20:	00160b8b          	p.lb	s7,1(a2!)
1c004f24:	00140b0b          	p.lb	s6,1(s0!)
1c004f28:	b87316d7          	pv.sdotsp.b	a3,t1,t2
1c004f2c:	b9ee16d7          	pv.sdotsp.b	a3,t3,t5
1c004f30:	e0ec1757          	pv.packlo.b	a4,s8,a4
1c004f34:	d97b1757          	pv.packhi.b	a4,s6,s7
1c004f38:	b9f816d7          	pv.sdotsp.b	a3,a6,t6
1c004f3c:	b9d716d7          	pv.sdotsp.b	a3,a4,t4
1c004f40:	00d7a22b          	p.sw	a3,4(a5!)
1c004f44:	c95718d7          	pv.shuffle2.b	a7,a4,s5
1c004f48:	c9471357          	pv.shuffle2.b	t1,a4,s4
1c004f4c:	c9371e57          	pv.shuffle2.b	t3,a4,s3
1c004f50:	c9271857          	pv.shuffle2.b	a6,a4,s2
1c004f54:	5432                	lw	s0,44(sp)
1c004f56:	54a2                	lw	s1,40(sp)
1c004f58:	5912                	lw	s2,36(sp)
1c004f5a:	5982                	lw	s3,32(sp)
1c004f5c:	4a72                	lw	s4,28(sp)
1c004f5e:	4ae2                	lw	s5,24(sp)
1c004f60:	4b52                	lw	s6,20(sp)
1c004f62:	4bc2                	lw	s7,16(sp)
1c004f64:	4c32                	lw	s8,12(sp)
1c004f66:	6145                	addi	sp,sp,48
1c004f68:	8082                	ret
1c004f6a:	0428b463          	p.bneimm	a7,2,0x1c004fb2
1c004f6e:	01384e83          	lbu	t4,19(a6)
1c004f72:	01884883          	lbu	a7,24(a6)
1c004f76:	82fa                	mv	t0,t5
1c004f78:	e0ce9ed7          	pv.packlo.b	t4,t4,a2
1c004f7c:	4601                	li	a2,0
1c004f7e:	00f82383          	lw	t2,15(a6)
1c004f82:	d9161ed7          	pv.packhi.b	t4,a2,a7
1c004f86:	01482f03          	lw	t5,20(a6)
1c004f8a:	00007fd7          	pv.add.sci.b	t6,zero,0
1c004f8e:	b70d                	j	0x1c004eb0
1c004f90:	00484303          	lbu	t1,4(a6)
1c004f94:	00984883          	lbu	a7,9(a6)
1c004f98:	4e81                	li	t4,0
1c004f9a:	e1d31ed7          	pv.packlo.b	t4,t1,t4
1c004f9e:	8ffa                	mv	t6,t5
1c004fa0:	00082383          	lw	t2,0(a6)
1c004fa4:	d9161ed7          	pv.packhi.b	t4,a2,a7
1c004fa8:	00582f03          	lw	t5,5(a6)
1c004fac:	000072d7          	pv.add.sci.b	t0,zero,0
1c004fb0:	b701                	j	0x1c004eb0
1c004fb2:	00984e83          	lbu	t4,9(a6)
1c004fb6:	01384303          	lbu	t1,19(a6)
1c004fba:	01884883          	lbu	a7,24(a6)
1c004fbe:	e1d61ed7          	pv.packlo.b	t4,a2,t4
1c004fc2:	83fa                	mv	t2,t5
1c004fc4:	00582283          	lw	t0,5(a6)
1c004fc8:	01482f83          	lw	t6,20(a6)
1c004fcc:	d8689ed7          	pv.packhi.b	t4,a7,t1
1c004fd0:	00f82f03          	lw	t5,15(a6)
1c004fd4:	bdf1                	j	0x1c004eb0
1c004fd6:	00484e83          	lbu	t4,4(a6)
1c004fda:	00984303          	lbu	t1,9(a6)
1c004fde:	01384883          	lbu	a7,19(a6)
1c004fe2:	00082283          	lw	t0,0(a6)
1c004fe6:	e1d31ed7          	pv.packlo.b	t4,t1,t4
1c004fea:	00582383          	lw	t2,5(a6)
1c004fee:	00f82f83          	lw	t6,15(a6)
1c004ff2:	d8c89ed7          	pv.packhi.b	t4,a7,a2
1c004ff6:	bd6d                	j	0x1c004eb0
1c004ff8:	7159                	addi	sp,sp,-112
1c004ffa:	d2a6                	sw	s1,100(sp)
1c004ffc:	54f6                	lw	s1,124(sp)
1c004ffe:	d4a2                	sw	s0,104(sp)
1c005000:	5466                	lw	s0,120(sp)
1c005002:	de6e                	sw	s11,60(sp)
1c005004:	8dbe                	mv	s11,a5
1c005006:	7814f7d7          	pv.extract.b	a5,s1,2
1c00500a:	d0ca                	sw	s2,96(sp)
1c00500c:	cece                	sw	s3,92(sp)
1c00500e:	ccd2                	sw	s4,88(sp)
1c005010:	cad6                	sw	s5,84(sp)
1c005012:	c8da                	sw	s6,80(sp)
1c005014:	c6de                	sw	s7,76(sp)
1c005016:	c4e2                	sw	s8,72(sp)
1c005018:	c2e6                	sw	s9,68(sp)
1c00501a:	c0ea                	sw	s10,64(sp)
1c00501c:	d686                	sw	ra,108(sp)
1c00501e:	78047e57          	pv.extract.b	t3,s0,0
1c005022:	d63e                	sw	a5,44(sp)
1c005024:	89aa                	mv	s3,a0
1c005026:	8aae                	mv	s5,a1
1c005028:	8b32                	mv	s6,a2
1c00502a:	8936                	mv	s2,a3
1c00502c:	8bba                	mv	s7,a4
1c00502e:	8cc2                	mv	s9,a6
1c005030:	8d46                	mv	s10,a7
1c005032:	52c6                	lw	t0,112(sp)
1c005034:	5a56                	lw	s4,116(sp)
1c005036:	7804fc57          	pv.extract.b	s8,s1,0
1c00503a:	7a047fd7          	pv.extract.b	t6,s0,1
1c00503e:	78147ed7          	pv.extract.b	t4,s0,2
1c005042:	7a147f57          	pv.extract.b	t5,s0,3
1c005046:	142e2363          	p.beqimm	t3,2,0x1c00518c
1c00504a:	1a1e2563          	p.beqimm	t3,1,0x1c0051f4
1c00504e:	022fab63          	p.beqimm	t6,2,0x1c005084
1c005052:	1c1fa563          	p.beqimm	t6,1,0x1c00521c
1c005056:	082eab63          	p.beqimm	t4,2,0x1c0050ec
1c00505a:	161eae63          	p.beqimm	t4,1,0x1c0051d6
1c00505e:	0c2f2463          	p.beqimm	t5,2,0x1c005126
1c005062:	1e1f2663          	p.beqimm	t5,1,0x1c00524e
1c005066:	50b6                	lw	ra,108(sp)
1c005068:	5426                	lw	s0,104(sp)
1c00506a:	5496                	lw	s1,100(sp)
1c00506c:	5906                	lw	s2,96(sp)
1c00506e:	49f6                	lw	s3,92(sp)
1c005070:	4a66                	lw	s4,88(sp)
1c005072:	4ad6                	lw	s5,84(sp)
1c005074:	4b46                	lw	s6,80(sp)
1c005076:	4bb6                	lw	s7,76(sp)
1c005078:	4c26                	lw	s8,72(sp)
1c00507a:	4c96                	lw	s9,68(sp)
1c00507c:	4d06                	lw	s10,64(sp)
1c00507e:	5df2                	lw	s11,60(sp)
1c005080:	6165                	addi	sp,sp,112
1c005082:	8082                	ret
1c005084:	418c8fb3          	sub	t6,s9,s8
1c005088:	9fce                	add	t6,t6,s3
1c00508a:	1e1ba463          	p.beqimm	s7,1,0x1c005272
1c00508e:	002b9e13          	slli	t3,s7,0x2
1c005092:	1e61                	addi	t3,t3,-8
1c005094:	01ca83b3          	add	t2,s5,t3
1c005098:	408d                	li	ra,3
1c00509a:	8816                	mv	a6,t0
1c00509c:	857e                	mv	a0,t6
1c00509e:	88d2                	mv	a7,s4
1c0050a0:	87ea                	mv	a5,s10
1c0050a2:	875e                	mv	a4,s7
1c0050a4:	86a2                	mv	a3,s0
1c0050a6:	8626                	mv	a2,s1
1c0050a8:	85ca                	mv	a1,s2
1c0050aa:	c406                	sw	ra,8(sp)
1c0050ac:	c01e                	sw	t2,0(sp)
1c0050ae:	c25a                	sw	s6,4(sp)
1c0050b0:	ce76                	sw	t4,28(sp)
1c0050b2:	cc7a                	sw	t5,24(sp)
1c0050b4:	d016                	sw	t0,32(sp)
1c0050b6:	d472                	sw	t3,40(sp)
1c0050b8:	d27e                	sw	t6,36(sp)
1c0050ba:	a2bff0ef          	jal	ra,0x1c004ae4
1c0050be:	5e22                	lw	t3,40(sp)
1c0050c0:	5282                	lw	t0,32(sp)
1c0050c2:	5f92                	lw	t6,36(sp)
1c0050c4:	0e11                	addi	t3,t3,4
1c0050c6:	9e56                	add	t3,t3,s5
1c0050c8:	4791                	li	a5,4
1c0050ca:	c43e                	sw	a5,8(sp)
1c0050cc:	c25a                	sw	s6,4(sp)
1c0050ce:	c072                	sw	t3,0(sp)
1c0050d0:	88d2                	mv	a7,s4
1c0050d2:	8816                	mv	a6,t0
1c0050d4:	87ea                	mv	a5,s10
1c0050d6:	875e                	mv	a4,s7
1c0050d8:	86a2                	mv	a3,s0
1c0050da:	8626                	mv	a2,s1
1c0050dc:	85ca                	mv	a1,s2
1c0050de:	857e                	mv	a0,t6
1c0050e0:	a05ff0ef          	jal	ra,0x1c004ae4
1c0050e4:	4ef2                	lw	t4,28(sp)
1c0050e6:	4f62                	lw	t5,24(sp)
1c0050e8:	f62eb9e3          	p.bneimm	t4,2,0x1c00505a
1c0050ec:	002d9793          	slli	a5,s11,0x2
1c0050f0:	885a                	mv	a6,s6
1c0050f2:	97d6                	add	a5,a5,s5
1c0050f4:	8766                	mv	a4,s9
1c0050f6:	86ee                	mv	a3,s11
1c0050f8:	8662                	mv	a2,s8
1c0050fa:	85ca                	mv	a1,s2
1c0050fc:	854e                	mv	a0,s3
1c0050fe:	4889                	li	a7,2
1c005100:	cc7a                	sw	t5,24(sp)
1c005102:	d5dff0ef          	jal	ra,0x1c004e5e
1c005106:	01bb87b3          	add	a5,s7,s11
1c00510a:	078a                	slli	a5,a5,0x2
1c00510c:	4885                	li	a7,1
1c00510e:	885a                	mv	a6,s6
1c005110:	97d6                	add	a5,a5,s5
1c005112:	8766                	mv	a4,s9
1c005114:	86ee                	mv	a3,s11
1c005116:	8662                	mv	a2,s8
1c005118:	85ca                	mv	a1,s2
1c00511a:	854e                	mv	a0,s3
1c00511c:	d43ff0ef          	jal	ra,0x1c004e5e
1c005120:	4f62                	lw	t5,24(sp)
1c005122:	f42f30e3          	p.bneimm	t5,2,0x1c005062
1c005126:	034b8433          	mul	s0,s7,s4
1c00512a:	5732                	lw	a4,44(sp)
1c00512c:	4895                	li	a7,5
1c00512e:	885a                	mv	a6,s6
1c005130:	40ea0a33          	sub	s4,s4,a4
1c005134:	01b407b3          	add	a5,s0,s11
1c005138:	078a                	slli	a5,a5,0x2
1c00513a:	432a09b3          	p.mac	s3,s4,s2
1c00513e:	97d6                	add	a5,a5,s5
1c005140:	021d2163          	p.beqimm	s10,1,0x1c005162
1c005144:	488d                	li	a7,3
1c005146:	8766                	mv	a4,s9
1c005148:	86ee                	mv	a3,s11
1c00514a:	8662                	mv	a2,s8
1c00514c:	85ca                	mv	a1,s2
1c00514e:	854e                	mv	a0,s3
1c005150:	d0fff0ef          	jal	ra,0x1c004e5e
1c005154:	008b87b3          	add	a5,s7,s0
1c005158:	97ee                	add	a5,a5,s11
1c00515a:	078a                	slli	a5,a5,0x2
1c00515c:	4891                	li	a7,4
1c00515e:	885a                	mv	a6,s6
1c005160:	97d6                	add	a5,a5,s5
1c005162:	8766                	mv	a4,s9
1c005164:	86ee                	mv	a3,s11
1c005166:	8662                	mv	a2,s8
1c005168:	85ca                	mv	a1,s2
1c00516a:	854e                	mv	a0,s3
1c00516c:	5426                	lw	s0,104(sp)
1c00516e:	50b6                	lw	ra,108(sp)
1c005170:	5496                	lw	s1,100(sp)
1c005172:	5906                	lw	s2,96(sp)
1c005174:	49f6                	lw	s3,92(sp)
1c005176:	4a66                	lw	s4,88(sp)
1c005178:	4ad6                	lw	s5,84(sp)
1c00517a:	4b46                	lw	s6,80(sp)
1c00517c:	4bb6                	lw	s7,76(sp)
1c00517e:	4c26                	lw	s8,72(sp)
1c005180:	4c96                	lw	s9,68(sp)
1c005182:	4d06                	lw	s10,64(sp)
1c005184:	5df2                	lw	s11,60(sp)
1c005186:	6165                	addi	sp,sp,112
1c005188:	cd7ff06f          	j	0x1c004e5e
1c00518c:	8816                	mv	a6,t0
1c00518e:	88d2                	mv	a7,s4
1c005190:	87ea                	mv	a5,s10
1c005192:	86a2                	mv	a3,s0
1c005194:	8626                	mv	a2,s1
1c005196:	85ca                	mv	a1,s2
1c005198:	c472                	sw	t3,8(sp)
1c00519a:	c25a                	sw	s6,4(sp)
1c00519c:	c056                	sw	s5,0(sp)
1c00519e:	ce76                	sw	t4,28(sp)
1c0051a0:	cc7a                	sw	t5,24(sp)
1c0051a2:	d27e                	sw	t6,36(sp)
1c0051a4:	d016                	sw	t0,32(sp)
1c0051a6:	93fff0ef          	jal	ra,0x1c004ae4
1c0051aa:	5282                	lw	t0,32(sp)
1c0051ac:	004a8793          	addi	a5,s5,4
1c0051b0:	4705                	li	a4,1
1c0051b2:	c43a                	sw	a4,8(sp)
1c0051b4:	c03e                	sw	a5,0(sp)
1c0051b6:	8816                	mv	a6,t0
1c0051b8:	c25a                	sw	s6,4(sp)
1c0051ba:	88d2                	mv	a7,s4
1c0051bc:	87ea                	mv	a5,s10
1c0051be:	875e                	mv	a4,s7
1c0051c0:	86a2                	mv	a3,s0
1c0051c2:	8626                	mv	a2,s1
1c0051c4:	85ca                	mv	a1,s2
1c0051c6:	854e                	mv	a0,s3
1c0051c8:	91dff0ef          	jal	ra,0x1c004ae4
1c0051cc:	5282                	lw	t0,32(sp)
1c0051ce:	4ef2                	lw	t4,28(sp)
1c0051d0:	4f62                	lw	t5,24(sp)
1c0051d2:	5f92                	lw	t6,36(sp)
1c0051d4:	bdad                	j	0x1c00504e
1c0051d6:	002d9793          	slli	a5,s11,0x2
1c0051da:	4885                	li	a7,1
1c0051dc:	885a                	mv	a6,s6
1c0051de:	97d6                	add	a5,a5,s5
1c0051e0:	8766                	mv	a4,s9
1c0051e2:	86ee                	mv	a3,s11
1c0051e4:	8662                	mv	a2,s8
1c0051e6:	85ca                	mv	a1,s2
1c0051e8:	854e                	mv	a0,s3
1c0051ea:	cc7a                	sw	t5,24(sp)
1c0051ec:	c73ff0ef          	jal	ra,0x1c004e5e
1c0051f0:	4f62                	lw	t5,24(sp)
1c0051f2:	b5b5                	j	0x1c00505e
1c0051f4:	c232                	sw	a2,4(sp)
1c0051f6:	c02e                	sw	a1,0(sp)
1c0051f8:	8816                	mv	a6,t0
1c0051fa:	c472                	sw	t3,8(sp)
1c0051fc:	88d2                	mv	a7,s4
1c0051fe:	87ea                	mv	a5,s10
1c005200:	86a2                	mv	a3,s0
1c005202:	8626                	mv	a2,s1
1c005204:	85ca                	mv	a1,s2
1c005206:	d016                	sw	t0,32(sp)
1c005208:	ce76                	sw	t4,28(sp)
1c00520a:	cc7a                	sw	t5,24(sp)
1c00520c:	d27e                	sw	t6,36(sp)
1c00520e:	8d7ff0ef          	jal	ra,0x1c004ae4
1c005212:	5f92                	lw	t6,36(sp)
1c005214:	4f62                	lw	t5,24(sp)
1c005216:	4ef2                	lw	t4,28(sp)
1c005218:	5282                	lw	t0,32(sp)
1c00521a:	bd15                	j	0x1c00504e
1c00521c:	002b9793          	slli	a5,s7,0x2
1c005220:	17f1                	addi	a5,a5,-4
1c005222:	97d6                	add	a5,a5,s5
1c005224:	470d                	li	a4,3
1c005226:	418c8533          	sub	a0,s9,s8
1c00522a:	c43a                	sw	a4,8(sp)
1c00522c:	c03e                	sw	a5,0(sp)
1c00522e:	c25a                	sw	s6,4(sp)
1c005230:	88d2                	mv	a7,s4
1c005232:	8816                	mv	a6,t0
1c005234:	87ea                	mv	a5,s10
1c005236:	875e                	mv	a4,s7
1c005238:	86a2                	mv	a3,s0
1c00523a:	8626                	mv	a2,s1
1c00523c:	85ca                	mv	a1,s2
1c00523e:	954e                	add	a0,a0,s3
1c005240:	ce76                	sw	t4,28(sp)
1c005242:	cc7a                	sw	t5,24(sp)
1c005244:	8a1ff0ef          	jal	ra,0x1c004ae4
1c005248:	4f62                	lw	t5,24(sp)
1c00524a:	4ef2                	lw	t4,28(sp)
1c00524c:	b529                	j	0x1c005056
1c00524e:	87ee                	mv	a5,s11
1c005250:	434b87b3          	p.mac	a5,s7,s4
1c005254:	5732                	lw	a4,44(sp)
1c005256:	854e                	mv	a0,s3
1c005258:	488d                	li	a7,3
1c00525a:	40ea0a33          	sub	s4,s4,a4
1c00525e:	885a                	mv	a6,s6
1c005260:	8766                	mv	a4,s9
1c005262:	86ee                	mv	a3,s11
1c005264:	8662                	mv	a2,s8
1c005266:	85ca                	mv	a1,s2
1c005268:	078a                	slli	a5,a5,0x2
1c00526a:	432a0533          	p.mac	a0,s4,s2
1c00526e:	97d6                	add	a5,a5,s5
1c005270:	bdf5                	j	0x1c00516c
1c005272:	4795                	li	a5,5
1c005274:	c43e                	sw	a5,8(sp)
1c005276:	c25a                	sw	s6,4(sp)
1c005278:	c056                	sw	s5,0(sp)
1c00527a:	88d2                	mv	a7,s4
1c00527c:	8816                	mv	a6,t0
1c00527e:	87ea                	mv	a5,s10
1c005280:	4705                	li	a4,1
1c005282:	86a2                	mv	a3,s0
1c005284:	8626                	mv	a2,s1
1c005286:	85ca                	mv	a1,s2
1c005288:	857e                	mv	a0,t6
1c00528a:	ce76                	sw	t4,28(sp)
1c00528c:	cc7a                	sw	t5,24(sp)
1c00528e:	857ff0ef          	jal	ra,0x1c004ae4
1c005292:	4ef2                	lw	t4,28(sp)
1c005294:	4f62                	lw	t5,24(sp)
1c005296:	b3c1                	j	0x1c005056
1c005298:	00e55703          	lhu	a4,14(a0)
1c00529c:	7119                	addi	sp,sp,-128
1c00529e:	cae6                	sw	s9,84(sp)
1c0052a0:	f1402cf3          	csrr	s9,mhartid
1c0052a4:	f83737b3          	p.bclr	a5,a4,28,3
1c0052a8:	00375693          	srli	a3,a4,0x3
1c0052ac:	00f037b3          	snez	a5,a5
1c0052b0:	97b6                	add	a5,a5,a3
1c0052b2:	c80c9cb3          	p.extractu	s9,s9,4,0
1c0052b6:	02fc8cb3          	mul	s9,s9,a5
1c0052ba:	daa6                	sw	s1,116(sp)
1c0052bc:	d8ca                	sw	s2,112(sp)
1c0052be:	d6ce                	sw	s3,108(sp)
1c0052c0:	d4d2                	sw	s4,104(sp)
1c0052c2:	d2d6                	sw	s5,100(sp)
1c0052c4:	d0da                	sw	s6,96(sp)
1c0052c6:	cede                	sw	s7,92(sp)
1c0052c8:	cce2                	sw	s8,88(sp)
1c0052ca:	c6ee                	sw	s11,76(sp)
1c0052cc:	de86                	sw	ra,124(sp)
1c0052ce:	dca2                	sw	s0,120(sp)
1c0052d0:	c8ea                	sw	s10,80(sp)
1c0052d2:	4d40                	lw	s0,28(a0)
1c0052d4:	00a55983          	lhu	s3,10(a0)
1c0052d8:	00655903          	lhu	s2,6(a0)
1c0052dc:	78147ad7          	pv.extract.b	s5,s0,2
1c0052e0:	19f1                	addi	s3,s3,-4
1c0052e2:	99d6                	add	s3,s3,s5
1c0052e4:	7a1476d7          	pv.extract.b	a3,s0,3
1c0052e8:	96ce                	add	a3,a3,s3
1c0052ea:	78047a57          	pv.extract.b	s4,s0,0
1c0052ee:	0556cab3          	p.min	s5,a3,s5
1c0052f2:	410c                	lw	a1,0(a0)
1c0052f4:	1971                	addi	s2,s2,-4
1c0052f6:	d036                	sw	a3,32(sp)
1c0052f8:	00455b83          	lhu	s7,4(a0)
1c0052fc:	00855c03          	lhu	s8,8(a0)
1c005300:	01051683          	lh	a3,16(a0)
1c005304:	01452d83          	lw	s11,20(a0)
1c005308:	4d04                	lw	s1,24(a0)
1c00530a:	00c55503          	lhu	a0,12(a0)
1c00530e:	9952                	add	s2,s2,s4
1c005310:	7a047b57          	pv.extract.b	s6,s0,1
1c005314:	97e6                	add	a5,a5,s9
1c005316:	9b4a                	add	s6,s6,s2
1c005318:	04e7c7b3          	p.min	a5,a5,a4
1c00531c:	054b4a33          	p.min	s4,s6,s4
1c005320:	ce66                	sw	s9,28(sp)
1c005322:	d43e                	sw	a5,40(sp)
1c005324:	da2e                	sw	a1,52(sp)
1c005326:	d22a                	sw	a0,36(sp)
1c005328:	052a6933          	p.max	s2,s4,s2
1c00532c:	053ae9b3          	p.max	s3,s5,s3
1c005330:	08fcf263          	bleu	a5,s9,0x1c0053b4
1c005334:	5702                	lw	a4,32(sp)
1c005336:	00151793          	slli	a5,a0,0x1
1c00533a:	97aa                	add	a5,a5,a0
1c00533c:	02eb0633          	mul	a2,s6,a4
1c005340:	00169713          	slli	a4,a3,0x1
1c005344:	9736                	add	a4,a4,a3
1c005346:	070e                	slli	a4,a4,0x3
1c005348:	078e                	slli	a5,a5,0x3
1c00534a:	9736                	add	a4,a4,a3
1c00534c:	97aa                	add	a5,a5,a0
1c00534e:	de3e                	sw	a5,60(sp)
1c005350:	d83a                	sw	a4,48(sp)
1c005352:	dc22                	sw	s0,56(sp)
1c005354:	00261793          	slli	a5,a2,0x2
1c005358:	42ec8db3          	p.mac	s11,s9,a4
1c00535c:	d63e                	sw	a5,44(sp)
1c00535e:	038b8c33          	mul	s8,s7,s8
1c005362:	cc6e                	sw	s11,24(sp)
1c005364:	42fc84b3          	p.mac	s1,s9,a5
1c005368:	5792                	lw	a5,36(sp)
1c00536a:	cb8d                	beqz	a5,0x1c00539c
1c00536c:	57e2                	lw	a5,56(sp)
1c00536e:	eba5                	bnez	a5,0x1c0053de
1c005370:	45e2                	lw	a1,24(sp)
1c005372:	5672                	lw	a2,60(sp)
1c005374:	5d52                	lw	s10,52(sp)
1c005376:	8dae                	mv	s11,a1
1c005378:	00c58cb3          	add	s9,a1,a2
1c00537c:	866e                	mv	a2,s11
1c00537e:	856a                	mv	a0,s10
1c005380:	c222                	sw	s0,4(sp)
1c005382:	c04e                	sw	s3,0(sp)
1c005384:	88d6                	mv	a7,s5
1c005386:	884a                	mv	a6,s2
1c005388:	87d2                	mv	a5,s4
1c00538a:	875a                	mv	a4,s6
1c00538c:	86de                	mv	a3,s7
1c00538e:	85a6                	mv	a1,s1
1c005390:	0de5                	addi	s11,s11,25
1c005392:	91fff0ef          	jal	ra,0x1c004cb0
1c005396:	9d62                	add	s10,s10,s8
1c005398:	ff9d92e3          	bne	s11,s9,0x1c00537c
1c00539c:	47f2                	lw	a5,28(sp)
1c00539e:	45e2                	lw	a1,24(sp)
1c0053a0:	5642                	lw	a2,48(sp)
1c0053a2:	56b2                	lw	a3,44(sp)
1c0053a4:	5722                	lw	a4,40(sp)
1c0053a6:	0785                	addi	a5,a5,1
1c0053a8:	95b2                	add	a1,a1,a2
1c0053aa:	ce3e                	sw	a5,28(sp)
1c0053ac:	cc2e                	sw	a1,24(sp)
1c0053ae:	94b6                	add	s1,s1,a3
1c0053b0:	faf71ce3          	bne	a4,a5,0x1c005368
1c0053b4:	002047b7          	lui	a5,0x204
1c0053b8:	20078793          	addi	a5,a5,512 # 0x204200
1c0053bc:	01c7e703          	p.elw	a4,28(a5)
1c0053c0:	50f6                	lw	ra,124(sp)
1c0053c2:	5466                	lw	s0,120(sp)
1c0053c4:	54d6                	lw	s1,116(sp)
1c0053c6:	5946                	lw	s2,112(sp)
1c0053c8:	59b6                	lw	s3,108(sp)
1c0053ca:	5a26                	lw	s4,104(sp)
1c0053cc:	5a96                	lw	s5,100(sp)
1c0053ce:	5b06                	lw	s6,96(sp)
1c0053d0:	4bf6                	lw	s7,92(sp)
1c0053d2:	4c66                	lw	s8,88(sp)
1c0053d4:	4cd6                	lw	s9,84(sp)
1c0053d6:	4d46                	lw	s10,80(sp)
1c0053d8:	4db6                	lw	s11,76(sp)
1c0053da:	6109                	addi	sp,sp,128
1c0053dc:	8082                	ret
1c0053de:	46e2                	lw	a3,24(sp)
1c0053e0:	5772                	lw	a4,60(sp)
1c0053e2:	5dd2                	lw	s11,52(sp)
1c0053e4:	8cb6                	mv	s9,a3
1c0053e6:	00e68d33          	add	s10,a3,a4
1c0053ea:	87ea                	mv	a5,s10
1c0053ec:	8d6e                	mv	s10,s11
1c0053ee:	8dbe                	mv	s11,a5
1c0053f0:	8666                	mv	a2,s9
1c0053f2:	856a                	mv	a0,s10
1c0053f4:	88d6                	mv	a7,s5
1c0053f6:	884a                	mv	a6,s2
1c0053f8:	87d2                	mv	a5,s4
1c0053fa:	875a                	mv	a4,s6
1c0053fc:	86de                	mv	a3,s7
1c0053fe:	85a6                	mv	a1,s1
1c005400:	c222                	sw	s0,4(sp)
1c005402:	c04e                	sw	s3,0(sp)
1c005404:	8adff0ef          	jal	ra,0x1c004cb0
1c005408:	5882                	lw	a7,32(sp)
1c00540a:	8666                	mv	a2,s9
1c00540c:	856a                	mv	a0,s10
1c00540e:	c622                	sw	s0,12(sp)
1c005410:	c422                	sw	s0,8(sp)
1c005412:	c24e                	sw	s3,4(sp)
1c005414:	c056                	sw	s5,0(sp)
1c005416:	884a                	mv	a6,s2
1c005418:	87d2                	mv	a5,s4
1c00541a:	875a                	mv	a4,s6
1c00541c:	86de                	mv	a3,s7
1c00541e:	85a6                	mv	a1,s1
1c005420:	0ce5                	addi	s9,s9,25
1c005422:	bd7ff0ef          	jal	ra,0x1c004ff8
1c005426:	9d62                	add	s10,s10,s8
1c005428:	fdbc94e3          	bne	s9,s11,0x1c0053f0
1c00542c:	bf85                	j	0x1c00539c
1c00542e:	715d                	addi	sp,sp,-80
1c005430:	4366                	lw	t1,88(sp)
1c005432:	d85e                	sw	s7,48(sp)
1c005434:	4bf6                	lw	s7,92(sp)
1c005436:	78037e57          	pv.extract.b	t3,t1,0
1c00543a:	c472                	sw	t3,8(sp)
1c00543c:	ce32                	sw	a2,28(sp)
1c00543e:	781372d7          	pv.extract.b	t0,t1,2
1c005442:	7a037657          	pv.extract.b	a2,t1,1
1c005446:	7a137357          	pv.extract.b	t1,t1,3
1c00544a:	ca1a                	sw	t1,20(sp)
1c00544c:	4322                	lw	t1,8(sp)
1c00544e:	780bfe57          	pv.extract.b	t3,s7,0
1c005452:	c6a2                	sw	s0,76(sp)
1c005454:	c4a6                	sw	s1,72(sp)
1c005456:	c2ca                	sw	s2,68(sp)
1c005458:	c0ce                	sw	s3,64(sp)
1c00545a:	de52                	sw	s4,60(sp)
1c00545c:	dc56                	sw	s5,56(sp)
1c00545e:	da5a                	sw	s6,52(sp)
1c005460:	d662                	sw	s8,44(sp)
1c005462:	d466                	sw	s9,40(sp)
1c005464:	d26a                	sw	s10,36(sp)
1c005466:	d06e                	sw	s11,32(sp)
1c005468:	c632                	sw	a2,12(sp)
1c00546a:	c872                	sw	t3,16(sp)
1c00546c:	4446                	lw	s0,80(sp)
1c00546e:	5486                	lw	s1,96(sp)
1c005470:	781bfbd7          	pv.extract.b	s7,s7,2
1c005474:	04030563          	beqz	t1,0x1c0054be
1c005478:	4656                	lw	a2,84(sp)
1c00547a:	04c47263          	bleu	a2,s0,0x1c0054be
1c00547e:	00141613          	slli	a2,s0,0x1
1c005482:	41760333          	sub	t1,a2,s7
1c005486:	861a                	mv	a2,t1
1c005488:	8f2a                	mv	t5,a0
1c00548a:	0305                	addi	t1,t1,1
1c00548c:	8eb6                	mv	t4,a3
1c00548e:	42b30f33          	p.mac	t5,t1,a1
1c005492:	8faa                	mv	t6,a0
1c005494:	00159393          	slli	t2,a1,0x1
1c005498:	42e40eb3          	p.mac	t4,s0,a4
1c00549c:	42b60fb3          	p.mac	t6,a2,a1
1c0054a0:	4656                	lw	a2,84(sp)
1c0054a2:	40860e33          	sub	t3,a2,s0
1c0054a6:	00ae40fb          	lp.setup	x1,t3,0x1c0054ba
1c0054aa:	007ff60b          	p.lb	a2,t2(t6!)
1c0054ae:	007f730b          	p.lb	t1,t2(t5!)
1c0054b2:	04066633          	p.max	a2,a2,zero
1c0054b6:	04666633          	p.max	a2,a2,t1
1c0054ba:	00cec72b          	p.sb	a2,a4(t4!)
1c0054be:	0a028163          	beqz	t0,0x1c005560
1c0054c2:	4e42                	lw	t3,16(sp)
1c0054c4:	00179f93          	slli	t6,a5,0x1
1c0054c8:	40f802b3          	sub	t0,a6,a5
1c0054cc:	41cf8fb3          	sub	t6,t6,t3
1c0054d0:	0012d393          	srli	t2,t0,0x1
1c0054d4:	9faa                	add	t6,t6,a0
1c0054d6:	04038463          	beqz	t2,0x1c00551e
1c0054da:	00239313          	slli	t1,t2,0x2
1c0054de:	1371                	addi	t1,t1,-4
1c0054e0:	00178e13          	addi	t3,a5,1
1c0054e4:	00235313          	srli	t1,t1,0x2
1c0054e8:	8f7e                	mv	t5,t6
1c0054ea:	00f68eb3          	add	t4,a3,a5
1c0054ee:	9e36                	add	t3,t3,a3
1c0054f0:	0305                	addi	t1,t1,1
1c0054f2:	014340fb          	lp.setup	x1,t1,0x1c00551a
1c0054f6:	004f260b          	p.lw	a2,4(t5!)
1c0054fa:	30067657          	pv.max.sci.b	a2,a2,0
1c0054fe:	7a067957          	pv.extract.b	s2,a2,1
1c005502:	780679d7          	pv.extract.b	s3,a2,0
1c005506:	0529e9b3          	p.max	s3,s3,s2
1c00550a:	78167957          	pv.extract.b	s2,a2,2
1c00550e:	7a167657          	pv.extract.b	a2,a2,3
1c005512:	04c96633          	p.max	a2,s2,a2
1c005516:	013e812b          	p.sb	s3,2(t4!)
1c00551a:	00ce012b          	p.sb	a2,2(t3!)
1c00551e:	fc12b633          	p.bclr	a2,t0,30,1
1c005522:	c21d                	beqz	a2,0x1c005548
1c005524:	00239613          	slli	a2,t2,0x2
1c005528:	20cff603          	p.lw	a2,a2(t6)
1c00552c:	c002b2b3          	p.bclr	t0,t0,0,0
1c005530:	00f68e33          	add	t3,a3,a5
1c005534:	30067657          	pv.max.sci.b	a2,a2,0
1c005538:	78067357          	pv.extract.b	t1,a2,0
1c00553c:	7a067657          	pv.extract.b	a2,a2,1
1c005540:	04c36633          	p.max	a2,t1,a2
1c005544:	00ce42a3          	p.sb	a2,t0(t3)
1c005548:	4322                	lw	t1,8(sp)
1c00554a:	00030863          	beqz	t1,0x1c00555a
1c00554e:	00050603          	lb	a2,0(a0)
1c005552:	04066633          	p.max	a2,a2,zero
1c005556:	00c68023          	sb	a2,0(a3)
1c00555a:	4632                	lw	a2,12(sp)
1c00555c:	2e061e63          	bnez	a2,0x1c005858
1c005560:	22048763          	beqz	s1,0x1c00578e
1c005564:	4e56                	lw	t3,84(sp)
1c005566:	13c47963          	bleu	t3,s0,0x1c005698
1c00556a:	4642                	lw	a2,16(sp)
1c00556c:	40f80cb3          	sub	s9,a6,a5
1c005570:	001cdd13          	srli	s10,s9,0x1
1c005574:	00179493          	slli	s1,a5,0x1
1c005578:	8c91                	sub	s1,s1,a2
1c00557a:	00141c13          	slli	s8,s0,0x1
1c00557e:	002d1b13          	slli	s6,s10,0x2
1c005582:	417c0633          	sub	a2,s8,s7
1c005586:	94da                	add	s1,s1,s6
1c005588:	8332                	mv	t1,a2
1c00558a:	8a26                	mv	s4,s1
1c00558c:	0605                	addi	a2,a2,1
1c00558e:	893e                	mv	s2,a5
1c005590:	42b30a33          	p.mac	s4,t1,a1
1c005594:	00f68db3          	add	s11,a3,a5
1c005598:	c00cb333          	p.bclr	t1,s9,0,0
1c00559c:	936e                	add	t1,t1,s11
1c00559e:	fc1cbcb3          	p.bclr	s9,s9,30,1
1c0055a2:	00159993          	slli	s3,a1,0x1
1c0055a6:	cc1a                	sw	t1,24(sp)
1c0055a8:	408e0ab3          	sub	s5,t3,s0
1c0055ac:	42b604b3          	p.mac	s1,a2,a1
1c0055b0:	9a2a                	add	s4,s4,a0
1c0055b2:	42870933          	p.mac	s2,a4,s0
1c0055b6:	94aa                	add	s1,s1,a0
1c0055b8:	9936                	add	s2,s2,a3
1c0055ba:	042ac07b          	lp.setup	x0,s5,0x1c00563e
1c0055be:	040d0a63          	beqz	s10,0x1c005612
1c0055c2:	ffcb0e93          	addi	t4,s6,-4
1c0055c6:	002ede93          	srli	t4,t4,0x2
1c0055ca:	416483b3          	sub	t2,s1,s6
1c0055ce:	00190293          	addi	t0,s2,1
1c0055d2:	8fca                	mv	t6,s2
1c0055d4:	416a0f33          	sub	t5,s4,s6
1c0055d8:	0e85                	addi	t4,t4,1
1c0055da:	01aec0fb          	lp.setup	x1,t4,0x1c00560e
1c0055de:	004f230b          	p.lw	t1,4(t5!)
1c0055e2:	0043a60b          	p.lw	a2,4(t2!)
1c0055e6:	30c31657          	pv.max.b	a2,t1,a2
1c0055ea:	78067e57          	pv.extract.b	t3,a2,0
1c0055ee:	7a067357          	pv.extract.b	t1,a2,1
1c0055f2:	046e6333          	p.max	t1,t3,t1
1c0055f6:	78167e57          	pv.extract.b	t3,a2,2
1c0055fa:	7a167657          	pv.extract.b	a2,a2,3
1c0055fe:	04036333          	p.max	t1,t1,zero
1c005602:	04ce6633          	p.max	a2,t3,a2
1c005606:	04066633          	p.max	a2,a2,zero
1c00560a:	006f812b          	p.sb	t1,2(t6!)
1c00560e:	00c2812b          	p.sb	a2,2(t0!) # 0x1002
1c005612:	020c8463          	beqz	s9,0x1c00563a
1c005616:	4090                	lw	a2,0(s1)
1c005618:	000a2303          	lw	t1,0(s4)
1c00561c:	41b90e33          	sub	t3,s2,s11
1c005620:	30c31357          	pv.max.b	t1,t1,a2
1c005624:	78037657          	pv.extract.b	a2,t1,0
1c005628:	7a037357          	pv.extract.b	t1,t1,1
1c00562c:	04666633          	p.max	a2,a2,t1
1c005630:	4362                	lw	t1,24(sp)
1c005632:	04066633          	p.max	a2,a2,zero
1c005636:	00c34e23          	p.sb	a2,t3(t1)
1c00563a:	9a4e                	add	s4,s4,s3
1c00563c:	94ce                	add	s1,s1,s3
1c00563e:	993a                	add	s2,s2,a4
1c005640:	4e32                	lw	t3,12(sp)
1c005642:	040e0b63          	beqz	t3,0x1c005698
1c005646:	4e56                	lw	t3,84(sp)
1c005648:	001c0613          	addi	a2,s8,1
1c00564c:	0c09                	addi	s8,s8,2
1c00564e:	41760633          	sub	a2,a2,s7
1c005652:	00140313          	addi	t1,s0,1
1c005656:	417c0bb3          	sub	s7,s8,s7
1c00565a:	8f2a                	mv	t5,a0
1c00565c:	408e0433          	sub	s0,t3,s0
1c005660:	8eaa                	mv	t4,a0
1c005662:	8e36                	mv	t3,a3
1c005664:	42b60f33          	p.mac	t5,a2,a1
1c005668:	4656                	lw	a2,84(sp)
1c00566a:	42bb8eb3          	p.mac	t4,s7,a1
1c00566e:	1f7d                	addi	t5,t5,-1
1c005670:	42e30e33          	p.mac	t3,t1,a4
1c005674:	1efd                	addi	t4,t4,-1
1c005676:	1e7d                	addi	t3,t3,-1
1c005678:	1e666b63          	bltu	a2,t1,0x1c00586e
1c00567c:	1e060963          	beqz	a2,0x1c00586e
1c005680:	00a440fb          	lp.setup	x1,s0,0x1c005694
1c005684:	013f760b          	p.lb	a2,s3(t5!)
1c005688:	013ef30b          	p.lb	t1,s3(t4!)
1c00568c:	04066633          	p.max	a2,a2,zero
1c005690:	04666633          	p.max	a2,a2,t1
1c005694:	00ce472b          	p.sb	a2,a4(t3!)
1c005698:	4352                	lw	t1,20(sp)
1c00569a:	0c030c63          	beqz	t1,0x1c005772
1c00569e:	4672                	lw	a2,28(sp)
1c0056a0:	4e42                	lw	t3,16(sp)
1c0056a2:	00179293          	slli	t0,a5,0x1
1c0056a6:	fff60393          	addi	t2,a2,-1
1c0056aa:	02b383b3          	mul	t2,t2,a1
1c0056ae:	40f80833          	sub	a6,a6,a5
1c0056b2:	00185413          	srli	s0,a6,0x1
1c0056b6:	929e                	add	t0,t0,t2
1c0056b8:	41c282b3          	sub	t0,t0,t3
1c0056bc:	92aa                	add	t0,t0,a0
1c0056be:	c439                	beqz	s0,0x1c00570c
1c0056c0:	fff88613          	addi	a2,a7,-1
1c0056c4:	8f3e                	mv	t5,a5
1c0056c6:	42e60f33          	p.mac	t5,a2,a4
1c0056ca:	00241e93          	slli	t4,s0,0x2
1c0056ce:	1ef1                	addi	t4,t4,-4
1c0056d0:	002ede93          	srli	t4,t4,0x2
1c0056d4:	8496                	mv	s1,t0
1c0056d6:	0e85                	addi	t4,t4,1
1c0056d8:	001f0f93          	addi	t6,t5,1
1c0056dc:	9fb6                	add	t6,t6,a3
1c0056de:	9f36                	add	t5,t5,a3
1c0056e0:	014ec0fb          	lp.setup	x1,t4,0x1c005708
1c0056e4:	0044a60b          	p.lw	a2,4(s1!)
1c0056e8:	30067657          	pv.max.sci.b	a2,a2,0
1c0056ec:	7a067357          	pv.extract.b	t1,a2,1
1c0056f0:	78067e57          	pv.extract.b	t3,a2,0
1c0056f4:	046e6e33          	p.max	t3,t3,t1
1c0056f8:	78167357          	pv.extract.b	t1,a2,2
1c0056fc:	7a167657          	pv.extract.b	a2,a2,3
1c005700:	04c36633          	p.max	a2,t1,a2
1c005704:	01cf012b          	p.sb	t3,2(t5!)
1c005708:	00cf812b          	p.sb	a2,2(t6!)
1c00570c:	fc183633          	p.bclr	a2,a6,30,1
1c005710:	c615                	beqz	a2,0x1c00573c
1c005712:	fff88613          	addi	a2,a7,-1
1c005716:	97b6                	add	a5,a5,a3
1c005718:	42e607b3          	p.mac	a5,a2,a4
1c00571c:	00241613          	slli	a2,s0,0x2
1c005720:	20c2f603          	p.lw	a2,a2(t0)
1c005724:	c0083833          	p.bclr	a6,a6,0,0
1c005728:	30067657          	pv.max.sci.b	a2,a2,0
1c00572c:	78067357          	pv.extract.b	t1,a2,0
1c005730:	7a067657          	pv.extract.b	a2,a2,1
1c005734:	04c36633          	p.max	a2,t1,a2
1c005738:	00c7c823          	p.sb	a2,a6(a5)
1c00573c:	4322                	lw	t1,8(sp)
1c00573e:	00030e63          	beqz	t1,0x1c00575a
1c005742:	fff88613          	addi	a2,a7,-1
1c005746:	02e60633          	mul	a2,a2,a4
1c00574a:	007507b3          	add	a5,a0,t2
1c00574e:	00078783          	lb	a5,0(a5)
1c005752:	0407e7b3          	p.max	a5,a5,zero
1c005756:	00f6c623          	p.sb	a5,a2(a3)
1c00575a:	4632                	lw	a2,12(sp)
1c00575c:	ca19                	beqz	a2,0x1c005772
1c00575e:	431706b3          	p.mac	a3,a4,a7
1c005762:	951e                	add	a0,a0,t2
1c005764:	95aa                	add	a1,a1,a0
1c005766:	fff58783          	lb	a5,-1(a1)
1c00576a:	0407e7b3          	p.max	a5,a5,zero
1c00576e:	fef68fa3          	sb	a5,-1(a3)
1c005772:	4436                	lw	s0,76(sp)
1c005774:	44a6                	lw	s1,72(sp)
1c005776:	4916                	lw	s2,68(sp)
1c005778:	4986                	lw	s3,64(sp)
1c00577a:	5a72                	lw	s4,60(sp)
1c00577c:	5ae2                	lw	s5,56(sp)
1c00577e:	5b52                	lw	s6,52(sp)
1c005780:	5bc2                	lw	s7,48(sp)
1c005782:	5c32                	lw	s8,44(sp)
1c005784:	5ca2                	lw	s9,40(sp)
1c005786:	5d12                	lw	s10,36(sp)
1c005788:	5d82                	lw	s11,32(sp)
1c00578a:	6161                	addi	sp,sp,80
1c00578c:	8082                	ret
1c00578e:	4656                	lw	a2,84(sp)
1c005790:	f0c474e3          	bleu	a2,s0,0x1c005698
1c005794:	4e42                	lw	t3,16(sp)
1c005796:	40f80cb3          	sub	s9,a6,a5
1c00579a:	001cdd13          	srli	s10,s9,0x1
1c00579e:	00179493          	slli	s1,a5,0x1
1c0057a2:	00141c13          	slli	s8,s0,0x1
1c0057a6:	002d1b13          	slli	s6,s10,0x2
1c0057aa:	41c484b3          	sub	s1,s1,t3
1c0057ae:	417c0633          	sub	a2,s8,s7
1c0057b2:	94da                	add	s1,s1,s6
1c0057b4:	8332                	mv	t1,a2
1c0057b6:	8a26                	mv	s4,s1
1c0057b8:	0605                	addi	a2,a2,1
1c0057ba:	893e                	mv	s2,a5
1c0057bc:	42b30a33          	p.mac	s4,t1,a1
1c0057c0:	4356                	lw	t1,84(sp)
1c0057c2:	fc1cbdb3          	p.bclr	s11,s9,30,1
1c0057c6:	00159993          	slli	s3,a1,0x1
1c0057ca:	c00cbcb3          	p.bclr	s9,s9,0,0
1c0057ce:	40830ab3          	sub	s5,t1,s0
1c0057d2:	42b604b3          	p.mac	s1,a2,a1
1c0057d6:	9a2a                	add	s4,s4,a0
1c0057d8:	42870933          	p.mac	s2,a4,s0
1c0057dc:	94aa                	add	s1,s1,a0
1c0057de:	9936                	add	s2,s2,a3
1c0057e0:	03aac07b          	lp.setup	x0,s5,0x1c005854
1c0057e4:	040d0663          	beqz	s10,0x1c005830
1c0057e8:	ffcb0e13          	addi	t3,s6,-4
1c0057ec:	002e5e13          	srli	t3,t3,0x2
1c0057f0:	416482b3          	sub	t0,s1,s6
1c0057f4:	00190f93          	addi	t6,s2,1
1c0057f8:	8f4a                	mv	t5,s2
1c0057fa:	416a0eb3          	sub	t4,s4,s6
1c0057fe:	0e05                	addi	t3,t3,1
1c005800:	016e40fb          	lp.setup	x1,t3,0x1c00582c
1c005804:	004ea30b          	p.lw	t1,4(t4!)
1c005808:	0042a60b          	p.lw	a2,4(t0!)
1c00580c:	30c31657          	pv.max.b	a2,t1,a2
1c005810:	7a067357          	pv.extract.b	t1,a2,1
1c005814:	780673d7          	pv.extract.b	t2,a2,0
1c005818:	0463e3b3          	p.max	t2,t2,t1
1c00581c:	78167357          	pv.extract.b	t1,a2,2
1c005820:	7a167657          	pv.extract.b	a2,a2,3
1c005824:	04c36633          	p.max	a2,t1,a2
1c005828:	007f012b          	p.sb	t2,2(t5!)
1c00582c:	00cf812b          	p.sb	a2,2(t6!)
1c005830:	020d8063          	beqz	s11,0x1c005850
1c005834:	0004a303          	lw	t1,0(s1)
1c005838:	000a2603          	lw	a2,0(s4)
1c00583c:	30661657          	pv.max.b	a2,a2,t1
1c005840:	78067357          	pv.extract.b	t1,a2,0
1c005844:	7a067657          	pv.extract.b	a2,a2,1
1c005848:	04c36633          	p.max	a2,t1,a2
1c00584c:	00c94ca3          	p.sb	a2,s9(s2)
1c005850:	9a4e                	add	s4,s4,s3
1c005852:	94ce                	add	s1,s1,s3
1c005854:	993a                	add	s2,s2,a4
1c005856:	b3ed                	j	0x1c005640
1c005858:	00b50633          	add	a2,a0,a1
1c00585c:	fff60603          	lb	a2,-1(a2)
1c005860:	00e68333          	add	t1,a3,a4
1c005864:	04066633          	p.max	a2,a2,zero
1c005868:	fec30fa3          	sb	a2,-1(t1)
1c00586c:	b9d5                	j	0x1c005560
1c00586e:	4405                	li	s0,1
1c005870:	bd01                	j	0x1c005680
1c005872:	7139                	addi	sp,sp,-64
1c005874:	4326                	lw	t1,72(sp)
1c005876:	43c6                	lw	t2,80(sp)
1c005878:	d05e                	sw	s7,32(sp)
1c00587a:	4bb6                	lw	s7,76(sp)
1c00587c:	d25a                	sw	s6,36(sp)
1c00587e:	c86e                	sw	s11,16(sp)
1c005880:	0013b393          	seqz	t2,t2
1c005884:	78037b57          	pv.extract.b	s6,t1,0
1c005888:	7a037dd7          	pv.extract.b	s11,t1,1
1c00588c:	78137fd7          	pv.extract.b	t6,t1,2
1c005890:	7a137357          	pv.extract.b	t1,t1,3
1c005894:	d84e                	sw	s3,48(sp)
1c005896:	ce62                	sw	s8,28(sp)
1c005898:	ca6a                	sw	s10,20(sp)
1c00589a:	407003b3          	neg	t2,t2
1c00589e:	de22                	sw	s0,60(sp)
1c0058a0:	dc26                	sw	s1,56(sp)
1c0058a2:	da4a                	sw	s2,52(sp)
1c0058a4:	d652                	sw	s4,44(sp)
1c0058a6:	d456                	sw	s5,40(sp)
1c0058a8:	cc66                	sw	s9,24(sp)
1c0058aa:	c632                	sw	a2,12(sp)
1c0058ac:	c41a                	sw	t1,8(sp)
1c0058ae:	780bfd57          	pv.extract.b	s10,s7,0
1c0058b2:	4986                	lw	s3,64(sp)
1c0058b4:	4c16                	lw	s8,68(sp)
1c0058b6:	781bfbd7          	pv.extract.b	s7,s7,2
1c0058ba:	fc03b3b3          	p.bclr	t2,t2,30,0
1c0058be:	1e0b0f63          	beqz	s6,0x1c005abc
1c0058c2:	1f89fd63          	bleu	s8,s3,0x1c005abc
1c0058c6:	00199c93          	slli	s9,s3,0x1
1c0058ca:	417c8633          	sub	a2,s9,s7
1c0058ce:	8e32                	mv	t3,a2
1c0058d0:	8f2a                	mv	t5,a0
1c0058d2:	0605                	addi	a2,a2,1
1c0058d4:	02e984b3          	mul	s1,s3,a4
1c0058d8:	00159a93          	slli	s5,a1,0x1
1c0058dc:	413c0333          	sub	t1,s8,s3
1c0058e0:	42be0f33          	p.mac	t5,t3,a1
1c0058e4:	8e2a                	mv	t3,a0
1c0058e6:	00968eb3          	add	t4,a3,s1
1c0058ea:	42b60e33          	p.mac	t3,a2,a1
1c0058ee:	00a340fb          	lp.setup	x1,t1,0x1c005902
1c0058f2:	015f760b          	p.lb	a2,s5(t5!)
1c0058f6:	015e728b          	p.lb	t0,s5(t3!)
1c0058fa:	0456265b          	p.addn	a2,a2,t0,2
1c0058fe:	04c3e633          	p.max	a2,t2,a2
1c005902:	00cec72b          	p.sb	a2,a4(t4!)
1c005906:	060f8063          	beqz	t6,0x1c005966
1c00590a:	00179613          	slli	a2,a5,0x1
1c00590e:	40f80e33          	sub	t3,a6,a5
1c005912:	41a60633          	sub	a2,a2,s10
1c005916:	020e0563          	beqz	t3,0x1c005940
1c00591a:	1c00af37          	lui	t5,0x1c00a
1c00591e:	e20f2303          	lw	t1,-480(t5) # 0x1c009e20
1c005922:	00c50eb3          	add	t4,a0,a2
1c005926:	00f68f33          	add	t5,a3,a5
1c00592a:	009e40fb          	lp.setup	x1,t3,0x1c00593c
1c00592e:	004ea60b          	p.lw	a2,4(t4!)
1c005932:	98661657          	pv.dotsp.b	a2,a2,t1
1c005936:	8609                	srai	a2,a2,0x2
1c005938:	04c3e633          	p.max	a2,t2,a2
1c00593c:	00cf00ab          	p.sb	a2,1(t5!)
1c005940:	000b0963          	beqz	s6,0x1c005952
1c005944:	00050603          	lb	a2,0(a0)
1c005948:	8609                	srai	a2,a2,0x2
1c00594a:	04066633          	p.max	a2,a2,zero
1c00594e:	00c68023          	sb	a2,0(a3)
1c005952:	180d9063          	bnez	s11,0x1c005ad2
1c005956:	0d89f363          	bleu	s8,s3,0x1c005a1c
1c00595a:	02e984b3          	mul	s1,s3,a4
1c00595e:	00159a93          	slli	s5,a1,0x1
1c005962:	00199c93          	slli	s9,s3,0x1
1c005966:	00179413          	slli	s0,a5,0x1
1c00596a:	417c8333          	sub	t1,s9,s7
1c00596e:	41a40433          	sub	s0,s0,s10
1c005972:	00198613          	addi	a2,s3,1
1c005976:	40f80a33          	sub	s4,a6,a5
1c00597a:	94b6                	add	s1,s1,a3
1c00597c:	413c0933          	sub	s2,s8,s3
1c005980:	42b30433          	p.mac	s0,t1,a1
1c005984:	1c00a337          	lui	t1,0x1c00a
1c005988:	e2032303          	lw	t1,-480(t1) # 0x1c009e20
1c00598c:	942a                	add	s0,s0,a0
1c00598e:	16cc6063          	bltu	s8,a2,0x1c005aee
1c005992:	140c0e63          	beqz	s8,0x1c005aee
1c005996:	0199407b          	lp.setup	x0,s2,0x1c0059c8
1c00599a:	020a0663          	beqz	s4,0x1c0059c6
1c00599e:	00b40fb3          	add	t6,s0,a1
1c0059a2:	8f26                	mv	t5,s1
1c0059a4:	8ea2                	mv	t4,s0
1c0059a6:	8e52                	mv	t3,s4
1c0059a8:	00de40fb          	lp.setup	x1,t3,0x1c0059c2
1c0059ac:	002e960b          	p.lh	a2,2(t4!)
1c0059b0:	002f928b          	p.lh	t0,2(t6!)
1c0059b4:	98661657          	pv.dotsp.b	a2,a2,t1
1c0059b8:	b8629657          	pv.sdotsp.b	a2,t0,t1
1c0059bc:	8609                	srai	a2,a2,0x2
1c0059be:	04c3e633          	p.max	a2,t2,a2
1c0059c2:	00cf00ab          	p.sb	a2,1(t5!)
1c0059c6:	9456                	add	s0,s0,s5
1c0059c8:	94ba                	add	s1,s1,a4
1c0059ca:	040d8963          	beqz	s11,0x1c005a1c
1c0059ce:	001c8613          	addi	a2,s9,1
1c0059d2:	0c89                	addi	s9,s9,2
1c0059d4:	41760633          	sub	a2,a2,s7
1c0059d8:	00198313          	addi	t1,s3,1
1c0059dc:	417c8bb3          	sub	s7,s9,s7
1c0059e0:	8f2a                	mv	t5,a0
1c0059e2:	8eaa                	mv	t4,a0
1c0059e4:	8e36                	mv	t3,a3
1c0059e6:	42b60f33          	p.mac	t5,a2,a1
1c0059ea:	413c09b3          	sub	s3,s8,s3
1c0059ee:	42bb8eb3          	p.mac	t4,s7,a1
1c0059f2:	1f7d                	addi	t5,t5,-1
1c0059f4:	42e30e33          	p.mac	t3,t1,a4
1c0059f8:	1efd                	addi	t4,t4,-1
1c0059fa:	1e7d                	addi	t3,t3,-1
1c0059fc:	0e6c6763          	bltu	s8,t1,0x1c005aea
1c005a00:	0e0c0563          	beqz	s8,0x1c005aea
1c005a04:	00a9c0fb          	lp.setup	x1,s3,0x1c005a18
1c005a08:	015f760b          	p.lb	a2,s5(t5!)
1c005a0c:	015ef30b          	p.lb	t1,s5(t4!)
1c005a10:	0466265b          	p.addn	a2,a2,t1,2
1c005a14:	04c3e633          	p.max	a2,t2,a2
1c005a18:	00ce472b          	p.sb	a2,a4(t3!)
1c005a1c:	4622                	lw	a2,8(sp)
1c005a1e:	c249                	beqz	a2,0x1c005aa0
1c005a20:	4632                	lw	a2,12(sp)
1c005a22:	40f80833          	sub	a6,a6,a5
1c005a26:	fff60e93          	addi	t4,a2,-1
1c005a2a:	02be8eb3          	mul	t4,t4,a1
1c005a2e:	00179613          	slli	a2,a5,0x1
1c005a32:	9676                	add	a2,a2,t4
1c005a34:	41a60333          	sub	t1,a2,s10
1c005a38:	02080863          	beqz	a6,0x1c005a68
1c005a3c:	fff88613          	addi	a2,a7,-1
1c005a40:	42e607b3          	p.mac	a5,a2,a4
1c005a44:	1c00af37          	lui	t5,0x1c00a
1c005a48:	e20f2603          	lw	a2,-480(t5) # 0x1c009e20
1c005a4c:	932a                	add	t1,t1,a0
1c005a4e:	00f68e33          	add	t3,a3,a5
1c005a52:	009840fb          	lp.setup	x1,a6,0x1c005a64
1c005a56:	0023178b          	p.lh	a5,2(t1!)
1c005a5a:	98c797d7          	pv.dotsp.b	a5,a5,a2
1c005a5e:	8789                	srai	a5,a5,0x2
1c005a60:	04f3e7b3          	p.max	a5,t2,a5
1c005a64:	00fe00ab          	p.sb	a5,1(t3!)
1c005a68:	000b0f63          	beqz	s6,0x1c005a86
1c005a6c:	fff88613          	addi	a2,a7,-1
1c005a70:	02e60633          	mul	a2,a2,a4
1c005a74:	01d507b3          	add	a5,a0,t4
1c005a78:	00078783          	lb	a5,0(a5)
1c005a7c:	8789                	srai	a5,a5,0x2
1c005a7e:	0407e7b3          	p.max	a5,a5,zero
1c005a82:	00f6c623          	p.sb	a5,a2(a3)
1c005a86:	000d8d63          	beqz	s11,0x1c005aa0
1c005a8a:	431706b3          	p.mac	a3,a4,a7
1c005a8e:	9576                	add	a0,a0,t4
1c005a90:	95aa                	add	a1,a1,a0
1c005a92:	fff58783          	lb	a5,-1(a1)
1c005a96:	8789                	srai	a5,a5,0x2
1c005a98:	04f3e3b3          	p.max	t2,t2,a5
1c005a9c:	fe768fa3          	sb	t2,-1(a3)
1c005aa0:	5472                	lw	s0,60(sp)
1c005aa2:	54e2                	lw	s1,56(sp)
1c005aa4:	5952                	lw	s2,52(sp)
1c005aa6:	59c2                	lw	s3,48(sp)
1c005aa8:	5a32                	lw	s4,44(sp)
1c005aaa:	5aa2                	lw	s5,40(sp)
1c005aac:	5b12                	lw	s6,36(sp)
1c005aae:	5b82                	lw	s7,32(sp)
1c005ab0:	4c72                	lw	s8,28(sp)
1c005ab2:	4ce2                	lw	s9,24(sp)
1c005ab4:	4d52                	lw	s10,20(sp)
1c005ab6:	4dc2                	lw	s11,16(sp)
1c005ab8:	6121                	addi	sp,sp,64
1c005aba:	8082                	ret
1c005abc:	e80f8de3          	beqz	t6,0x1c005956
1c005ac0:	00179613          	slli	a2,a5,0x1
1c005ac4:	40f80e33          	sub	t3,a6,a5
1c005ac8:	41a60633          	sub	a2,a2,s10
1c005acc:	e40e17e3          	bnez	t3,0x1c00591a
1c005ad0:	bd85                	j	0x1c005940
1c005ad2:	00b50633          	add	a2,a0,a1
1c005ad6:	fff60603          	lb	a2,-1(a2)
1c005ada:	00e68333          	add	t1,a3,a4
1c005ade:	8609                	srai	a2,a2,0x2
1c005ae0:	04066633          	p.max	a2,a2,zero
1c005ae4:	fec30fa3          	sb	a2,-1(t1)
1c005ae8:	b5bd                	j	0x1c005956
1c005aea:	4985                	li	s3,1
1c005aec:	bf21                	j	0x1c005a04
1c005aee:	4905                	li	s2,1
1c005af0:	b55d                	j	0x1c005996
1c005af2:	00c55783          	lhu	a5,12(a0)
1c005af6:	7159                	addi	sp,sp,-112
1c005af8:	f1402373          	csrr	t1,mhartid
1c005afc:	d4a2                	sw	s0,104(sp)
1c005afe:	f837b433          	p.bclr	s0,a5,28,3
1c005b02:	0037d713          	srli	a4,a5,0x3
1c005b06:	00803433          	snez	s0,s0
1c005b0a:	943a                	add	s0,s0,a4
1c005b0c:	c8031333          	p.extractu	t1,t1,4,0
1c005b10:	de6e                	sw	s11,60(sp)
1c005b12:	02830db3          	mul	s11,t1,s0
1c005b16:	d2a6                	sw	s1,100(sp)
1c005b18:	d0ca                	sw	s2,96(sp)
1c005b1a:	cece                	sw	s3,92(sp)
1c005b1c:	ccd2                	sw	s4,88(sp)
1c005b1e:	cad6                	sw	s5,84(sp)
1c005b20:	c8da                	sw	s6,80(sp)
1c005b22:	c2e6                	sw	s9,68(sp)
1c005b24:	d686                	sw	ra,108(sp)
1c005b26:	c6de                	sw	s7,76(sp)
1c005b28:	c4e2                	sw	s8,72(sp)
1c005b2a:	c0ea                	sw	s10,64(sp)
1c005b2c:	01452c03          	lw	s8,20(a0)
1c005b30:	00655a03          	lhu	s4,6(a0)
1c005b34:	00a55b03          	lhu	s6,10(a0)
1c005b38:	780c76d7          	pv.extract.b	a3,s8,0
1c005b3c:	781c7757          	pv.extract.b	a4,s8,2
1c005b40:	ffea0913          	addi	s2,s4,-2
1c005b44:	ffeb0493          	addi	s1,s6,-2
1c005b48:	01b54b83          	lbu	s7,27(a0)
1c005b4c:	9936                	add	s2,s2,a3
1c005b4e:	94ba                	add	s1,s1,a4
1c005b50:	00168993          	addi	s3,a3,1
1c005b54:	82da2a5b          	p.addun	s4,s4,a3,1
1c005b58:	7a0c75d7          	pv.extract.b	a1,s8,1
1c005b5c:	7a1c7657          	pv.extract.b	a2,s8,3
1c005b60:	00855683          	lhu	a3,8(a0)
1c005b64:	00170a93          	addi	s5,a4,1
1c005b68:	82b9295b          	p.addun	s2,s2,a1,1
1c005b6c:	82c4a4db          	p.addun	s1,s1,a2,1
1c005b70:	0905                	addi	s2,s2,1
1c005b72:	0019d993          	srli	s3,s3,0x1
1c005b76:	0485                	addi	s1,s1,1
1c005b78:	001ada93          	srli	s5,s5,0x1
1c005b7c:	82eb2b5b          	p.addun	s6,s6,a4,1
1c005b80:	946e                	add	s0,s0,s11
1c005b82:	053949b3          	p.min	s3,s2,s3
1c005b86:	0554cab3          	p.min	s5,s1,s5
1c005b8a:	002bf713          	andi	a4,s7,2
1c005b8e:	d236                	sw	a3,36(sp)
1c005b90:	00052e83          	lw	t4,0(a0)
1c005b94:	00455c83          	lhu	s9,4(a0)
1c005b98:	01052e03          	lw	t3,16(a0)
1c005b9c:	fc1bbbb3          	p.bclr	s7,s7,30,1
1c005ba0:	04f44433          	p.min	s0,s0,a5
1c005ba4:	0549ea33          	p.max	s4,s3,s4
1c005ba8:	056aeb33          	p.max	s6,s5,s6
1c005bac:	cb3d                	beqz	a4,0x1c005c22
1c005bae:	048df563          	bleu	s0,s11,0x1c005bf8
1c005bb2:	02dc87b3          	mul	a5,s9,a3
1c005bb6:	8d72                	mv	s10,t3
1c005bb8:	029906b3          	mul	a3,s2,s1
1c005bbc:	d63e                	sw	a5,44(sp)
1c005bbe:	42fd8eb3          	p.mac	t4,s11,a5
1c005bc2:	d436                	sw	a3,40(sp)
1c005bc4:	42dd8d33          	p.mac	s10,s11,a3
1c005bc8:	5612                	lw	a2,36(sp)
1c005bca:	86ea                	mv	a3,s10
1c005bcc:	8576                	mv	a0,t4
1c005bce:	87ce                	mv	a5,s3
1c005bd0:	c85e                	sw	s7,16(sp)
1c005bd2:	c662                	sw	s8,12(sp)
1c005bd4:	c462                	sw	s8,8(sp)
1c005bd6:	c25a                	sw	s6,4(sp)
1c005bd8:	c056                	sw	s5,0(sp)
1c005bda:	88a6                	mv	a7,s1
1c005bdc:	8852                	mv	a6,s4
1c005bde:	874a                	mv	a4,s2
1c005be0:	85e6                	mv	a1,s9
1c005be2:	d076                	sw	t4,32(sp)
1c005be4:	c8fff0ef          	jal	ra,0x1c005872
1c005be8:	5e82                	lw	t4,32(sp)
1c005bea:	57b2                	lw	a5,44(sp)
1c005bec:	56a2                	lw	a3,40(sp)
1c005bee:	0d85                	addi	s11,s11,1
1c005bf0:	9ebe                	add	t4,t4,a5
1c005bf2:	9d36                	add	s10,s10,a3
1c005bf4:	fdb41ae3          	bne	s0,s11,0x1c005bc8
1c005bf8:	002047b7          	lui	a5,0x204
1c005bfc:	20078793          	addi	a5,a5,512 # 0x204200
1c005c00:	01c7e703          	p.elw	a4,28(a5)
1c005c04:	50b6                	lw	ra,108(sp)
1c005c06:	5426                	lw	s0,104(sp)
1c005c08:	5496                	lw	s1,100(sp)
1c005c0a:	5906                	lw	s2,96(sp)
1c005c0c:	49f6                	lw	s3,92(sp)
1c005c0e:	4a66                	lw	s4,88(sp)
1c005c10:	4ad6                	lw	s5,84(sp)
1c005c12:	4b46                	lw	s6,80(sp)
1c005c14:	4bb6                	lw	s7,76(sp)
1c005c16:	4c26                	lw	s8,72(sp)
1c005c18:	4c96                	lw	s9,68(sp)
1c005c1a:	4d06                	lw	s10,64(sp)
1c005c1c:	5df2                	lw	s11,60(sp)
1c005c1e:	6165                	addi	sp,sp,112
1c005c20:	8082                	ret
1c005c22:	fc8dfbe3          	bleu	s0,s11,0x1c005bf8
1c005c26:	02dc87b3          	mul	a5,s9,a3
1c005c2a:	8d72                	mv	s10,t3
1c005c2c:	029906b3          	mul	a3,s2,s1
1c005c30:	d63e                	sw	a5,44(sp)
1c005c32:	42fd8eb3          	p.mac	t4,s11,a5
1c005c36:	d436                	sw	a3,40(sp)
1c005c38:	42dd8d33          	p.mac	s10,s11,a3
1c005c3c:	5612                	lw	a2,36(sp)
1c005c3e:	86ea                	mv	a3,s10
1c005c40:	8576                	mv	a0,t4
1c005c42:	87ce                	mv	a5,s3
1c005c44:	c85e                	sw	s7,16(sp)
1c005c46:	c662                	sw	s8,12(sp)
1c005c48:	c462                	sw	s8,8(sp)
1c005c4a:	c25a                	sw	s6,4(sp)
1c005c4c:	c056                	sw	s5,0(sp)
1c005c4e:	88a6                	mv	a7,s1
1c005c50:	8852                	mv	a6,s4
1c005c52:	874a                	mv	a4,s2
1c005c54:	85e6                	mv	a1,s9
1c005c56:	d076                	sw	t4,32(sp)
1c005c58:	fd6ff0ef          	jal	ra,0x1c00542e
1c005c5c:	5e82                	lw	t4,32(sp)
1c005c5e:	57b2                	lw	a5,44(sp)
1c005c60:	56a2                	lw	a3,40(sp)
1c005c62:	0d85                	addi	s11,s11,1
1c005c64:	9ebe                	add	t4,t4,a5
1c005c66:	9d36                	add	s10,s10,a3
1c005c68:	fdb41ae3          	bne	s0,s11,0x1c005c3c
1c005c6c:	b771                	j	0x1c005bf8
1c005c6e:	00455883          	lhu	a7,4(a0)
1c005c72:	7179                	addi	sp,sp,-48
1c005c74:	ce52                	sw	s4,28(sp)
1c005c76:	f1402a73          	csrr	s4,mhartid
1c005c7a:	f838b7b3          	p.bclr	a5,a7,28,3
1c005c7e:	0038d713          	srli	a4,a7,0x3
1c005c82:	00f037b3          	snez	a5,a5
1c005c86:	97ba                	add	a5,a5,a4
1c005c88:	c80a1a33          	p.extractu	s4,s4,4,0
1c005c8c:	02fa0e33          	mul	t3,s4,a5
1c005c90:	c26a                	sw	s10,4(sp)
1c005c92:	d622                	sw	s0,44(sp)
1c005c94:	d426                	sw	s1,40(sp)
1c005c96:	d24a                	sw	s2,36(sp)
1c005c98:	d04e                	sw	s3,32(sp)
1c005c9a:	cc56                	sw	s5,24(sp)
1c005c9c:	ca5a                	sw	s6,20(sp)
1c005c9e:	c85e                	sw	s7,16(sp)
1c005ca0:	c662                	sw	s8,12(sp)
1c005ca2:	97f2                	add	a5,a5,t3
1c005ca4:	c466                	sw	s9,8(sp)
1c005ca6:	c06e                	sw	s11,0(sp)
1c005ca8:	0517c8b3          	p.min	a7,a5,a7
1c005cac:	00052e83          	lw	t4,0(a0)
1c005cb0:	00852d03          	lw	s10,8(a0)
1c005cb4:	00655583          	lhu	a1,6(a0)
1c005cb8:	2b1e7963          	bleu	a7,t3,0x1c005f6a
1c005cbc:	01ce8f33          	add	t5,t4,t3
1c005cc0:	011e87b3          	add	a5,t4,a7
1c005cc4:	86fa                	mv	a3,t5
1c005cc6:	80000737          	lui	a4,0x80000
1c005cca:	41e787b3          	sub	a5,a5,t5
1c005cce:	0047c0fb          	lp.setup	x1,a5,0x1c005cd6
1c005cd2:	0016860b          	p.lb	a2,1(a3!)
1c005cd6:	04c76733          	p.max	a4,a4,a2
1c005cda:	100003b7          	lui	t2,0x10000
1c005cde:	02038393          	addi	t2,t2,32 # 0x10000020
1c005ce2:	002a1b93          	slli	s7,s4,0x2
1c005ce6:	002047b7          	lui	a5,0x204
1c005cea:	017386b3          	add	a3,t2,s7
1c005cee:	20078793          	addi	a5,a5,512 # 0x204200
1c005cf2:	d298                	sw	a4,32(a3)
1c005cf4:	01c7e703          	p.elw	a4,28(a5)
1c005cf8:	2a0a1563          	bnez	s4,0x1c005fa2
1c005cfc:	0203a283          	lw	t0,32(t2)
1c005d00:	0243a783          	lw	a5,36(t2)
1c005d04:	0283a683          	lw	a3,40(t2)
1c005d08:	02c3a703          	lw	a4,44(t2)
1c005d0c:	04f2e2b3          	p.max	t0,t0,a5
1c005d10:	0303a783          	lw	a5,48(t2)
1c005d14:	04d2e2b3          	p.max	t0,t0,a3
1c005d18:	0343a683          	lw	a3,52(t2)
1c005d1c:	04e2e2b3          	p.max	t0,t0,a4
1c005d20:	0383a703          	lw	a4,56(t2)
1c005d24:	04f2e2b3          	p.max	t0,t0,a5
1c005d28:	03c3a783          	lw	a5,60(t2)
1c005d2c:	04d2e2b3          	p.max	t0,t0,a3
1c005d30:	04e2e2b3          	p.max	t0,t0,a4
1c005d34:	04f2e2b3          	p.max	t0,t0,a5
1c005d38:	002047b7          	lui	a5,0x204
1c005d3c:	20078793          	addi	a5,a5,512 # 0x204200
1c005d40:	0253a023          	sw	t0,32(t2)
1c005d44:	01c7e703          	p.elw	a4,28(a5)
1c005d48:	271e7463          	bleu	a7,t3,0x1c005fb0
1c005d4c:	01ce8f33          	add	t5,t4,t3
1c005d50:	001e1f93          	slli	t6,t3,0x1
1c005d54:	6aa1                	lui	s5,0x8
1c005d56:	9ec6                	add	t4,t4,a7
1c005d58:	493d                	li	s2,15
1c005d5a:	001e0793          	addi	a5,t3,1
1c005d5e:	40b90933          	sub	s2,s2,a1
1c005d62:	9fea                	add	t6,t6,s10
1c005d64:	4481                	li	s1,0
1c005d66:	4c2d                	li	s8,11
1c005d68:	fffa8c93          	addi	s9,s5,-1 # 0x7fff
1c005d6c:	41ee8eb3          	sub	t4,t4,t5
1c005d70:	22f8ee63          	bltu	a7,a5,0x1c005fac
1c005d74:	22088c63          	beqz	a7,0x1c005fac
1c005d78:	001f078b          	p.lb	a5,1(t5!)
1c005d7c:	405787b3          	sub	a5,a5,t0
1c005d80:	012797b3          	sll	a5,a5,s2
1c005d84:	e3e9                	bnez	a5,0x1c005e46
1c005d86:	94d6                	add	s1,s1,s5
1c005d88:	75e1                	lui	a1,0xffff8
1c005d8a:	00bf912b          	p.sh	a1,2(t6!)
1c005d8e:	1efd                	addi	t4,t4,-1
1c005d90:	fe0e94e3          	bnez	t4,0x1c005d78
1c005d94:	002047b7          	lui	a5,0x204
1c005d98:	9b9e                	add	s7,s7,t2
1c005d9a:	20078793          	addi	a5,a5,512 # 0x204200
1c005d9e:	029ba023          	sw	s1,32(s7)
1c005da2:	01c7e703          	p.elw	a4,28(a5)
1c005da6:	1e0a1b63          	bnez	s4,0x1c005f9c
1c005daa:	0203a703          	lw	a4,32(t2)
1c005dae:	0243a783          	lw	a5,36(t2)
1c005db2:	0283a603          	lw	a2,40(t2)
1c005db6:	02c3a683          	lw	a3,44(t2)
1c005dba:	97ba                	add	a5,a5,a4
1c005dbc:	0303a703          	lw	a4,48(t2)
1c005dc0:	97b2                	add	a5,a5,a2
1c005dc2:	0343a603          	lw	a2,52(t2)
1c005dc6:	97b6                	add	a5,a5,a3
1c005dc8:	0383a683          	lw	a3,56(t2)
1c005dcc:	97ba                	add	a5,a5,a4
1c005dce:	03c3a703          	lw	a4,60(t2)
1c005dd2:	97b2                	add	a5,a5,a2
1c005dd4:	97b6                	add	a5,a5,a3
1c005dd6:	97ba                	add	a5,a5,a4
1c005dd8:	02f3a023          	sw	a5,32(t2)
1c005ddc:	3fff86b7          	lui	a3,0x3fff8
1c005de0:	02f6c6b3          	div	a3,a3,a5
1c005de4:	002047b7          	lui	a5,0x204
1c005de8:	20078793          	addi	a5,a5,512 # 0x204200
1c005dec:	01c7e703          	p.elw	a4,28(a5)
1c005df0:	031e7763          	bleu	a7,t3,0x1c005e1e
1c005df4:	0e06                	slli	t3,t3,0x1
1c005df6:	00189713          	slli	a4,a7,0x1
1c005dfa:	41c70733          	sub	a4,a4,t3
1c005dfe:	1779                	addi	a4,a4,-2
1c005e00:	8305                	srli	a4,a4,0x1
1c005e02:	9d72                	add	s10,s10,t3
1c005e04:	0705                	addi	a4,a4,1
1c005e06:	00a740fb          	lp.setup	x1,a4,0x1c005e1a
1c005e0a:	000d1783          	lh	a5,0(s10)
1c005e0e:	02d787b3          	mul	a5,a5,a3
1c005e12:	1e07e7db          	p.mac.zh.zl	a5,a5,zero,a5
1c005e16:	040787b3          	p.avg	a5,a5,zero
1c005e1a:	00fd112b          	p.sh	a5,2(s10!)
1c005e1e:	002047b7          	lui	a5,0x204
1c005e22:	20078793          	addi	a5,a5,512 # 0x204200
1c005e26:	01c7e703          	p.elw	a4,28(a5)
1c005e2a:	5432                	lw	s0,44(sp)
1c005e2c:	54a2                	lw	s1,40(sp)
1c005e2e:	5912                	lw	s2,36(sp)
1c005e30:	5982                	lw	s3,32(sp)
1c005e32:	4a72                	lw	s4,28(sp)
1c005e34:	4ae2                	lw	s5,24(sp)
1c005e36:	4b52                	lw	s6,20(sp)
1c005e38:	4bc2                	lw	s7,16(sp)
1c005e3a:	4c32                	lw	s8,12(sp)
1c005e3c:	4ca2                	lw	s9,8(sp)
1c005e3e:	4d12                	lw	s10,4(sp)
1c005e40:	4d82                	lw	s11,0(sp)
1c005e42:	6145                	addi	sp,sp,48
1c005e44:	8082                	ret
1c005e46:	04078733          	p.avg	a4,a5,zero
1c005e4a:	40f75693          	srai	a3,a4,0xf
1c005e4e:	02dc5163          	ble	a3,s8,0x1c005e70
1c005e52:	4581                	li	a1,0
1c005e54:	f2e79be3          	bne	a5,a4,0x1c005d8a
1c005e58:	800005b7          	lui	a1,0x80000
1c005e5c:	fff5c593          	not	a1,a1
1c005e60:	94ae                	add	s1,s1,a1
1c005e62:	55fd                	li	a1,-1
1c005e64:	00bf912b          	p.sh	a1,2(t6!)
1c005e68:	1efd                	addi	t4,t4,-1
1c005e6a:	f00e97e3          	bnez	t4,0x1c005d78
1c005e6e:	b71d                	j	0x1c005d94
1c005e70:	01977733          	and	a4,a4,s9
1c005e74:	01171613          	slli	a2,a4,0x11
1c005e78:	00065563          	bgez	a2,0x1c005e82
1c005e7c:	41570733          	sub	a4,a4,s5
1c005e80:	0685                	addi	a3,a3,1
1c005e82:	10074533          	p.exths	a0,a4
1c005e86:	9ea5465b          	p.mac.sl.zl	a2,a0,a0,a5
1c005e8a:	1c00a837          	lui	a6,0x1c00a
1c005e8e:	00f71593          	slli	a1,a4,0xf
1c005e92:	0686                	slli	a3,a3,0x1
1c005e94:	e2480813          	addi	a6,a6,-476 # 0x1c009e24
1c005e98:	40e58733          	sub	a4,a1,a4
1c005e9c:	00d805b3          	add	a1,a6,a3
1c005ea0:	0005d803          	lhu	a6,0(a1) # 0x80000000
1c005ea4:	1c00a5b7          	lui	a1,0x1c00a
1c005ea8:	e3c58593          	addi	a1,a1,-452 # 0x1c009e3c
1c005eac:	96ae                	add	a3,a3,a1
1c005eae:	0006d303          	lhu	t1,0(a3) # 0x3fff8000
1c005eb2:	100646b3          	p.exths	a3,a2
1c005eb6:	9ea6c9db          	p.mac.sl.zl	s3,a3,a0,a5
1c005eba:	06ba                	slli	a3,a3,0xe
1c005ebc:	9736                	add	a4,a4,a3
1c005ebe:	4581                	li	a1,0
1c005ec0:	1009c9b3          	p.exths	s3,s3
1c005ec4:	9ea9c6db          	p.mac.sl.zl	a3,s3,a0,a5
1c005ec8:	1006c433          	p.exths	s0,a3
1c005ecc:	9ea4465b          	p.mac.sl.zl	a2,s0,a0,a5
1c005ed0:	00241693          	slli	a3,s0,0x2
1c005ed4:	96a2                	add	a3,a3,s0
1c005ed6:	068a                	slli	a3,a3,0x2
1c005ed8:	96a2                	add	a3,a3,s0
1c005eda:	00669413          	slli	s0,a3,0x6
1c005ede:	9436                	add	s0,s0,a3
1c005ee0:	10064633          	p.exths	a2,a2
1c005ee4:	9ea646db          	p.mac.sl.zl	a3,a2,a0,a5
1c005ee8:	00461b13          	slli	s6,a2,0x4
1c005eec:	9b32                	add	s6,s6,a2
1c005eee:	0b12                	slli	s6,s6,0x4
1c005ef0:	9b32                	add	s6,s6,a2
1c005ef2:	1006c6b3          	p.exths	a3,a3
1c005ef6:	9ea6cddb          	p.mac.sl.zl	s11,a3,a0,a5
1c005efa:	00169613          	slli	a2,a3,0x1
1c005efe:	9636                	add	a2,a2,a3
1c005f00:	060e                	slli	a2,a2,0x3
1c005f02:	8e15                	sub	a2,a2,a3
1c005f04:	6685                	lui	a3,0x1
1c005f06:	55568693          	addi	a3,a3,1365 # 0x1555
1c005f0a:	0606                	slli	a2,a2,0x1
1c005f0c:	42d98733          	p.mac	a4,s3,a3
1c005f10:	100dcdb3          	p.exths	s11,s11
1c005f14:	003d9693          	slli	a3,s11,0x3
1c005f18:	41b686b3          	sub	a3,a3,s11
1c005f1c:	9eadcddb          	p.mac.sl.zl	s11,s11,a0,a5
1c005f20:	9722                	add	a4,a4,s0
1c005f22:	975a                	add	a4,a4,s6
1c005f24:	9732                	add	a4,a4,a2
1c005f26:	9736                	add	a4,a4,a3
1c005f28:	6641                	lui	a2,0x10
1c005f2a:	167d                	addi	a2,a2,-1
1c005f2c:	100dcdb3          	p.exths	s11,s11
1c005f30:	1fb7675b          	p.mac.zh.zl	a4,a4,s11,a5
1c005f34:	9766                	add	a4,a4,s9
1c005f36:	1f07485b          	p.mac.zl.zl	a6,a4,a6,a5
1c005f3a:	8f71                	and	a4,a4,a2
1c005f3c:	42670833          	p.mac	a6,a4,t1
1c005f40:	e40805e3          	beqz	a6,0x1c005d8a
1c005f44:	0007da63          	bgez	a5,0x1c005f58
1c005f48:	800006b7          	lui	a3,0x80000
1c005f4c:	fff6c693          	not	a3,a3
1c005f50:	0306c833          	div	a6,a3,a6
1c005f54:	40185813          	srai	a6,a6,0x1
1c005f58:	100845b3          	p.exths	a1,a6
1c005f5c:	00bf912b          	p.sh	a1,2(t6!)
1c005f60:	94c2                	add	s1,s1,a6
1c005f62:	1efd                	addi	t4,t4,-1
1c005f64:	e00e9ae3          	bnez	t4,0x1c005d78
1c005f68:	b535                	j	0x1c005d94
1c005f6a:	100003b7          	lui	t2,0x10000
1c005f6e:	02038393          	addi	t2,t2,32 # 0x10000020
1c005f72:	002a1b93          	slli	s7,s4,0x2
1c005f76:	002047b7          	lui	a5,0x204
1c005f7a:	01738733          	add	a4,t2,s7
1c005f7e:	800006b7          	lui	a3,0x80000
1c005f82:	20078793          	addi	a5,a5,512 # 0x204200
1c005f86:	d314                	sw	a3,32(a4)
1c005f88:	01c7e683          	p.elw	a3,28(a5)
1c005f8c:	d60a08e3          	beqz	s4,0x1c005cfc
1c005f90:	01c7e683          	p.elw	a3,28(a5)
1c005f94:	02072023          	sw	zero,32(a4) # 0x80000020
1c005f98:	01c7e703          	p.elw	a4,28(a5)
1c005f9c:	0203a783          	lw	a5,32(t2)
1c005fa0:	bd35                	j	0x1c005ddc
1c005fa2:	01c7e703          	p.elw	a4,28(a5)
1c005fa6:	0203a283          	lw	t0,32(t2)
1c005faa:	b35d                	j	0x1c005d50
1c005fac:	4e85                	li	t4,1
1c005fae:	b3e9                	j	0x1c005d78
1c005fb0:	9b9e                	add	s7,s7,t2
1c005fb2:	020ba023          	sw	zero,32(s7)
1c005fb6:	01c7e703          	p.elw	a4,28(a5)
1c005fba:	bbc5                	j	0x1c005daa
1c005fbc:	002047b7          	lui	a5,0x204
1c005fc0:	00070737          	lui	a4,0x70
1c005fc4:	c798                	sw	a4,8(a5)
1c005fc6:	0ff00713          	li	a4,255
1c005fca:	002046b7          	lui	a3,0x204
1c005fce:	08e6a223          	sw	a4,132(a3) # 0x204084
1c005fd2:	20078793          	addi	a5,a5,512 # 0x204200
1c005fd6:	00e7a023          	sw	a4,0(a5)
1c005fda:	00e7a623          	sw	a4,12(a5)
1c005fde:	8082                	ret
1c005fe0:	1101                	addi	sp,sp,-32
1c005fe2:	1a104737          	lui	a4,0x1a104
1c005fe6:	ce06                	sw	ra,28(sp)
1c005fe8:	cc22                	sw	s0,24(sp)
1c005fea:	ca26                	sw	s1,20(sp)
1c005fec:	07072783          	lw	a5,112(a4) # 0x1a104070
1c005ff0:	c0b7c7b3          	p.bset	a5,a5,0,11
1c005ff4:	06f72823          	sw	a5,112(a4)
1c005ff8:	2b61                	jal	0x1c006590
1c005ffa:	1c00a7b7          	lui	a5,0x1c00a
1c005ffe:	52c7a783          	lw	a5,1324(a5) # 0x1c00a52c
1c006002:	0237b263          	p.bneimm	a5,3,0x1c006026
1c006006:	7d005073          	csrwi	0x7d0,0
1c00600a:	1b0007b7          	lui	a5,0x1b000
1c00600e:	43078793          	addi	a5,a5,1072 # 0x1b000430
1c006012:	7d179073          	csrw	0x7d1,a5
1c006016:	1b0017b7          	lui	a5,0x1b001
1c00601a:	c3078793          	addi	a5,a5,-976 # 0x1b000c30
1c00601e:	7d279073          	csrw	0x7d2,a5
1c006022:	7d00d073          	csrwi	0x7d0,1
1c006026:	2401                	jal	0x1c006226
1c006028:	54fd                	li	s1,-1
1c00602a:	1a1067b7          	lui	a5,0x1a106
1c00602e:	0097a223          	sw	s1,4(a5) # 0x1a106004
1c006032:	0097a423          	sw	s1,8(a5)
1c006036:	1c0015b7          	lui	a1,0x1c001
1c00603a:	73c58593          	addi	a1,a1,1852 # 0x1c00173c
1c00603e:	456d                	li	a0,27
1c006040:	22a1                	jal	0x1c006188
1c006042:	00204737          	lui	a4,0x204
1c006046:	01470693          	addi	a3,a4,20 # 0x204014
1c00604a:	080007b7          	lui	a5,0x8000
1c00604e:	c29c                	sw	a5,0(a3)
1c006050:	c71c                	sw	a5,8(a4)
1c006052:	39e010ef          	jal	ra,0x1c0073f0
1c006056:	711000ef          	jal	ra,0x1c006f66
1c00605a:	002017b7          	lui	a5,0x201
1c00605e:	40078793          	addi	a5,a5,1024 # 0x201400
1c006062:	c384                	sw	s1,0(a5)
1c006064:	01402473          	csrr	s0,uhartid
1c006068:	1c00a4b7          	lui	s1,0x1c00a
1c00606c:	8415                	srai	s0,s0,0x5
1c00606e:	24fd                	jal	0x1c00635c
1c006070:	f2643433          	p.bclr	s0,s0,25,6
1c006074:	1eb000ef          	jal	ra,0x1c006a5e
1c006078:	97848493          	addi	s1,s1,-1672 # 0x1c009978
1c00607c:	01b000ef          	jal	ra,0x1c006896
1c006080:	1ca020ef          	jal	ra,0x1c00824a
1c006084:	0044a78b          	p.lw	a5,4(s1!)
1c006088:	ebad                	bnez	a5,0x1c0060fa
1c00608a:	300467f3          	csrrsi	a5,mstatus,8
1c00608e:	4501                	li	a0,0
1c006090:	2c71                	jal	0x1c00632c
1c006092:	e539                	bnez	a0,0x1c0060e0
1c006094:	014027f3          	csrr	a5,uhartid
1c006098:	8795                	srai	a5,a5,0x5
1c00609a:	f267b7b3          	p.bclr	a5,a5,25,6
1c00609e:	02000713          	li	a4,32
1c0060a2:	0ae78263          	beq	a5,a4,0x1c006146
1c0060a6:	4681                	li	a3,0
1c0060a8:	4601                	li	a2,0
1c0060aa:	4581                	li	a1,0
1c0060ac:	4505                	li	a0,1
1c0060ae:	cba1                	beqz	a5,0x1c0060fe
1c0060b0:	08d010ef          	jal	ra,0x1c00793c
1c0060b4:	6591                	lui	a1,0x4
1c0060b6:	4509                	li	a0,2
1c0060b8:	0ff000ef          	jal	ra,0x1c0069b6
1c0060bc:	872a                	mv	a4,a0
1c0060be:	c10d                	beqz	a0,0x1c0060e0
1c0060c0:	6805                	lui	a6,0x1
1c0060c2:	80080813          	addi	a6,a6,-2048 # 0x800
1c0060c6:	1c006637          	lui	a2,0x1c006
1c0060ca:	c002                	sw	zero,0(sp)
1c0060cc:	48a1                	li	a7,8
1c0060ce:	87c2                	mv	a5,a6
1c0060d0:	4681                	li	a3,0
1c0060d2:	fbc60613          	addi	a2,a2,-68 # 0x1c005fbc
1c0060d6:	4581                	li	a1,0
1c0060d8:	4501                	li	a0,0
1c0060da:	7d2010ef          	jal	ra,0x1c0078ac
1c0060de:	c525                	beqz	a0,0x1c006146
1c0060e0:	1c00a537          	lui	a0,0x1c00a
1c0060e4:	01402673          	csrr	a2,uhartid
1c0060e8:	85a2                	mv	a1,s0
1c0060ea:	f4563633          	p.bclr	a2,a2,26,5
1c0060ee:	e5450513          	addi	a0,a0,-428 # 0x1c009e54
1c0060f2:	265020ef          	jal	ra,0x1c008b56
1c0060f6:	1e5020ef          	jal	ra,0x1c008ada
1c0060fa:	9782                	jalr	a5
1c0060fc:	b761                	j	0x1c006084
1c0060fe:	03f010ef          	jal	ra,0x1c00793c
1c006102:	6591                	lui	a1,0x4
1c006104:	80058593          	addi	a1,a1,-2048 # 0x3800
1c006108:	4509                	li	a0,2
1c00610a:	0ad000ef          	jal	ra,0x1c0069b6
1c00610e:	d969                	beqz	a0,0x1c0060e0
1c006110:	00204737          	lui	a4,0x204
1c006114:	0ff00793          	li	a5,255
1c006118:	08f72223          	sw	a5,132(a4) # 0x204084
1c00611c:	1c00a7b7          	lui	a5,0x1c00a
1c006120:	8bc78793          	addi	a5,a5,-1860 # 0x1c0098bc
1c006124:	c007c7b3          	p.bset	a5,a5,0,0
1c006128:	08f72023          	sw	a5,128(a4)
1c00612c:	6785                	lui	a5,0x1
1c00612e:	80078793          	addi	a5,a5,-2048 # 0x800
1c006132:	08f72023          	sw	a5,128(a4)
1c006136:	08a72023          	sw	a0,128(a4)
1c00613a:	4462                	lw	s0,24(sp)
1c00613c:	40f2                	lw	ra,28(sp)
1c00613e:	44d2                	lw	s1,20(sp)
1c006140:	4501                	li	a0,0
1c006142:	6105                	addi	sp,sp,32
1c006144:	bda5                	j	0x1c005fbc
1c006146:	40f2                	lw	ra,28(sp)
1c006148:	4462                	lw	s0,24(sp)
1c00614a:	44d2                	lw	s1,20(sp)
1c00614c:	6105                	addi	sp,sp,32
1c00614e:	8082                	ret
1c006150:	1c00a7b7          	lui	a5,0x1c00a
1c006154:	52c7a783          	lw	a5,1324(a5) # 0x1c00a52c
1c006158:	1141                	addi	sp,sp,-16
1c00615a:	c606                	sw	ra,12(sp)
1c00615c:	c422                	sw	s0,8(sp)
1c00615e:	0037b463          	p.bneimm	a5,3,0x1c006166
1c006162:	7d005073          	csrwi	0x7d0,0
1c006166:	4505                	li	a0,1
1c006168:	1c00a437          	lui	s0,0x1c00a
1c00616c:	22c1                	jal	0x1c00632c
1c00616e:	9c040413          	addi	s0,s0,-1600 # 0x1c0099c0
1c006172:	0044278b          	p.lw	a5,4(s0!)
1c006176:	e789                	bnez	a5,0x1c006180
1c006178:	40b2                	lw	ra,12(sp)
1c00617a:	4422                	lw	s0,8(sp)
1c00617c:	0141                	addi	sp,sp,16
1c00617e:	8082                	ret
1c006180:	9782                	jalr	a5
1c006182:	bfc5                	j	0x1c006172
1c006184:	c14c                	sw	a1,4(a0)
1c006186:	8082                	ret
1c006188:	014027f3          	csrr	a5,uhartid
1c00618c:	02000713          	li	a4,32
1c006190:	ca5797b3          	p.extractu	a5,a5,5,5
1c006194:	02e79c63          	bne	a5,a4,0x1c0061cc
1c006198:	30502773          	csrr	a4,mtvec
1c00619c:	050a                	slli	a0,a0,0x2
1c00619e:	8d89                	sub	a1,a1,a0
1c0061a0:	8d99                	sub	a1,a1,a4
1c0061a2:	c14586b3          	p.extract	a3,a1,0,20
1c0061a6:	06f00793          	li	a5,111
1c0061aa:	c1f6a7b3          	p.insert	a5,a3,0,31
1c0061ae:	d21586b3          	p.extract	a3,a1,9,1
1c0061b2:	d356a7b3          	p.insert	a5,a3,9,21
1c0061b6:	c0b586b3          	p.extract	a3,a1,0,11
1c0061ba:	c146a7b3          	p.insert	a5,a3,0,20
1c0061be:	cec585b3          	p.extract	a1,a1,7,12
1c0061c2:	cec5a7b3          	p.insert	a5,a1,7,12
1c0061c6:	00f56723          	p.sw	a5,a4(a0)
1c0061ca:	8082                	ret
1c0061cc:	002007b7          	lui	a5,0x200
1c0061d0:	43b8                	lw	a4,64(a5)
1c0061d2:	b7e9                	j	0x1c00619c
1c0061d4:	8082                	ret
1c0061d6:	1b0007b7          	lui	a5,0x1b000
1c0061da:	3f87a703          	lw	a4,1016(a5) # 0x1b0003f8
1c0061de:	1141                	addi	sp,sp,-16
1c0061e0:	c422                	sw	s0,8(sp)
1c0061e2:	c606                	sw	ra,12(sp)
1c0061e4:	fc173733          	p.bclr	a4,a4,30,1
1c0061e8:	843e                	mv	s0,a5
1c0061ea:	c315                	beqz	a4,0x1c00620e
1c0061ec:	341026f3          	csrr	a3,mepc
1c0061f0:	01402673          	csrr	a2,uhartid
1c0061f4:	1c00a537          	lui	a0,0x1c00a
1c0061f8:	4298                	lw	a4,0(a3)
1c0061fa:	40565593          	srai	a1,a2,0x5
1c0061fe:	f265b5b3          	p.bclr	a1,a1,25,6
1c006202:	f4563633          	p.bclr	a2,a2,26,5
1c006206:	eac50513          	addi	a0,a0,-340 # 0x1c009eac
1c00620a:	14d020ef          	jal	ra,0x1c008b56
1c00620e:	3f842783          	lw	a5,1016(s0)
1c006212:	c01797b3          	p.extractu	a5,a5,0,1
1c006216:	c399                	beqz	a5,0x1c00621c
1c006218:	0c3020ef          	jal	ra,0x1c008ada
1c00621c:	4422                	lw	s0,8(sp)
1c00621e:	40b2                	lw	ra,12(sp)
1c006220:	0141                	addi	sp,sp,16
1c006222:	fb3ff06f          	j	0x1c0061d4
1c006226:	002046b7          	lui	a3,0x204
1c00622a:	01068793          	addi	a5,a3,16 # 0x204010
1c00622e:	577d                	li	a4,-1
1c006230:	c398                	sw	a4,0(a5)
1c006232:	02000613          	li	a2,32
1c006236:	014027f3          	csrr	a5,uhartid
1c00623a:	ca5797b3          	p.extractu	a5,a5,5,5
1c00623e:	00c79363          	bne	a5,a2,0x1c006244
1c006242:	c2d8                	sw	a4,4(a3)
1c006244:	014027f3          	csrr	a5,uhartid
1c006248:	02000713          	li	a4,32
1c00624c:	ca5797b3          	p.extractu	a5,a5,5,5
1c006250:	00e79963          	bne	a5,a4,0x1c006262
1c006254:	1c0007b7          	lui	a5,0x1c000
1c006258:	00078793          	mv	a5,a5
1c00625c:	30579073          	csrw	mtvec,a5
1c006260:	8082                	ret
1c006262:	1c0007b7          	lui	a5,0x1c000
1c006266:	00200737          	lui	a4,0x200
1c00626a:	00078793          	mv	a5,a5
1c00626e:	c33c                	sw	a5,64(a4)
1c006270:	8082                	ret
1c006272:	300476f3          	csrrci	a3,mstatus,8
1c006276:	08654703          	lbu	a4,134(a0)
1c00627a:	411c                	lw	a5,0(a0)
1c00627c:	c321                	beqz	a4,0x1c0062bc
1c00627e:	4398                	lw	a4,0(a5)
1c006280:	cf09                	beqz	a4,0x1c00629a
1c006282:	43d8                	lw	a4,4(a5)
1c006284:	cb09                	beqz	a4,0x1c006296
1c006286:	4798                	lw	a4,8(a5)
1c006288:	c348                	sw	a0,4(a4)
1c00628a:	c788                	sw	a0,8(a5)
1c00628c:	00052223          	sw	zero,4(a0)
1c006290:	30069073          	csrw	mstatus,a3
1c006294:	8082                	ret
1c006296:	c3c8                	sw	a0,4(a5)
1c006298:	bfcd                	j	0x1c00628a
1c00629a:	4705                	li	a4,1
1c00629c:	08e50223          	sb	a4,132(a0)
1c0062a0:	4705                	li	a4,1
1c0062a2:	c398                	sw	a4,0(a5)
1c0062a4:	08554783          	lbu	a5,133(a0)
1c0062a8:	00201737          	lui	a4,0x201
1c0062ac:	e0470713          	addi	a4,a4,-508 # 0x200e04
1c0062b0:	04078793          	addi	a5,a5,64 # 0x1c000040
1c0062b4:	07da                	slli	a5,a5,0x16
1c0062b6:	0007e723          	p.sw	zero,a4(a5)
1c0062ba:	bfd9                	j	0x1c006290
1c0062bc:	43d8                	lw	a4,4(a5)
1c0062be:	e719                	bnez	a4,0x1c0062cc
1c0062c0:	0007a023          	sw	zero,0(a5)
1c0062c4:	4785                	li	a5,1
1c0062c6:	08f50223          	sb	a5,132(a0)
1c0062ca:	bfe9                	j	0x1c0062a4
1c0062cc:	4350                	lw	a2,4(a4)
1c0062ce:	c3d0                	sw	a2,4(a5)
1c0062d0:	4785                	li	a5,1
1c0062d2:	08f70223          	sb	a5,132(a4)
1c0062d6:	08574783          	lbu	a5,133(a4)
1c0062da:	00201737          	lui	a4,0x201
1c0062de:	e0470713          	addi	a4,a4,-508 # 0x200e04
1c0062e2:	04078793          	addi	a5,a5,64
1c0062e6:	07da                	slli	a5,a5,0x16
1c0062e8:	0007e723          	p.sw	zero,a4(a5)
1c0062ec:	bfe1                	j	0x1c0062c4
1c0062ee:	1101                	addi	sp,sp,-32
1c0062f0:	cc22                	sw	s0,24(sp)
1c0062f2:	ca26                	sw	s1,20(sp)
1c0062f4:	842a                	mv	s0,a0
1c0062f6:	84ae                	mv	s1,a1
1c0062f8:	4501                	li	a0,0
1c0062fa:	45b1                	li	a1,12
1c0062fc:	c632                	sw	a2,12(sp)
1c0062fe:	ce06                	sw	ra,28(sp)
1c006300:	2d5d                	jal	0x1c0069b6
1c006302:	4632                	lw	a2,12(sp)
1c006304:	c115                	beqz	a0,0x1c006328
1c006306:	1b0007b7          	lui	a5,0x1b000
1c00630a:	040a                	slli	s0,s0,0x2
1c00630c:	3fc78793          	addi	a5,a5,1020 # 0x1b0003fc
1c006310:	97a2                	add	a5,a5,s0
1c006312:	4398                	lw	a4,0(a5)
1c006314:	c104                	sw	s1,0(a0)
1c006316:	c150                	sw	a2,4(a0)
1c006318:	c518                	sw	a4,8(a0)
1c00631a:	c388                	sw	a0,0(a5)
1c00631c:	4501                	li	a0,0
1c00631e:	40f2                	lw	ra,28(sp)
1c006320:	4462                	lw	s0,24(sp)
1c006322:	44d2                	lw	s1,20(sp)
1c006324:	6105                	addi	sp,sp,32
1c006326:	8082                	ret
1c006328:	557d                	li	a0,-1
1c00632a:	bfd5                	j	0x1c00631e
1c00632c:	1141                	addi	sp,sp,-16
1c00632e:	c422                	sw	s0,8(sp)
1c006330:	1b000437          	lui	s0,0x1b000
1c006334:	050a                	slli	a0,a0,0x2
1c006336:	3fc40413          	addi	s0,s0,1020 # 0x1b0003fc
1c00633a:	20a47403          	p.lw	s0,a0(s0)
1c00633e:	c606                	sw	ra,12(sp)
1c006340:	e411                	bnez	s0,0x1c00634c
1c006342:	4501                	li	a0,0
1c006344:	40b2                	lw	ra,12(sp)
1c006346:	4422                	lw	s0,8(sp)
1c006348:	0141                	addi	sp,sp,16
1c00634a:	8082                	ret
1c00634c:	401c                	lw	a5,0(s0)
1c00634e:	4048                	lw	a0,4(s0)
1c006350:	9782                	jalr	a5
1c006352:	e119                	bnez	a0,0x1c006358
1c006354:	4400                	lw	s0,8(s0)
1c006356:	b7ed                	j	0x1c006340
1c006358:	557d                	li	a0,-1
1c00635a:	b7ed                	j	0x1c006344
1c00635c:	1b0007b7          	lui	a5,0x1b000
1c006360:	3fc78793          	addi	a5,a5,1020 # 0x1b0003fc
1c006364:	0007a023          	sw	zero,0(a5)
1c006368:	0007a223          	sw	zero,4(a5)
1c00636c:	0007a423          	sw	zero,8(a5)
1c006370:	0007a623          	sw	zero,12(a5)
1c006374:	0007a823          	sw	zero,16(a5)
1c006378:	0007aa23          	sw	zero,20(a5)
1c00637c:	8082                	ret
1c00637e:	1141                	addi	sp,sp,-16
1c006380:	c422                	sw	s0,8(sp)
1c006382:	842a                	mv	s0,a0
1c006384:	c606                	sw	ra,12(sp)
1c006386:	c226                	sw	s1,4(sp)
1c006388:	300474f3          	csrrci	s1,mstatus,8
1c00638c:	401c                	lw	a5,0(s0)
1c00638e:	eb91                	bnez	a5,0x1c0063a2
1c006390:	4785                	li	a5,1
1c006392:	c01c                	sw	a5,0(s0)
1c006394:	30049073          	csrw	mstatus,s1
1c006398:	40b2                	lw	ra,12(sp)
1c00639a:	4422                	lw	s0,8(sp)
1c00639c:	4492                	lw	s1,4(sp)
1c00639e:	0141                	addi	sp,sp,16
1c0063a0:	8082                	ret
1c0063a2:	4585                	li	a1,1
1c0063a4:	e3ffa517          	auipc	a0,0xe3ffa
1c0063a8:	c7850513          	addi	a0,a0,-904 # 0x1c
1c0063ac:	2191                	jal	0x1c0067f0
1c0063ae:	bff9                	j	0x1c00638c
1c0063b0:	300476f3          	csrrci	a3,mstatus,8
1c0063b4:	415c                	lw	a5,4(a0)
1c0063b6:	e791                	bnez	a5,0x1c0063c2
1c0063b8:	00052023          	sw	zero,0(a0)
1c0063bc:	30069073          	csrw	mstatus,a3
1c0063c0:	8082                	ret
1c0063c2:	43d8                	lw	a4,4(a5)
1c0063c4:	c158                	sw	a4,4(a0)
1c0063c6:	4705                	li	a4,1
1c0063c8:	08e78223          	sb	a4,132(a5)
1c0063cc:	0857c783          	lbu	a5,133(a5)
1c0063d0:	00201737          	lui	a4,0x201
1c0063d4:	e0470713          	addi	a4,a4,-508 # 0x200e04
1c0063d8:	04078793          	addi	a5,a5,64
1c0063dc:	07da                	slli	a5,a5,0x16
1c0063de:	0007e723          	p.sw	zero,a4(a5)
1c0063e2:	bfe9                	j	0x1c0063bc
1c0063e4:	014027f3          	csrr	a5,uhartid
1c0063e8:	8795                	srai	a5,a5,0x5
1c0063ea:	f267b7b3          	p.bclr	a5,a5,25,6
1c0063ee:	08f582a3          	sb	a5,133(a1)
1c0063f2:	4785                	li	a5,1
1c0063f4:	08f58323          	sb	a5,134(a1)
1c0063f8:	1c0067b7          	lui	a5,0x1c006
1c0063fc:	27278793          	addi	a5,a5,626 # 0x1c006272
1c006400:	c188                	sw	a0,0(a1)
1c006402:	08058223          	sb	zero,132(a1)
1c006406:	0205a423          	sw	zero,40(a1)
1c00640a:	0205a623          	sw	zero,44(a1)
1c00640e:	c59c                	sw	a5,8(a1)
1c006410:	c5cc                	sw	a1,12(a1)
1c006412:	05a1                	addi	a1,a1,8
1c006414:	c005c533          	p.bset	a0,a1,0,0
1c006418:	3b40106f          	j	0x1c0077cc
1c00641c:	014027f3          	csrr	a5,uhartid
1c006420:	8795                	srai	a5,a5,0x5
1c006422:	f267b7b3          	p.bclr	a5,a5,25,6
1c006426:	08f582a3          	sb	a5,133(a1)
1c00642a:	1c0067b7          	lui	a5,0x1c006
1c00642e:	27278793          	addi	a5,a5,626 # 0x1c006272
1c006432:	c188                	sw	a0,0(a1)
1c006434:	08058223          	sb	zero,132(a1)
1c006438:	08058323          	sb	zero,134(a1)
1c00643c:	0205a423          	sw	zero,40(a1)
1c006440:	0205a623          	sw	zero,44(a1)
1c006444:	c59c                	sw	a5,8(a1)
1c006446:	c5cc                	sw	a1,12(a1)
1c006448:	05a1                	addi	a1,a1,8
1c00644a:	c005c533          	p.bset	a0,a1,0,0
1c00644e:	37e0106f          	j	0x1c0077cc
1c006452:	01c02783          	lw	a5,28(zero) # 0x1c
1c006456:	00052c23          	sw	zero,24(a0)
1c00645a:	c799                	beqz	a5,0x1c006468
1c00645c:	02002783          	lw	a5,32(zero) # 0x20
1c006460:	cf88                	sw	a0,24(a5)
1c006462:	02a02023          	sw	a0,32(zero) # 0x20
1c006466:	8082                	ret
1c006468:	00a02e23          	sw	a0,28(zero) # 0x1c
1c00646c:	bfdd                	j	0x1c006462
1c00646e:	1c00a737          	lui	a4,0x1c00a
1c006472:	46870793          	addi	a5,a4,1128 # 0x1c00a468
1c006476:	0a47a783          	lw	a5,164(a5)
1c00647a:	46870713          	addi	a4,a4,1128
1c00647e:	c789                	beqz	a5,0x1c006488
1c006480:	4f94                	lw	a3,24(a5)
1c006482:	e681                	bnez	a3,0x1c00648a
1c006484:	0af72623          	sw	a5,172(a4)
1c006488:	8082                	ret
1c00648a:	479c                	lw	a5,8(a5)
1c00648c:	bfcd                	j	0x1c00647e
1c00648e:	014027f3          	csrr	a5,uhartid
1c006492:	02000713          	li	a4,32
1c006496:	ca5797b3          	p.extractu	a5,a5,5,5
1c00649a:	02e79c63          	bne	a5,a4,0x1c0064d2
1c00649e:	1141                	addi	sp,sp,-16
1c0064a0:	c422                	sw	s0,8(sp)
1c0064a2:	1a106437          	lui	s0,0x1a106
1c0064a6:	c606                	sw	ra,12(sp)
1c0064a8:	00442783          	lw	a5,4(s0) # 0x1a106004
1c0064ac:	c187b7b3          	p.bclr	a5,a5,0,24
1c0064b0:	00f42223          	sw	a5,4(s0)
1c0064b4:	4585                	li	a1,1
1c0064b6:	03800513          	li	a0,56
1c0064ba:	1af000ef          	jal	ra,0x1c006e68
1c0064be:	00442783          	lw	a5,4(s0)
1c0064c2:	c187c7b3          	p.bset	a5,a5,0,24
1c0064c6:	00f42223          	sw	a5,4(s0)
1c0064ca:	40b2                	lw	ra,12(sp)
1c0064cc:	4422                	lw	s0,8(sp)
1c0064ce:	0141                	addi	sp,sp,16
1c0064d0:	8082                	ret
1c0064d2:	8082                	ret
1c0064d4:	1141                	addi	sp,sp,-16
1c0064d6:	c422                	sw	s0,8(sp)
1c0064d8:	1c00a437          	lui	s0,0x1c00a
1c0064dc:	46840793          	addi	a5,s0,1128 # 0x1c00a468
1c0064e0:	0a47a783          	lw	a5,164(a5)
1c0064e4:	c606                	sw	ra,12(sp)
1c0064e6:	c226                	sw	s1,4(sp)
1c0064e8:	c04a                	sw	s2,0(sp)
1c0064ea:	46840413          	addi	s0,s0,1128
1c0064ee:	c399                	beqz	a5,0x1c0064f4
1c0064f0:	4bd8                	lw	a4,20(a5)
1c0064f2:	e30d                	bnez	a4,0x1c006514
1c0064f4:	0b442783          	lw	a5,180(s0)
1c0064f8:	c789                	beqz	a5,0x1c006502
1c0064fa:	43a8                	lw	a0,64(a5)
1c0064fc:	0a042a23          	sw	zero,180(s0)
1c006500:	3f89                	jal	0x1c006452
1c006502:	0ac42783          	lw	a5,172(s0)
1c006506:	eb95                	bnez	a5,0x1c00653a
1c006508:	4422                	lw	s0,8(sp)
1c00650a:	40b2                	lw	ra,12(sp)
1c00650c:	4492                	lw	s1,4(sp)
1c00650e:	4902                	lw	s2,0(sp)
1c006510:	0141                	addi	sp,sp,16
1c006512:	bfb1                	j	0x1c00646e
1c006514:	4784                	lw	s1,8(a5)
1c006516:	4fd8                	lw	a4,28(a5)
1c006518:	0a942223          	sw	s1,164(s0)
1c00651c:	cb01                	beqz	a4,0x1c00652c
1c00651e:	0b042703          	lw	a4,176(s0)
1c006522:	c798                	sw	a4,8(a5)
1c006524:	0af42823          	sw	a5,176(s0)
1c006528:	87a6                	mv	a5,s1
1c00652a:	b7d1                	j	0x1c0064ee
1c00652c:	43a8                	lw	a0,64(a5)
1c00652e:	30047973          	csrrci	s2,mstatus,8
1c006532:	3705                	jal	0x1c006452
1c006534:	30091073          	csrw	mstatus,s2
1c006538:	bfc5                	j	0x1c006528
1c00653a:	40b2                	lw	ra,12(sp)
1c00653c:	4422                	lw	s0,8(sp)
1c00653e:	4492                	lw	s1,4(sp)
1c006540:	4902                	lw	s2,0(sp)
1c006542:	0141                	addi	sp,sp,16
1c006544:	8082                	ret
1c006546:	1c00a6b7          	lui	a3,0x1c00a
1c00654a:	46868693          	addi	a3,a3,1128 # 0x1c00a468
1c00654e:	469c                	lw	a5,8(a3)
1c006550:	ef9d                	bnez	a5,0x1c00658e
1c006552:	1a1047b7          	lui	a5,0x1a104
1c006556:	07478793          	addi	a5,a5,116 # 0x1a104074
1c00655a:	4398                	lw	a4,0(a5)
1c00655c:	8325                	srli	a4,a4,0x9
1c00655e:	f8373733          	p.bclr	a4,a4,28,3
1c006562:	02773663          	p.bneimm	a4,7,0x1c00658e
1c006566:	1141                	addi	sp,sp,-16
1c006568:	c422                	sw	s0,8(sp)
1c00656a:	c606                	sw	ra,12(sp)
1c00656c:	4705                	li	a4,1
1c00656e:	c698                	sw	a4,8(a3)
1c006570:	4709                	li	a4,2
1c006572:	c398                	sw	a4,0(a5)
1c006574:	843e                	mv	s0,a5
1c006576:	401c                	lw	a5,0(s0)
1c006578:	83a5                	srli	a5,a5,0x9
1c00657a:	f837b7b3          	p.bclr	a5,a5,28,3
1c00657e:	0077a663          	p.beqimm	a5,7,0x1c00658a
1c006582:	40b2                	lw	ra,12(sp)
1c006584:	4422                	lw	s0,8(sp)
1c006586:	0141                	addi	sp,sp,16
1c006588:	8082                	ret
1c00658a:	3711                	jal	0x1c00648e
1c00658c:	b7ed                	j	0x1c006576
1c00658e:	8082                	ret
1c006590:	1c00a7b7          	lui	a5,0x1c00a
1c006594:	46878793          	addi	a5,a5,1128 # 0x1c00a468
1c006598:	4798                	lw	a4,8(a5)
1c00659a:	1a1047b7          	lui	a5,0x1a104
1c00659e:	07478793          	addi	a5,a5,116 # 0x1a104074
1c0065a2:	e701                	bnez	a4,0x1c0065aa
1c0065a4:	4721                	li	a4,8
1c0065a6:	c398                	sw	a4,0(a5)
1c0065a8:	8082                	ret
1c0065aa:	4709                	li	a4,2
1c0065ac:	bfed                	j	0x1c0065a6
1c0065ae:	1141                	addi	sp,sp,-16
1c0065b0:	c606                	sw	ra,12(sp)
1c0065b2:	3f51                	jal	0x1c006546
1c0065b4:	1c00a7b7          	lui	a5,0x1c00a
1c0065b8:	46878793          	addi	a5,a5,1128 # 0x1c00a468
1c0065bc:	479c                	lw	a5,8(a5)
1c0065be:	c789                	beqz	a5,0x1c0065c8
1c0065c0:	1a1047b7          	lui	a5,0x1a104
1c0065c4:	4719                	li	a4,6
1c0065c6:	dbf8                	sw	a4,116(a5)
1c0065c8:	40b2                	lw	ra,12(sp)
1c0065ca:	0141                	addi	sp,sp,16
1c0065cc:	8082                	ret
1c0065ce:	1141                	addi	sp,sp,-16
1c0065d0:	c606                	sw	ra,12(sp)
1c0065d2:	3f95                	jal	0x1c006546
1c0065d4:	1c00a7b7          	lui	a5,0x1c00a
1c0065d8:	46878793          	addi	a5,a5,1128 # 0x1c00a468
1c0065dc:	479c                	lw	a5,8(a5)
1c0065de:	c781                	beqz	a5,0x1c0065e6
1c0065e0:	40b2                	lw	ra,12(sp)
1c0065e2:	0141                	addi	sp,sp,16
1c0065e4:	b775                	j	0x1c006590
1c0065e6:	40b2                	lw	ra,12(sp)
1c0065e8:	0141                	addi	sp,sp,16
1c0065ea:	8082                	ret
1c0065ec:	1141                	addi	sp,sp,-16
1c0065ee:	c422                	sw	s0,8(sp)
1c0065f0:	c606                	sw	ra,12(sp)
1c0065f2:	1c00a437          	lui	s0,0x1c00a
1c0065f6:	3f81                	jal	0x1c006546
1c0065f8:	46840793          	addi	a5,s0,1128 # 0x1c00a468
1c0065fc:	479c                	lw	a5,8(a5)
1c0065fe:	c385                	beqz	a5,0x1c00661e
1c006600:	46840413          	addi	s0,s0,1128
1c006604:	485c                	lw	a5,20(s0)
1c006606:	e399                	bnez	a5,0x1c00660c
1c006608:	4c1c                	lw	a5,24(s0)
1c00660a:	cb91                	beqz	a5,0x1c00661e
1c00660c:	374d                	jal	0x1c0065ae
1c00660e:	485c                	lw	a5,20(s0)
1c006610:	e789                	bnez	a5,0x1c00661a
1c006612:	4422                	lw	s0,8(sp)
1c006614:	40b2                	lw	ra,12(sp)
1c006616:	0141                	addi	sp,sp,16
1c006618:	bf5d                	j	0x1c0065ce
1c00661a:	3d95                	jal	0x1c00648e
1c00661c:	bfcd                	j	0x1c00660e
1c00661e:	40b2                	lw	ra,12(sp)
1c006620:	4422                	lw	s0,8(sp)
1c006622:	0141                	addi	sp,sp,16
1c006624:	8082                	ret
1c006626:	1141                	addi	sp,sp,-16
1c006628:	c606                	sw	ra,12(sp)
1c00662a:	c422                	sw	s0,8(sp)
1c00662c:	3f29                	jal	0x1c006546
1c00662e:	1c00a7b7          	lui	a5,0x1c00a
1c006632:	46878793          	addi	a5,a5,1128 # 0x1c00a468
1c006636:	479c                	lw	a5,8(a5)
1c006638:	c7a1                	beqz	a5,0x1c006680
1c00663a:	1a104437          	lui	s0,0x1a104
1c00663e:	377d                	jal	0x1c0065ec
1c006640:	07440413          	addi	s0,s0,116 # 0x1a104074
1c006644:	401c                	lw	a5,0(s0)
1c006646:	83a5                	srli	a5,a5,0x9
1c006648:	f837b7b3          	p.bclr	a5,a5,28,3
1c00664c:	0277ae63          	p.beqimm	a5,7,0x1c006688
1c006650:	4791                	li	a5,4
1c006652:	c01c                	sw	a5,0(s0)
1c006654:	1a104437          	lui	s0,0x1a104
1c006658:	07440413          	addi	s0,s0,116 # 0x1a104074
1c00665c:	401c                	lw	a5,0(s0)
1c00665e:	83a5                	srli	a5,a5,0x9
1c006660:	f837b7b3          	p.bclr	a5,a5,28,3
1c006664:	0277b563          	p.bneimm	a5,7,0x1c00668e
1c006668:	00042023          	sw	zero,0(s0)
1c00666c:	1a104437          	lui	s0,0x1a104
1c006670:	07440413          	addi	s0,s0,116 # 0x1a104074
1c006674:	401c                	lw	a5,0(s0)
1c006676:	83a5                	srli	a5,a5,0x9
1c006678:	f837b7b3          	p.bclr	a5,a5,28,3
1c00667c:	0077ac63          	p.beqimm	a5,7,0x1c006694
1c006680:	40b2                	lw	ra,12(sp)
1c006682:	4422                	lw	s0,8(sp)
1c006684:	0141                	addi	sp,sp,16
1c006686:	8082                	ret
1c006688:	e07ff0ef          	jal	ra,0x1c00648e
1c00668c:	bf65                	j	0x1c006644
1c00668e:	e01ff0ef          	jal	ra,0x1c00648e
1c006692:	b7e9                	j	0x1c00665c
1c006694:	dfbff0ef          	jal	ra,0x1c00648e
1c006698:	bff1                	j	0x1c006674
1c00669a:	1c00a7b7          	lui	a5,0x1c00a
1c00669e:	1b201737          	lui	a4,0x1b201
1c0066a2:	46878793          	addi	a5,a5,1128 # 0x1c00a468
1c0066a6:	e1070713          	addi	a4,a4,-496 # 0x1b200e10
1c0066aa:	0ae7ac23          	sw	a4,184(a5)
1c0066ae:	4705                	li	a4,1
1c0066b0:	0a07a223          	sw	zero,164(a5)
1c0066b4:	0a07a623          	sw	zero,172(a5)
1c0066b8:	0a07aa23          	sw	zero,180(a5)
1c0066bc:	0ae7ae23          	sw	a4,188(a5)
1c0066c0:	00400793          	li	a5,4
1c0066c4:	0007a823          	sw	zero,16(a5)
1c0066c8:	0007a023          	sw	zero,0(a5)
1c0066cc:	8082                	ret
1c0066ce:	1141                	addi	sp,sp,-16
1c0066d0:	c422                	sw	s0,8(sp)
1c0066d2:	c606                	sw	ra,12(sp)
1c0066d4:	842a                	mv	s0,a0
1c0066d6:	02052023          	sw	zero,32(a0)
1c0066da:	02052223          	sw	zero,36(a0)
1c0066de:	45c1                	li	a1,16
1c0066e0:	4501                	li	a0,0
1c0066e2:	2cd1                	jal	0x1c0069b6
1c0066e4:	dc28                	sw	a0,120(s0)
1c0066e6:	02042823          	sw	zero,48(s0)
1c0066ea:	00042023          	sw	zero,0(s0)
1c0066ee:	40b2                	lw	ra,12(sp)
1c0066f0:	4422                	lw	s0,8(sp)
1c0066f2:	0141                	addi	sp,sp,16
1c0066f4:	8082                	ret
1c0066f6:	01800793          	li	a5,24
1c0066fa:	4388                	lw	a0,0(a5)
1c0066fc:	4d18                	lw	a4,24(a0)
1c0066fe:	02052223          	sw	zero,36(a0)
1c006702:	c398                	sw	a4,0(a5)
1c006704:	4785                	li	a5,1
1c006706:	d11c                	sw	a5,32(a0)
1c006708:	00052023          	sw	zero,0(a0)
1c00670c:	8082                	ret
1c00670e:	1101                	addi	sp,sp,-32
1c006710:	c64e                	sw	s3,12(sp)
1c006712:	89ae                	mv	s3,a1
1c006714:	ce06                	sw	ra,28(sp)
1c006716:	cc22                	sw	s0,24(sp)
1c006718:	ca26                	sw	s1,20(sp)
1c00671a:	c84a                	sw	s2,16(sp)
1c00671c:	c452                	sw	s4,8(sp)
1c00671e:	c256                	sw	s5,4(sp)
1c006720:	c05a                	sw	s6,0(sp)
1c006722:	30047af3          	csrrci	s5,mstatus,8
1c006726:	014027f3          	csrr	a5,uhartid
1c00672a:	8795                	srai	a5,a5,0x5
1c00672c:	f267b7b3          	p.bclr	a5,a5,25,6
1c006730:	02000713          	li	a4,32
1c006734:	00278513          	addi	a0,a5,2
1c006738:	00e79363          	bne	a5,a4,0x1c00673e
1c00673c:	4505                	li	a0,1
1c00673e:	07c00593          	li	a1,124
1c006742:	02b985b3          	mul	a1,s3,a1
1c006746:	2c85                	jal	0x1c0069b6
1c006748:	842a                	mv	s0,a0
1c00674a:	557d                	li	a0,-1
1c00674c:	cc11                	beqz	s0,0x1c006768
1c00674e:	01800493          	li	s1,24
1c006752:	0461                	addi	s0,s0,24
1c006754:	4901                	li	s2,0
1c006756:	00448b13          	addi	s6,s1,4
1c00675a:	fe840a13          	addi	s4,s0,-24
1c00675e:	01394f63          	blt	s2,s3,0x1c00677c
1c006762:	300a9073          	csrw	mstatus,s5
1c006766:	4501                	li	a0,0
1c006768:	40f2                	lw	ra,28(sp)
1c00676a:	4462                	lw	s0,24(sp)
1c00676c:	44d2                	lw	s1,20(sp)
1c00676e:	4942                	lw	s2,16(sp)
1c006770:	49b2                	lw	s3,12(sp)
1c006772:	4a22                	lw	s4,8(sp)
1c006774:	4a92                	lw	s5,4(sp)
1c006776:	4b02                	lw	s6,0(sp)
1c006778:	6105                	addi	sp,sp,32
1c00677a:	8082                	ret
1c00677c:	85da                	mv	a1,s6
1c00677e:	8552                	mv	a0,s4
1c006780:	37b9                	jal	0x1c0066ce
1c006782:	409c                	lw	a5,0(s1)
1c006784:	0905                	addi	s2,s2,1
1c006786:	06f42e2b          	p.sw	a5,124(s0!)
1c00678a:	0144a023          	sw	s4,0(s1)
1c00678e:	b7f1                	j	0x1c00675a
1c006790:	30047773          	csrrci	a4,mstatus,8
1c006794:	01800793          	li	a5,24
1c006798:	4388                	lw	a0,0(a5)
1c00679a:	c509                	beqz	a0,0x1c0067a4
1c00679c:	4d14                	lw	a3,24(a0)
1c00679e:	c150                	sw	a2,4(a0)
1c0067a0:	c394                	sw	a3,0(a5)
1c0067a2:	c10c                	sw	a1,0(a0)
1c0067a4:	30071073          	csrw	mstatus,a4
1c0067a8:	8082                	ret
1c0067aa:	30047773          	csrrci	a4,mstatus,8
1c0067ae:	01800793          	li	a5,24
1c0067b2:	4388                	lw	a0,0(a5)
1c0067b4:	c909                	beqz	a0,0x1c0067c6
1c0067b6:	4d14                	lw	a3,24(a0)
1c0067b8:	00052223          	sw	zero,4(a0)
1c0067bc:	c394                	sw	a3,0(a5)
1c0067be:	4785                	li	a5,1
1c0067c0:	00052023          	sw	zero,0(a0)
1c0067c4:	d11c                	sw	a5,32(a0)
1c0067c6:	30071073          	csrw	mstatus,a4
1c0067ca:	8082                	ret
1c0067cc:	30047773          	csrrci	a4,mstatus,8
1c0067d0:	01800693          	li	a3,24
1c0067d4:	42d4                	lw	a3,4(a3)
1c0067d6:	00052c23          	sw	zero,24(a0)
1c0067da:	01800793          	li	a5,24
1c0067de:	e691                	bnez	a3,0x1c0067ea
1c0067e0:	c3c8                	sw	a0,4(a5)
1c0067e2:	c788                	sw	a0,8(a5)
1c0067e4:	30071073          	csrw	mstatus,a4
1c0067e8:	8082                	ret
1c0067ea:	4794                	lw	a3,8(a5)
1c0067ec:	ce88                	sw	a0,24(a3)
1c0067ee:	bfd5                	j	0x1c0067e2
1c0067f0:	1141                	addi	sp,sp,-16
1c0067f2:	c422                	sw	s0,8(sp)
1c0067f4:	01800793          	li	a5,24
1c0067f8:	43dc                	lw	a5,4(a5)
1c0067fa:	c606                	sw	ra,12(sp)
1c0067fc:	c226                	sw	s1,4(sp)
1c0067fe:	01800413          	li	s0,24
1c006802:	ef81                	bnez	a5,0x1c00681a
1c006804:	c1b9                	beqz	a1,0x1c00684a
1c006806:	002047b7          	lui	a5,0x204
1c00680a:	0387e703          	p.elw	a4,56(a5) # 0x204038
1c00680e:	300467f3          	csrrsi	a5,mstatus,8
1c006812:	300477f3          	csrrci	a5,mstatus,8
1c006816:	405c                	lw	a5,4(s0)
1c006818:	cb8d                	beqz	a5,0x1c00684a
1c00681a:	4485                	li	s1,1
1c00681c:	4f98                	lw	a4,24(a5)
1c00681e:	53d4                	lw	a3,36(a5)
1c006820:	00978823          	sb	s1,16(a5)
1c006824:	c058                	sw	a4,4(s0)
1c006826:	43c8                	lw	a0,4(a5)
1c006828:	4398                	lw	a4,0(a5)
1c00682a:	e691                	bnez	a3,0x1c006836
1c00682c:	5394                	lw	a3,32(a5)
1c00682e:	e681                	bnez	a3,0x1c006836
1c006830:	4014                	lw	a3,0(s0)
1c006832:	c01c                	sw	a5,0(s0)
1c006834:	cf94                	sw	a3,24(a5)
1c006836:	0207a023          	sw	zero,32(a5)
1c00683a:	c711                	beqz	a4,0x1c006846
1c00683c:	300467f3          	csrrsi	a5,mstatus,8
1c006840:	9702                	jalr	a4
1c006842:	300477f3          	csrrci	a5,mstatus,8
1c006846:	405c                	lw	a5,4(s0)
1c006848:	fbf1                	bnez	a5,0x1c00681c
1c00684a:	40b2                	lw	ra,12(sp)
1c00684c:	4422                	lw	s0,8(sp)
1c00684e:	4492                	lw	s1,4(sp)
1c006850:	0141                	addi	sp,sp,16
1c006852:	8082                	ret
1c006854:	1141                	addi	sp,sp,-16
1c006856:	c422                	sw	s0,8(sp)
1c006858:	c606                	sw	ra,12(sp)
1c00685a:	842a                	mv	s0,a0
1c00685c:	501c                	lw	a5,32(s0)
1c00685e:	ef81                	bnez	a5,0x1c006876
1c006860:	581c                	lw	a5,48(s0)
1c006862:	eb91                	bnez	a5,0x1c006876
1c006864:	01800793          	li	a5,24
1c006868:	4398                	lw	a4,0(a5)
1c00686a:	40b2                	lw	ra,12(sp)
1c00686c:	c380                	sw	s0,0(a5)
1c00686e:	cc18                	sw	a4,24(s0)
1c006870:	4422                	lw	s0,8(sp)
1c006872:	0141                	addi	sp,sp,16
1c006874:	8082                	ret
1c006876:	4585                	li	a1,1
1c006878:	4501                	li	a0,0
1c00687a:	3f9d                	jal	0x1c0067f0
1c00687c:	b7c5                	j	0x1c00685c
1c00687e:	1141                	addi	sp,sp,-16
1c006880:	c606                	sw	ra,12(sp)
1c006882:	c422                	sw	s0,8(sp)
1c006884:	30047473          	csrrci	s0,mstatus,8
1c006888:	37f1                	jal	0x1c006854
1c00688a:	30041073          	csrw	mstatus,s0
1c00688e:	40b2                	lw	ra,12(sp)
1c006890:	4422                	lw	s0,8(sp)
1c006892:	0141                	addi	sp,sp,16
1c006894:	8082                	ret
1c006896:	01800513          	li	a0,24
1c00689a:	00052023          	sw	zero,0(a0)
1c00689e:	00052223          	sw	zero,4(a0)
1c0068a2:	4585                	li	a1,1
1c0068a4:	0511                	addi	a0,a0,4
1c0068a6:	e69ff06f          	j	0x1c00670e
1c0068aa:	30047773          	csrrci	a4,mstatus,8
1c0068ae:	01800693          	li	a3,24
1c0068b2:	42d4                	lw	a3,4(a3)
1c0068b4:	00052c23          	sw	zero,24(a0)
1c0068b8:	01800793          	li	a5,24
1c0068bc:	c699                	beqz	a3,0x1c0068ca
1c0068be:	4794                	lw	a3,8(a5)
1c0068c0:	ce88                	sw	a0,24(a3)
1c0068c2:	c788                	sw	a0,8(a5)
1c0068c4:	30071073          	csrw	mstatus,a4
1c0068c8:	8082                	ret
1c0068ca:	c3c8                	sw	a0,4(a5)
1c0068cc:	bfdd                	j	0x1c0068c2
1c0068ce:	1141                	addi	sp,sp,-16
1c0068d0:	c422                	sw	s0,8(sp)
1c0068d2:	c226                	sw	s1,4(sp)
1c0068d4:	c606                	sw	ra,12(sp)
1c0068d6:	c04a                	sw	s2,0(sp)
1c0068d8:	84aa                	mv	s1,a0
1c0068da:	01c00413          	li	s0,28
1c0068de:	01048783          	lb	a5,16(s1)
1c0068e2:	c799                	beqz	a5,0x1c0068f0
1c0068e4:	40b2                	lw	ra,12(sp)
1c0068e6:	4422                	lw	s0,8(sp)
1c0068e8:	4492                	lw	s1,4(sp)
1c0068ea:	4902                	lw	s2,0(sp)
1c0068ec:	0141                	addi	sp,sp,16
1c0068ee:	8082                	ret
1c0068f0:	30047973          	csrrci	s2,mstatus,8
1c0068f4:	4585                	li	a1,1
1c0068f6:	8522                	mv	a0,s0
1c0068f8:	3de5                	jal	0x1c0067f0
1c0068fa:	30091073          	csrw	mstatus,s2
1c0068fe:	b7c5                	j	0x1c0068de
1c006900:	a43d                	j	0x1c006b2e
1c006902:	00758793          	addi	a5,a1,7
1c006906:	c407b7b3          	p.bclr	a5,a5,2,0
1c00690a:	40b785b3          	sub	a1,a5,a1
1c00690e:	c11c                	sw	a5,0(a0)
1c006910:	8e0d                	sub	a2,a2,a1
1c006912:	00c05763          	blez	a2,0x1c006920
1c006916:	c4063633          	p.bclr	a2,a2,2,0
1c00691a:	c390                	sw	a2,0(a5)
1c00691c:	0007a223          	sw	zero,4(a5)
1c006920:	8082                	ret
1c006922:	411c                	lw	a5,0(a0)
1c006924:	059d                	addi	a1,a1,7
1c006926:	c405b5b3          	p.bclr	a1,a1,2,0
1c00692a:	4701                	li	a4,0
1c00692c:	cb89                	beqz	a5,0x1c00693e
1c00692e:	4394                	lw	a3,0(a5)
1c006930:	43d0                	lw	a2,4(a5)
1c006932:	00b6c863          	blt	a3,a1,0x1c006942
1c006936:	00b69b63          	bne	a3,a1,0x1c00694c
1c00693a:	c719                	beqz	a4,0x1c006948
1c00693c:	c350                	sw	a2,4(a4)
1c00693e:	853e                	mv	a0,a5
1c006940:	8082                	ret
1c006942:	873e                	mv	a4,a5
1c006944:	87b2                	mv	a5,a2
1c006946:	b7dd                	j	0x1c00692c
1c006948:	c110                	sw	a2,0(a0)
1c00694a:	bfd5                	j	0x1c00693e
1c00694c:	00b78833          	add	a6,a5,a1
1c006950:	40b685b3          	sub	a1,a3,a1
1c006954:	00b82023          	sw	a1,0(a6)
1c006958:	00c82223          	sw	a2,4(a6)
1c00695c:	c701                	beqz	a4,0x1c006964
1c00695e:	01072223          	sw	a6,4(a4)
1c006962:	bff1                	j	0x1c00693e
1c006964:	01052023          	sw	a6,0(a0)
1c006968:	bfd9                	j	0x1c00693e
1c00696a:	411c                	lw	a5,0(a0)
1c00696c:	061d                	addi	a2,a2,7
1c00696e:	c4063633          	p.bclr	a2,a2,2,0
1c006972:	4701                	li	a4,0
1c006974:	c399                	beqz	a5,0x1c00697a
1c006976:	02b7e763          	bltu	a5,a1,0x1c0069a4
1c00697a:	00c586b3          	add	a3,a1,a2
1c00697e:	02d79663          	bne	a5,a3,0x1c0069aa
1c006982:	4394                	lw	a3,0(a5)
1c006984:	43dc                	lw	a5,4(a5)
1c006986:	9636                	add	a2,a2,a3
1c006988:	c190                	sw	a2,0(a1)
1c00698a:	c1dc                	sw	a5,4(a1)
1c00698c:	c31d                	beqz	a4,0x1c0069b2
1c00698e:	4314                	lw	a3,0(a4)
1c006990:	00d707b3          	add	a5,a4,a3
1c006994:	00f59d63          	bne	a1,a5,0x1c0069ae
1c006998:	419c                	lw	a5,0(a1)
1c00699a:	97b6                	add	a5,a5,a3
1c00699c:	c31c                	sw	a5,0(a4)
1c00699e:	41dc                	lw	a5,4(a1)
1c0069a0:	c35c                	sw	a5,4(a4)
1c0069a2:	8082                	ret
1c0069a4:	873e                	mv	a4,a5
1c0069a6:	43dc                	lw	a5,4(a5)
1c0069a8:	b7f1                	j	0x1c006974
1c0069aa:	c190                	sw	a2,0(a1)
1c0069ac:	bff9                	j	0x1c00698a
1c0069ae:	c34c                	sw	a1,4(a4)
1c0069b0:	8082                	ret
1c0069b2:	c10c                	sw	a1,0(a0)
1c0069b4:	8082                	ret
1c0069b6:	4785                	li	a5,1
1c0069b8:	00a7fa63          	bleu	a0,a5,0x1c0069cc
1c0069bc:	1c00b7b7          	lui	a5,0x1c00b
1c0069c0:	8147a783          	lw	a5,-2028(a5) # 0x1c00a814
1c0069c4:	1579                	addi	a0,a0,-2
1c0069c6:	050a                	slli	a0,a0,0x2
1c0069c8:	953e                	add	a0,a0,a5
1c0069ca:	bfa1                	j	0x1c006922
1c0069cc:	00153763          	p.bneimm	a0,1,0x1c0069da
1c0069d0:	1c00b537          	lui	a0,0x1c00b
1c0069d4:	81c50513          	addi	a0,a0,-2020 # 0x1c00a81c
1c0069d8:	bfcd                	j	0x1c0069ca
1c0069da:	1c00b537          	lui	a0,0x1c00b
1c0069de:	81850513          	addi	a0,a0,-2024 # 0x1c00a818
1c0069e2:	b7e5                	j	0x1c0069ca
1c0069e4:	4785                	li	a5,1
1c0069e6:	00a7fa63          	bleu	a0,a5,0x1c0069fa
1c0069ea:	1c00b7b7          	lui	a5,0x1c00b
1c0069ee:	8147a783          	lw	a5,-2028(a5) # 0x1c00a814
1c0069f2:	1579                	addi	a0,a0,-2
1c0069f4:	050a                	slli	a0,a0,0x2
1c0069f6:	953e                	add	a0,a0,a5
1c0069f8:	bf8d                	j	0x1c00696a
1c0069fa:	c511                	beqz	a0,0x1c006a06
1c0069fc:	1c00b537          	lui	a0,0x1c00b
1c006a00:	81c50513          	addi	a0,a0,-2020 # 0x1c00a81c
1c006a04:	bfd5                	j	0x1c0069f8
1c006a06:	1c00b537          	lui	a0,0x1c00b
1c006a0a:	81850513          	addi	a0,a0,-2024 # 0x1c00a818
1c006a0e:	b7ed                	j	0x1c0069f8
1c006a10:	1c00b7b7          	lui	a5,0x1c00b
1c006a14:	8147a703          	lw	a4,-2028(a5) # 0x1c00a814
1c006a18:	100007b7          	lui	a5,0x10000
1c006a1c:	01651593          	slli	a1,a0,0x16
1c006a20:	6641                	lui	a2,0x10
1c006a22:	050a                	slli	a0,a0,0x2
1c006a24:	06478793          	addi	a5,a5,100 # 0x10000064
1c006a28:	f9c60613          	addi	a2,a2,-100 # 0xff9c
1c006a2c:	95be                	add	a1,a1,a5
1c006a2e:	953a                	add	a0,a0,a4
1c006a30:	ed3ff06f          	j	0x1c006902
1c006a34:	100005b7          	lui	a1,0x10000
1c006a38:	01651793          	slli	a5,a0,0x16
1c006a3c:	06458593          	addi	a1,a1,100 # 0x10000064
1c006a40:	00b78733          	add	a4,a5,a1
1c006a44:	050a                	slli	a0,a0,0x2
1c006a46:	0791                	addi	a5,a5,4
1c006a48:	6641                	lui	a2,0x10
1c006a4a:	1c00b6b7          	lui	a3,0x1c00b
1c006a4e:	f9860613          	addi	a2,a2,-104 # 0xff98
1c006a52:	95be                	add	a1,a1,a5
1c006a54:	953a                	add	a0,a0,a4
1c006a56:	80e6aa23          	sw	a4,-2028(a3) # 0x1c00a814
1c006a5a:	ea9ff06f          	j	0x1c006902
1c006a5e:	1c00b5b7          	lui	a1,0x1c00b
1c006a62:	8bc58793          	addi	a5,a1,-1860 # 0x1c00a8bc
1c006a66:	1c080637          	lui	a2,0x1c080
1c006a6a:	1c00b537          	lui	a0,0x1c00b
1c006a6e:	1141                	addi	sp,sp,-16
1c006a70:	8e1d                	sub	a2,a2,a5
1c006a72:	8bc58593          	addi	a1,a1,-1860
1c006a76:	81850513          	addi	a0,a0,-2024 # 0x1c00a818
1c006a7a:	c606                	sw	ra,12(sp)
1c006a7c:	c422                	sw	s0,8(sp)
1c006a7e:	e85ff0ef          	jal	ra,0x1c006902
1c006a82:	1b0015b7          	lui	a1,0x1b001
1c006a86:	c3058793          	addi	a5,a1,-976 # 0x1b000c30
1c006a8a:	1b004637          	lui	a2,0x1b004
1c006a8e:	1c00b437          	lui	s0,0x1c00b
1c006a92:	8e1d                	sub	a2,a2,a5
1c006a94:	c3058593          	addi	a1,a1,-976
1c006a98:	81c40513          	addi	a0,s0,-2020 # 0x1c00a81c
1c006a9c:	e67ff0ef          	jal	ra,0x1c006902
1c006aa0:	014027f3          	csrr	a5,uhartid
1c006aa4:	ca5797b3          	p.extractu	a5,a5,5,5
1c006aa8:	e791                	bnez	a5,0x1c006ab4
1c006aaa:	4422                	lw	s0,8(sp)
1c006aac:	40b2                	lw	ra,12(sp)
1c006aae:	4501                	li	a0,0
1c006ab0:	0141                	addi	sp,sp,16
1c006ab2:	b749                	j	0x1c006a34
1c006ab4:	81c40513          	addi	a0,s0,-2020
1c006ab8:	4591                	li	a1,4
1c006aba:	e69ff0ef          	jal	ra,0x1c006922
1c006abe:	40b2                	lw	ra,12(sp)
1c006ac0:	4422                	lw	s0,8(sp)
1c006ac2:	1c00b7b7          	lui	a5,0x1c00b
1c006ac6:	80a7aa23          	sw	a0,-2028(a5) # 0x1c00a814
1c006aca:	0141                	addi	sp,sp,16
1c006acc:	8082                	ret
1c006ace:	4509                	li	a0,2
1c006ad0:	ee7ff06f          	j	0x1c0069b6
1c006ad4:	1c00b7b7          	lui	a5,0x1c00b
1c006ad8:	8147a503          	lw	a0,-2028(a5) # 0x1c00a814
1c006adc:	e8fff06f          	j	0x1c00696a
1c006ae0:	85aa                	mv	a1,a0
1c006ae2:	1c00b537          	lui	a0,0x1c00b
1c006ae6:	81850513          	addi	a0,a0,-2024 # 0x1c00a818
1c006aea:	e39ff06f          	j	0x1c006922
1c006aee:	862e                	mv	a2,a1
1c006af0:	85aa                	mv	a1,a0
1c006af2:	1c00b537          	lui	a0,0x1c00b
1c006af6:	81850513          	addi	a0,a0,-2024 # 0x1c00a818
1c006afa:	e71ff06f          	j	0x1c00696a
1c006afe:	002007b7          	lui	a5,0x200
1c006b02:	40478793          	addi	a5,a5,1028 # 0x200404
1c006b06:	0087a783          	lw	a5,8(a5)
1c006b0a:	1c00a737          	lui	a4,0x1c00a
1c006b0e:	7cf72a23          	sw	a5,2004(a4) # 0x1c00a7d4
1c006b12:	4501                	li	a0,0
1c006b14:	8082                	ret
1c006b16:	1c00a7b7          	lui	a5,0x1c00a
1c006b1a:	7d47a703          	lw	a4,2004(a5) # 0x1c00a7d4
1c006b1e:	002007b7          	lui	a5,0x200
1c006b22:	40478793          	addi	a5,a5,1028 # 0x200404
1c006b26:	00e7a423          	sw	a4,8(a5)
1c006b2a:	4501                	li	a0,0
1c006b2c:	8082                	ret
1c006b2e:	30047373          	csrrci	t1,mstatus,8
1c006b32:	1c00b637          	lui	a2,0x1c00b
1c006b36:	82062703          	lw	a4,-2016(a2) # 0x1c00a820
1c006b3a:	002007b7          	lui	a5,0x200
1c006b3e:	40478793          	addi	a5,a5,1028 # 0x200404
1c006b42:	0087a783          	lw	a5,8(a5)
1c006b46:	46f9                	li	a3,30
1c006b48:	0405e5b3          	p.max	a1,a1,zero
1c006b4c:	02d5c5b3          	div	a1,a1,a3
1c006b50:	800006b7          	lui	a3,0x80000
1c006b54:	fff6c693          	not	a3,a3
1c006b58:	00d7f833          	and	a6,a5,a3
1c006b5c:	0585                	addi	a1,a1,1
1c006b5e:	97ae                	add	a5,a5,a1
1c006b60:	d95c                	sw	a5,52(a0)
1c006b62:	982e                	add	a6,a6,a1
1c006b64:	4781                	li	a5,0
1c006b66:	c719                	beqz	a4,0x1c006b74
1c006b68:	03472883          	lw	a7,52(a4)
1c006b6c:	00d8f8b3          	and	a7,a7,a3
1c006b70:	0108e863          	bltu	a7,a6,0x1c006b80
1c006b74:	cb89                	beqz	a5,0x1c006b86
1c006b76:	cf88                	sw	a0,24(a5)
1c006b78:	cd18                	sw	a4,24(a0)
1c006b7a:	30031073          	csrw	mstatus,t1
1c006b7e:	8082                	ret
1c006b80:	87ba                	mv	a5,a4
1c006b82:	4f18                	lw	a4,24(a4)
1c006b84:	b7cd                	j	0x1c006b66
1c006b86:	002007b7          	lui	a5,0x200
1c006b8a:	40478793          	addi	a5,a5,1028 # 0x200404
1c006b8e:	82a62023          	sw	a0,-2016(a2)
1c006b92:	cd18                	sw	a4,24(a0)
1c006b94:	0087a703          	lw	a4,8(a5)
1c006b98:	95ba                	add	a1,a1,a4
1c006b9a:	00b7a823          	sw	a1,16(a5)
1c006b9e:	08500713          	li	a4,133
1c006ba2:	00e7a023          	sw	a4,0(a5)
1c006ba6:	bfd1                	j	0x1c006b7a
1c006ba8:	1101                	addi	sp,sp,-32
1c006baa:	85aa                	mv	a1,a0
1c006bac:	4501                	li	a0,0
1c006bae:	ce06                	sw	ra,28(sp)
1c006bb0:	cc22                	sw	s0,24(sp)
1c006bb2:	c62e                	sw	a1,12(sp)
1c006bb4:	bf7ff0ef          	jal	ra,0x1c0067aa
1c006bb8:	45b2                	lw	a1,12(sp)
1c006bba:	842a                	mv	s0,a0
1c006bbc:	3f8d                	jal	0x1c006b2e
1c006bbe:	8522                	mv	a0,s0
1c006bc0:	4462                	lw	s0,24(sp)
1c006bc2:	40f2                	lw	ra,28(sp)
1c006bc4:	6105                	addi	sp,sp,32
1c006bc6:	cb9ff06f          	j	0x1c00687e
1c006bca:	1c00b7b7          	lui	a5,0x1c00b
1c006bce:	8207a023          	sw	zero,-2016(a5) # 0x1c00a820
1c006bd2:	002007b7          	lui	a5,0x200
1c006bd6:	1141                	addi	sp,sp,-16
1c006bd8:	08300713          	li	a4,131
1c006bdc:	40478793          	addi	a5,a5,1028 # 0x200404
1c006be0:	c606                	sw	ra,12(sp)
1c006be2:	c422                	sw	s0,8(sp)
1c006be4:	00e7a023          	sw	a4,0(a5)
1c006be8:	1c0075b7          	lui	a1,0x1c007
1c006bec:	c5658593          	addi	a1,a1,-938 # 0x1c006c56
1c006bf0:	452d                	li	a0,11
1c006bf2:	d96ff0ef          	jal	ra,0x1c006188
1c006bf6:	00204737          	lui	a4,0x204
1c006bfa:	6785                	lui	a5,0x1
1c006bfc:	01470693          	addi	a3,a4,20 # 0x204014
1c006c00:	80078793          	addi	a5,a5,-2048 # 0x800
1c006c04:	c29c                	sw	a5,0(a3)
1c006c06:	c71c                	sw	a5,8(a4)
1c006c08:	1c0075b7          	lui	a1,0x1c007
1c006c0c:	4601                	li	a2,0
1c006c0e:	afe58593          	addi	a1,a1,-1282 # 0x1c006afe
1c006c12:	4509                	li	a0,2
1c006c14:	edaff0ef          	jal	ra,0x1c0062ee
1c006c18:	1c0075b7          	lui	a1,0x1c007
1c006c1c:	842a                	mv	s0,a0
1c006c1e:	4601                	li	a2,0
1c006c20:	b1658593          	addi	a1,a1,-1258 # 0x1c006b16
1c006c24:	450d                	li	a0,3
1c006c26:	ec8ff0ef          	jal	ra,0x1c0062ee
1c006c2a:	8d41                	or	a0,a0,s0
1c006c2c:	c10d                	beqz	a0,0x1c006c4e
1c006c2e:	01402673          	csrr	a2,uhartid
1c006c32:	1c00a537          	lui	a0,0x1c00a
1c006c36:	40565593          	srai	a1,a2,0x5
1c006c3a:	f265b5b3          	p.bclr	a1,a1,25,6
1c006c3e:	f4563633          	p.bclr	a2,a2,26,5
1c006c42:	f0850513          	addi	a0,a0,-248 # 0x1c009f08
1c006c46:	711010ef          	jal	ra,0x1c008b56
1c006c4a:	691010ef          	jal	ra,0x1c008ada
1c006c4e:	40b2                	lw	ra,12(sp)
1c006c50:	4422                	lw	s0,8(sp)
1c006c52:	0141                	addi	sp,sp,16
1c006c54:	8082                	ret
1c006c56:	7179                	addi	sp,sp,-48
1c006c58:	ce36                	sw	a3,28(sp)
1c006c5a:	1c00b6b7          	lui	a3,0x1c00b
1c006c5e:	ca3e                	sw	a5,20(sp)
1c006c60:	8206a783          	lw	a5,-2016(a3) # 0x1c00a820
1c006c64:	cc3a                	sw	a4,24(sp)
1c006c66:	00200737          	lui	a4,0x200
1c006c6a:	40470713          	addi	a4,a4,1028 # 0x200404
1c006c6e:	d61a                	sw	t1,44(sp)
1c006c70:	d42a                	sw	a0,40(sp)
1c006c72:	d22e                	sw	a1,36(sp)
1c006c74:	d032                	sw	a2,32(sp)
1c006c76:	c842                	sw	a6,16(sp)
1c006c78:	c646                	sw	a7,12(sp)
1c006c7a:	00872703          	lw	a4,8(a4)
1c006c7e:	01c02583          	lw	a1,28(zero) # 0x1c
1c006c82:	02002603          	lw	a2,32(zero) # 0x20
1c006c86:	800008b7          	lui	a7,0x80000
1c006c8a:	4501                	li	a0,0
1c006c8c:	4801                	li	a6,0
1c006c8e:	ffe8c893          	xori	a7,a7,-2
1c006c92:	e3ad                	bnez	a5,0x1c006cf4
1c006c94:	00080463          	beqz	a6,0x1c006c9c
1c006c98:	00b02e23          	sw	a1,28(zero) # 0x1c
1c006c9c:	c119                	beqz	a0,0x1c006ca2
1c006c9e:	02c02023          	sw	a2,32(zero) # 0x20
1c006ca2:	002007b7          	lui	a5,0x200
1c006ca6:	08100713          	li	a4,129
1c006caa:	40478793          	addi	a5,a5,1028 # 0x200404
1c006cae:	8206a023          	sw	zero,-2016(a3)
1c006cb2:	00e7a023          	sw	a4,0(a5)
1c006cb6:	6785                	lui	a5,0x1
1c006cb8:	00204737          	lui	a4,0x204
1c006cbc:	80078793          	addi	a5,a5,-2048 # 0x800
1c006cc0:	d71c                	sw	a5,40(a4)
1c006cc2:	5332                	lw	t1,44(sp)
1c006cc4:	5522                	lw	a0,40(sp)
1c006cc6:	5592                	lw	a1,36(sp)
1c006cc8:	5602                	lw	a2,32(sp)
1c006cca:	46f2                	lw	a3,28(sp)
1c006ccc:	4762                	lw	a4,24(sp)
1c006cce:	47d2                	lw	a5,20(sp)
1c006cd0:	4842                	lw	a6,16(sp)
1c006cd2:	48b2                	lw	a7,12(sp)
1c006cd4:	6145                	addi	sp,sp,48
1c006cd6:	30200073          	mret
1c006cda:	0187a303          	lw	t1,24(a5)
1c006cde:	0007ac23          	sw	zero,24(a5)
1c006ce2:	c591                	beqz	a1,0x1c006cee
1c006ce4:	ce1c                	sw	a5,24(a2)
1c006ce6:	863e                	mv	a2,a5
1c006ce8:	4505                	li	a0,1
1c006cea:	879a                	mv	a5,t1
1c006cec:	b75d                	j	0x1c006c92
1c006cee:	85be                	mv	a1,a5
1c006cf0:	4805                	li	a6,1
1c006cf2:	bfd5                	j	0x1c006ce6
1c006cf4:	0347a303          	lw	t1,52(a5)
1c006cf8:	40670333          	sub	t1,a4,t1
1c006cfc:	fc68ffe3          	bleu	t1,a7,0x1c006cda
1c006d00:	00080463          	beqz	a6,0x1c006d08
1c006d04:	00b02e23          	sw	a1,28(zero) # 0x1c
1c006d08:	c119                	beqz	a0,0x1c006d0e
1c006d0a:	02c02023          	sw	a2,32(zero) # 0x20
1c006d0e:	82f6a023          	sw	a5,-2016(a3)
1c006d12:	002006b7          	lui	a3,0x200
1c006d16:	40468693          	addi	a3,a3,1028 # 0x200404
1c006d1a:	0086a603          	lw	a2,8(a3)
1c006d1e:	5bdc                	lw	a5,52(a5)
1c006d20:	40e78733          	sub	a4,a5,a4
1c006d24:	9732                	add	a4,a4,a2
1c006d26:	00e6a823          	sw	a4,16(a3)
1c006d2a:	08500793          	li	a5,133
1c006d2e:	00f6a023          	sw	a5,0(a3)
1c006d32:	bf41                	j	0x1c006cc2
1c006d34:	7179                	addi	sp,sp,-48
1c006d36:	d422                	sw	s0,40(sp)
1c006d38:	842a                	mv	s0,a0
1c006d3a:	d606                	sw	ra,44(sp)
1c006d3c:	d226                	sw	s1,36(sp)
1c006d3e:	d04a                	sw	s2,32(sp)
1c006d40:	30047973          	csrrci	s2,mstatus,8
1c006d44:	4015d493          	srai	s1,a1,0x1
1c006d48:	1a102537          	lui	a0,0x1a102
1c006d4c:	049e                	slli	s1,s1,0x7
1c006d4e:	94aa                	add	s1,s1,a0
1c006d50:	00459513          	slli	a0,a1,0x4
1c006d54:	8941                	andi	a0,a0,16
1c006d56:	94aa                	add	s1,s1,a0
1c006d58:	853e                	mv	a0,a5
1c006d5a:	ef89                	bnez	a5,0x1c006d74
1c006d5c:	ce2e                	sw	a1,28(sp)
1c006d5e:	cc32                	sw	a2,24(sp)
1c006d60:	ca36                	sw	a3,20(sp)
1c006d62:	c83a                	sw	a4,16(sp)
1c006d64:	c63e                	sw	a5,12(sp)
1c006d66:	991ff0ef          	jal	ra,0x1c0066f6
1c006d6a:	47b2                	lw	a5,12(sp)
1c006d6c:	4742                	lw	a4,16(sp)
1c006d6e:	46d2                	lw	a3,20(sp)
1c006d70:	4662                	lw	a2,24(sp)
1c006d72:	45f2                	lw	a1,28(sp)
1c006d74:	e419                	bnez	s0,0x1c006d82
1c006d76:	03450413          	addi	s0,a0,52 # 0x1a102034
1c006d7a:	04052023          	sw	zero,64(a0)
1c006d7e:	04052823          	sw	zero,80(a0)
1c006d82:	00c42803          	lw	a6,12(s0)
1c006d86:	c054                	sw	a3,4(s0)
1c006d88:	cc08                	sw	a0,24(s0)
1c006d8a:	f6483833          	p.bclr	a6,a6,27,4
1c006d8e:	4891                	li	a7,4
1c006d90:	c0474733          	p.bset	a4,a4,0,4
1c006d94:	0908e163          	bltu	a7,a6,0x1c006e16
1c006d98:	03000893          	li	a7,48
1c006d9c:	0596                	slli	a1,a1,0x5
1c006d9e:	98ae                	add	a7,a7,a1
1c006da0:	0008a303          	lw	t1,0(a7) # 0x80000000
1c006da4:	00042a23          	sw	zero,20(s0)
1c006da8:	03000813          	li	a6,48
1c006dac:	02031b63          	bnez	t1,0x1c006de2
1c006db0:	0088a023          	sw	s0,0(a7)
1c006db4:	00b808b3          	add	a7,a6,a1
1c006db8:	0088a303          	lw	t1,8(a7)
1c006dbc:	0088a223          	sw	s0,4(a7)
1c006dc0:	02031663          	bnez	t1,0x1c006dec
1c006dc4:	00848893          	addi	a7,s1,8
1c006dc8:	0008a883          	lw	a7,0(a7)
1c006dcc:	0208f893          	andi	a7,a7,32
1c006dd0:	00089e63          	bnez	a7,0x1c006dec
1c006dd4:	00c4a023          	sw	a2,0(s1)
1c006dd8:	00d4a223          	sw	a3,4(s1)
1c006ddc:	00e4a423          	sw	a4,8(s1)
1c006de0:	a005                	j	0x1c006e00
1c006de2:	0048a883          	lw	a7,4(a7)
1c006de6:	0088aa23          	sw	s0,20(a7)
1c006dea:	b7e9                	j	0x1c006db4
1c006dec:	00042823          	sw	zero,16(s0)
1c006df0:	c010                	sw	a2,0(s0)
1c006df2:	c054                	sw	a3,4(s0)
1c006df4:	c418                	sw	a4,8(s0)
1c006df6:	00031563          	bnez	t1,0x1c006e00
1c006dfa:	982e                	add	a6,a6,a1
1c006dfc:	00882423          	sw	s0,8(a6)
1c006e00:	e399                	bnez	a5,0x1c006e06
1c006e02:	a53ff0ef          	jal	ra,0x1c006854
1c006e06:	30091073          	csrw	mstatus,s2
1c006e0a:	50b2                	lw	ra,44(sp)
1c006e0c:	5422                	lw	s0,40(sp)
1c006e0e:	5492                	lw	s1,36(sp)
1c006e10:	5902                	lw	s2,32(sp)
1c006e12:	6145                	addi	sp,sp,48
1c006e14:	8082                	ret
1c006e16:	fe6835e3          	p.bneimm	a6,6,0x1c006e00
1c006e1a:	03000893          	li	a7,48
1c006e1e:	0596                	slli	a1,a1,0x5
1c006e20:	98ae                	add	a7,a7,a1
1c006e22:	0008a303          	lw	t1,0(a7)
1c006e26:	00042a23          	sw	zero,20(s0)
1c006e2a:	03000813          	li	a6,48
1c006e2e:	00031f63          	bnez	t1,0x1c006e4c
1c006e32:	0088a023          	sw	s0,0(a7)
1c006e36:	95c2                	add	a1,a1,a6
1c006e38:	c1c0                	sw	s0,4(a1)
1c006e3a:	00031e63          	bnez	t1,0x1c006e56
1c006e3e:	02442803          	lw	a6,36(s0)
1c006e42:	1a1025b7          	lui	a1,0x1a102
1c006e46:	1b05a023          	sw	a6,416(a1) # 0x1a1021a0
1c006e4a:	b769                	j	0x1c006dd4
1c006e4c:	0048a883          	lw	a7,4(a7)
1c006e50:	0088aa23          	sw	s0,20(a7)
1c006e54:	b7cd                	j	0x1c006e36
1c006e56:	c418                	sw	a4,8(s0)
1c006e58:	4598                	lw	a4,8(a1)
1c006e5a:	c010                	sw	a2,0(s0)
1c006e5c:	c054                	sw	a3,4(s0)
1c006e5e:	00042823          	sw	zero,16(s0)
1c006e62:	ff59                	bnez	a4,0x1c006e00
1c006e64:	c580                	sw	s0,8(a1)
1c006e66:	bf69                	j	0x1c006e00
1c006e68:	30047673          	csrrci	a2,mstatus,8
1c006e6c:	477d                	li	a4,31
1c006e6e:	4781                	li	a5,0
1c006e70:	00a75463          	ble	a0,a4,0x1c006e78
1c006e74:	1501                	addi	a0,a0,-32
1c006e76:	4785                	li	a5,1
1c006e78:	00279713          	slli	a4,a5,0x2
1c006e7c:	4685                	li	a3,1
1c006e7e:	03000793          	li	a5,48
1c006e82:	00a696b3          	sll	a3,a3,a0
1c006e86:	97ba                	add	a5,a5,a4
1c006e88:	00204837          	lui	a6,0x204
1c006e8c:	2807a703          	lw	a4,640(a5)
1c006e90:	8f75                	and	a4,a4,a3
1c006e92:	cf19                	beqz	a4,0x1c006eb0
1c006e94:	c999                	beqz	a1,0x1c006eaa
1c006e96:	2807a683          	lw	a3,640(a5)
1c006e9a:	4705                	li	a4,1
1c006e9c:	00a71533          	sll	a0,a4,a0
1c006ea0:	fff54513          	not	a0,a0
1c006ea4:	8d75                	and	a0,a0,a3
1c006ea6:	28a7a023          	sw	a0,640(a5)
1c006eaa:	30061073          	csrw	mstatus,a2
1c006eae:	8082                	ret
1c006eb0:	03886703          	p.elw	a4,56(a6) # 0x204038
1c006eb4:	30046773          	csrrsi	a4,mstatus,8
1c006eb8:	30047773          	csrrci	a4,mstatus,8
1c006ebc:	bfc1                	j	0x1c006e8c
1c006ebe:	1c001537          	lui	a0,0x1c001
1c006ec2:	03000693          	li	a3,48
1c006ec6:	4601                	li	a2,0
1c006ec8:	03000713          	li	a4,48
1c006ecc:	1a1028b7          	lui	a7,0x1a102
1c006ed0:	5fc50513          	addi	a0,a0,1532 # 0x1c0015fc
1c006ed4:	014950fb          	lp.setupi	x1,20,0x1c006ef8
1c006ed8:	40165793          	srai	a5,a2,0x1
1c006edc:	00461813          	slli	a6,a2,0x4
1c006ee0:	079e                	slli	a5,a5,0x7
1c006ee2:	97c6                	add	a5,a5,a7
1c006ee4:	01087813          	andi	a6,a6,16
1c006ee8:	97c2                	add	a5,a5,a6
1c006eea:	0006a023          	sw	zero,0(a3)
1c006eee:	0006a423          	sw	zero,8(a3)
1c006ef2:	c6dc                	sw	a5,12(a3)
1c006ef4:	cec8                	sw	a0,28(a3)
1c006ef6:	0605                	addi	a2,a2,1
1c006ef8:	02068693          	addi	a3,a3,32
1c006efc:	1c0016b7          	lui	a3,0x1c001
1c006f00:	28870613          	addi	a2,a4,648 # 0x204288
1c006f04:	7a268693          	addi	a3,a3,1954 # 0x1c0017a2
1c006f08:	00a250fb          	lp.setupi	x1,10,0x1c006f10
1c006f0c:	00d6222b          	p.sw	a3,4(a2!)
1c006f10:	0001                	nop
1c006f12:	28072023          	sw	zero,640(a4)
1c006f16:	28072223          	sw	zero,644(a4)
1c006f1a:	8082                	ret
1c006f1c:	1141                	addi	sp,sp,-16
1c006f1e:	c226                	sw	s1,4(sp)
1c006f20:	84ae                	mv	s1,a1
1c006f22:	c606                	sw	ra,12(sp)
1c006f24:	c422                	sw	s0,8(sp)
1c006f26:	c04a                	sw	s2,0(sp)
1c006f28:	30047973          	csrrci	s2,mstatus,8
1c006f2c:	1c00b437          	lui	s0,0x1c00b
1c006f30:	00153f63          	p.bneimm	a0,1,0x1c006f4e
1c006f34:	82440413          	addi	s0,s0,-2012 # 0x1c00a824
1c006f38:	2369                	jal	0x1c0074c2
1c006f3a:	c044                	sw	s1,4(s0)
1c006f3c:	30091073          	csrw	mstatus,s2
1c006f40:	40b2                	lw	ra,12(sp)
1c006f42:	4422                	lw	s0,8(sp)
1c006f44:	4492                	lw	s1,4(sp)
1c006f46:	4902                	lw	s2,0(sp)
1c006f48:	4501                	li	a0,0
1c006f4a:	0141                	addi	sp,sp,16
1c006f4c:	8082                	ret
1c006f4e:	4511                	li	a0,4
1c006f50:	bdcff0ef          	jal	ra,0x1c00632c
1c006f54:	85a6                	mv	a1,s1
1c006f56:	4501                	li	a0,0
1c006f58:	23ad                	jal	0x1c0074c2
1c006f5a:	4515                	li	a0,5
1c006f5c:	82942223          	sw	s1,-2012(s0)
1c006f60:	bccff0ef          	jal	ra,0x1c00632c
1c006f64:	bfe1                	j	0x1c006f3c
1c006f66:	1141                	addi	sp,sp,-16
1c006f68:	c422                	sw	s0,8(sp)
1c006f6a:	c606                	sw	ra,12(sp)
1c006f6c:	2b91                	jal	0x1c0074c0
1c006f6e:	1c00a7b7          	lui	a5,0x1c00a
1c006f72:	52c7a783          	lw	a5,1324(a5) # 0x1c00a52c
1c006f76:	1c00b437          	lui	s0,0x1c00b
1c006f7a:	0017ae63          	p.beqimm	a5,1,0x1c006f96
1c006f7e:	4501                	li	a0,0
1c006f80:	2335                	jal	0x1c0074ac
1c006f82:	82a42223          	sw	a0,-2012(s0) # 0x1c00a824
1c006f86:	82440413          	addi	s0,s0,-2012
1c006f8a:	00042223          	sw	zero,4(s0)
1c006f8e:	40b2                	lw	ra,12(sp)
1c006f90:	4422                	lw	s0,8(sp)
1c006f92:	0141                	addi	sp,sp,16
1c006f94:	8082                	ret
1c006f96:	026267b7          	lui	a5,0x2626
1c006f9a:	a0078793          	addi	a5,a5,-1536 # 0x2625a00
1c006f9e:	82f42223          	sw	a5,-2012(s0)
1c006fa2:	b7d5                	j	0x1c006f86
1c006fa4:	100517b3          	p.fl1	a5,a0
1c006fa8:	4769                	li	a4,26
1c006faa:	8f1d                	sub	a4,a4,a5
1c006fac:	4785                	li	a5,1
1c006fae:	04f76733          	p.max	a4,a4,a5
1c006fb2:	47a1                	li	a5,8
1c006fb4:	04f74733          	p.min	a4,a4,a5
1c006fb8:	fff70693          	addi	a3,a4,-1
1c006fbc:	00f55793          	srli	a5,a0,0xf
1c006fc0:	00d797b3          	sll	a5,a5,a3
1c006fc4:	c19c                	sw	a5,0(a1)
1c006fc6:	07be                	slli	a5,a5,0xf
1c006fc8:	c218                	sw	a4,0(a2)
1c006fca:	00d7d533          	srl	a0,a5,a3
1c006fce:	8082                	ret
1c006fd0:	47fd                	li	a5,31
1c006fd2:	4721                	li	a4,8
1c006fd4:	00f50463          	beq	a0,a5,0x1c006fdc
1c006fd8:	1501                	addi	a0,a0,-32
1c006fda:	4711                	li	a4,4
1c006fdc:	1a1066b7          	lui	a3,0x1a106
1c006fe0:	20e6f603          	p.lw	a2,a4(a3)
1c006fe4:	4785                	li	a5,1
1c006fe6:	00a79533          	sll	a0,a5,a0
1c006fea:	fff54513          	not	a0,a0
1c006fee:	8d71                	and	a0,a0,a2
1c006ff0:	00a6e723          	p.sw	a0,a4(a3)
1c006ff4:	8082                	ret
1c006ff6:	1c00a7b7          	lui	a5,0x1c00a
1c006ffa:	52c7a783          	lw	a5,1324(a5) # 0x1c00a52c
1c006ffe:	0817a363          	p.beqimm	a5,1,0x1c007084
1c007002:	1141                	addi	sp,sp,-16
1c007004:	1a1046b7          	lui	a3,0x1a104
1c007008:	c606                	sw	ra,12(sp)
1c00700a:	c422                	sw	s0,8(sp)
1c00700c:	c226                	sw	s1,4(sp)
1c00700e:	c04a                	sw	s2,0(sp)
1c007010:	0706a683          	lw	a3,112(a3) # 0x1a104070
1c007014:	1c00a737          	lui	a4,0x1c00a
1c007018:	53c70713          	addi	a4,a4,1340 # 0x1c00a53c
1c00701c:	00874783          	lbu	a5,8(a4)
1c007020:	8436                	mv	s0,a3
1c007022:	c0079933          	p.extractu	s2,a5,0,0
1c007026:	04193963          	p.bneimm	s2,1,0x1c007078
1c00702a:	01069613          	slli	a2,a3,0x10
1c00702e:	04064563          	bltz	a2,0x1c007078
1c007032:	c007b7b3          	p.bclr	a5,a5,0,0
1c007036:	c0a92433          	p.insert	s0,s2,0,10
1c00703a:	1a1044b7          	lui	s1,0x1a104
1c00703e:	00f70423          	sb	a5,8(a4)
1c007042:	0684a823          	sw	s0,112(s1) # 0x1a104070
1c007046:	4585                	li	a1,1
1c007048:	02300513          	li	a0,35
1c00704c:	e1dff0ef          	jal	ra,0x1c006e68
1c007050:	4785                	li	a5,1
1c007052:	00f4a623          	sw	a5,12(s1)
1c007056:	c0302433          	p.insert	s0,zero,0,3
1c00705a:	0684a823          	sw	s0,112(s1)
1c00705e:	c0d92433          	p.insert	s0,s2,0,13
1c007062:	0684a823          	sw	s0,112(s1)
1c007066:	4422                	lw	s0,8(sp)
1c007068:	40b2                	lw	ra,12(sp)
1c00706a:	4492                	lw	s1,4(sp)
1c00706c:	4902                	lw	s2,0(sp)
1c00706e:	4585                	li	a1,1
1c007070:	457d                	li	a0,31
1c007072:	0141                	addi	sp,sp,16
1c007074:	df5ff06f          	j	0x1c006e68
1c007078:	40b2                	lw	ra,12(sp)
1c00707a:	4422                	lw	s0,8(sp)
1c00707c:	4492                	lw	s1,4(sp)
1c00707e:	4902                	lw	s2,0(sp)
1c007080:	0141                	addi	sp,sp,16
1c007082:	8082                	ret
1c007084:	8082                	ret
1c007086:	7179                	addi	sp,sp,-48
1c007088:	d422                	sw	s0,40(sp)
1c00708a:	d606                	sw	ra,44(sp)
1c00708c:	842a                	mv	s0,a0
1c00708e:	852e                	mv	a0,a1
1c007090:	02143163          	p.bneimm	s0,1,0x1c0070b2
1c007094:	1c00a7b7          	lui	a5,0x1c00a
1c007098:	53c78793          	addi	a5,a5,1340 # 0x1c00a53c
1c00709c:	0087c703          	lbu	a4,8(a5)
1c0070a0:	c00716b3          	p.extractu	a3,a4,0,0
1c0070a4:	0e16a563          	p.beqimm	a3,1,0x1c00718e
1c0070a8:	4501                	li	a0,0
1c0070aa:	50b2                	lw	ra,44(sp)
1c0070ac:	5422                	lw	s0,40(sp)
1c0070ae:	6145                	addi	sp,sp,48
1c0070b0:	8082                	ret
1c0070b2:	ce61                	beqz	a2,0x1c00718a
1c0070b4:	1c00a7b7          	lui	a5,0x1c00a
1c0070b8:	53c78793          	addi	a5,a5,1340 # 0x1c00a53c
1c0070bc:	0087c703          	lbu	a4,8(a5)
1c0070c0:	c2171733          	p.extractu	a4,a4,1,1
1c0070c4:	97ba                	add	a5,a5,a4
1c0070c6:	00a7c783          	lbu	a5,10(a5)
1c0070ca:	03200713          	li	a4,50
1c0070ce:	00e787db          	p.mac	a5,a5,a4,zero
1c0070d2:	22678793          	addi	a5,a5,550
1c0070d6:	e861                	bnez	s0,0x1c0071a6
1c0070d8:	0007a6b7          	lui	a3,0x7a
1c0070dc:	eb237737          	lui	a4,0xeb237
1c0070e0:	12068693          	addi	a3,a3,288 # 0x7a120
1c0070e4:	c8070713          	addi	a4,a4,-896 # 0xeb236c80
1c0070e8:	42d78733          	p.mac	a4,a5,a3
1c0070ec:	fab76ee3          	bltu	a4,a1,0x1c0070a8
1c0070f0:	c62a                	sw	a0,12(sp)
1c0070f2:	d34ff0ef          	jal	ra,0x1c006626
1c0070f6:	4532                	lw	a0,12(sp)
1c0070f8:	082c                	addi	a1,sp,24
1c0070fa:	0870                	addi	a2,sp,28
1c0070fc:	ea9ff0ef          	jal	ra,0x1c006fa4
1c007100:	00441593          	slli	a1,s0,0x4
1c007104:	810047b7          	lui	a5,0x81004
1c007108:	00858813          	addi	a6,a1,8
1c00710c:	1a100737          	lui	a4,0x1a100
1c007110:	10778793          	addi	a5,a5,263 # 0x81004107
1c007114:	00f76823          	p.sw	a5,a6(a4)
1c007118:	4662                	lw	a2,24(sp)
1c00711a:	46f2                	lw	a3,28(sp)
1c00711c:	800007b7          	lui	a5,0x80000
1c007120:	de0627b3          	p.insert	a5,a2,15,0
1c007124:	c7a6a7b3          	p.insert	a5,a3,3,26
1c007128:	00458893          	addi	a7,a1,4
1c00712c:	00f768a3          	p.sw	a5,a7(a4)
1c007130:	46d1                	li	a3,20
1c007132:	02d656b3          	divu	a3,a2,a3
1c007136:	1a100337          	lui	t1,0x1a100
1c00713a:	20b37703          	p.lw	a4,a1(t1)
1c00713e:	8f11                	sub	a4,a4,a2
1c007140:	04070733          	p.avg	a4,a4,zero
1c007144:	fee6cbe3          	blt	a3,a4,0x1c00713a
1c007148:	1c00a6b7          	lui	a3,0x1c00a
1c00714c:	00241713          	slli	a4,s0,0x2
1c007150:	53c68693          	addi	a3,a3,1340 # 0x1c00a53c
1c007154:	9736                	add	a4,a4,a3
1c007156:	d308                	sw	a0,32(a4)
1c007158:	cb08                	sw	a0,16(a4)
1c00715a:	00179713          	slli	a4,a5,0x1
1c00715e:	00075863          	bgez	a4,0x1c00716e
1c007162:	c1e027b3          	p.insert	a5,zero,0,30
1c007166:	1a100737          	lui	a4,0x1a100
1c00716a:	00f768a3          	p.sw	a5,a7(a4)
1c00716e:	810047b7          	lui	a5,0x81004
1c007172:	10b78793          	addi	a5,a5,267 # 0x8100410b
1c007176:	1a100737          	lui	a4,0x1a100
1c00717a:	00f76823          	p.sw	a5,a6(a4)
1c00717e:	f415                	bnez	s0,0x1c0070aa
1c007180:	c62a                	sw	a0,12(sp)
1c007182:	c0eff0ef          	jal	ra,0x1c006590
1c007186:	4532                	lw	a0,12(sp)
1c007188:	b70d                	j	0x1c0070aa
1c00718a:	f43d                	bnez	s0,0x1c0070f8
1c00718c:	b795                	j	0x1c0070f0
1c00718e:	d62d                	beqz	a2,0x1c0070f8
1c007190:	c2171733          	p.extractu	a4,a4,1,1
1c007194:	97ba                	add	a5,a5,a4
1c007196:	00a7c783          	lbu	a5,10(a5)
1c00719a:	03200713          	li	a4,50
1c00719e:	00e787db          	p.mac	a5,a5,a4,zero
1c0071a2:	22678793          	addi	a5,a5,550
1c0071a6:	0006b6b7          	lui	a3,0x6b
1c0071aa:	eaf5a737          	lui	a4,0xeaf5a
1c0071ae:	6c068693          	addi	a3,a3,1728 # 0x6b6c0
1c0071b2:	5c070713          	addi	a4,a4,1472 # 0xeaf5a5c0
1c0071b6:	42d78733          	p.mac	a4,a5,a3
1c0071ba:	f2a77fe3          	bleu	a0,a4,0x1c0070f8
1c0071be:	b5ed                	j	0x1c0070a8
1c0071c0:	7139                	addi	sp,sp,-64
1c0071c2:	dc22                	sw	s0,56(sp)
1c0071c4:	00451413          	slli	s0,a0,0x4
1c0071c8:	d452                	sw	s4,40(sp)
1c0071ca:	1a1007b7          	lui	a5,0x1a100
1c0071ce:	00440a13          	addi	s4,s0,4
1c0071d2:	de06                	sw	ra,60(sp)
1c0071d4:	da26                	sw	s1,52(sp)
1c0071d6:	d84a                	sw	s2,48(sp)
1c0071d8:	d64e                	sw	s3,44(sp)
1c0071da:	d256                	sw	s5,36(sp)
1c0071dc:	d05a                	sw	s6,32(sp)
1c0071de:	ce5e                	sw	s7,28(sp)
1c0071e0:	cc62                	sw	s8,24(sp)
1c0071e2:	2147f783          	p.lw	a5,s4(a5)
1c0071e6:	cd95                	beqz	a1,0x1c007222
1c0071e8:	c7a79733          	p.extractu	a4,a5,3,26
1c0071ec:	1007d7b3          	p.exthz	a5,a5
1c0071f0:	07be                	slli	a5,a5,0xf
1c0071f2:	c701                	beqz	a4,0x1c0071fa
1c0071f4:	177d                	addi	a4,a4,-1
1c0071f6:	00e7d7b3          	srl	a5,a5,a4
1c0071fa:	1c00a737          	lui	a4,0x1c00a
1c0071fe:	050a                	slli	a0,a0,0x2
1c007200:	53c70713          	addi	a4,a4,1340 # 0x1c00a53c
1c007204:	953a                	add	a0,a0,a4
1c007206:	d11c                	sw	a5,32(a0)
1c007208:	c91c                	sw	a5,16(a0)
1c00720a:	50f2                	lw	ra,60(sp)
1c00720c:	5462                	lw	s0,56(sp)
1c00720e:	54d2                	lw	s1,52(sp)
1c007210:	5942                	lw	s2,48(sp)
1c007212:	59b2                	lw	s3,44(sp)
1c007214:	5a22                	lw	s4,40(sp)
1c007216:	5a92                	lw	s5,36(sp)
1c007218:	5b02                	lw	s6,32(sp)
1c00721a:	4bf2                	lw	s7,28(sp)
1c00721c:	4c62                	lw	s8,24(sp)
1c00721e:	6121                	addi	sp,sp,64
1c007220:	8082                	ret
1c007222:	0007d363          	bgez	a5,0x1c007228
1c007226:	c10d                	beqz	a0,0x1c007248
1c007228:	810047b7          	lui	a5,0x81004
1c00722c:	1a1006b7          	lui	a3,0x1a100
1c007230:	00840713          	addi	a4,s0,8
1c007234:	10778793          	addi	a5,a5,263 # 0x81004107
1c007238:	00f6e723          	p.sw	a5,a4(a3)
1c00723c:	014c04b7          	lui	s1,0x14c0
1c007240:	00c40793          	addi	a5,s0,12
1c007244:	0096e7a3          	p.sw	s1,a5(a3)
1c007248:	892a                	mv	s2,a0
1c00724a:	02faf537          	lui	a0,0x2faf
1c00724e:	0070                	addi	a2,sp,12
1c007250:	002c                	addi	a1,sp,8
1c007252:	08050513          	addi	a0,a0,128 # 0x2faf080
1c007256:	d4fff0ef          	jal	ra,0x1c006fa4
1c00725a:	47a2                	lw	a5,8(sp)
1c00725c:	4732                	lw	a4,12(sp)
1c00725e:	800004b7          	lui	s1,0x80000
1c007262:	de07a4b3          	p.insert	s1,a5,15,0
1c007266:	c7a724b3          	p.insert	s1,a4,3,26
1c00726a:	8aaa                	mv	s5,a0
1c00726c:	1a100737          	lui	a4,0x1a100
1c007270:	00976a23          	p.sw	s1,s4(a4)
1c007274:	49d1                	li	s3,20
1c007276:	0337d9b3          	divu	s3,a5,s3
1c00727a:	1a100c37          	lui	s8,0x1a100
1c00727e:	1a106b37          	lui	s6,0x1a106
1c007282:	01000bb7          	lui	s7,0x1000
1c007286:	208c7783          	p.lw	a5,s0(s8)
1c00728a:	4722                	lw	a4,8(sp)
1c00728c:	8f99                	sub	a5,a5,a4
1c00728e:	040787b3          	p.avg	a5,a5,zero
1c007292:	02f9d263          	ble	a5,s3,0x1c0072b6
1c007296:	03800513          	li	a0,56
1c00729a:	d37ff0ef          	jal	ra,0x1c006fd0
1c00729e:	4585                	li	a1,1
1c0072a0:	03800513          	li	a0,56
1c0072a4:	bc5ff0ef          	jal	ra,0x1c006e68
1c0072a8:	004b2783          	lw	a5,4(s6) # 0x1a106004
1c0072ac:	0177e7b3          	or	a5,a5,s7
1c0072b0:	00fb2223          	sw	a5,4(s6)
1c0072b4:	bfc9                	j	0x1c007286
1c0072b6:	1a100737          	lui	a4,0x1a100
1c0072ba:	00976a23          	p.sw	s1,s4(a4)
1c0072be:	1c00a537          	lui	a0,0x1c00a
1c0072c2:	090a                	slli	s2,s2,0x2
1c0072c4:	53c50513          	addi	a0,a0,1340 # 0x1c00a53c
1c0072c8:	810047b7          	lui	a5,0x81004
1c0072cc:	954a                	add	a0,a0,s2
1c0072ce:	0421                	addi	s0,s0,8
1c0072d0:	10b78793          	addi	a5,a5,267 # 0x8100410b
1c0072d4:	03552023          	sw	s5,32(a0)
1c0072d8:	01552823          	sw	s5,16(a0)
1c0072dc:	00f76423          	p.sw	a5,s0(a4)
1c0072e0:	b72d                	j	0x1c00720a
1c0072e2:	1141                	addi	sp,sp,-16
1c0072e4:	c226                	sw	s1,4(sp)
1c0072e6:	1c00a4b7          	lui	s1,0x1c00a
1c0072ea:	c606                	sw	ra,12(sp)
1c0072ec:	c422                	sw	s0,8(sp)
1c0072ee:	c04a                	sw	s2,0(sp)
1c0072f0:	53c48793          	addi	a5,s1,1340 # 0x1c00a53c
1c0072f4:	0087c783          	lbu	a5,8(a5)
1c0072f8:	4501                	li	a0,0
1c0072fa:	c00797b3          	p.extractu	a5,a5,0,0
1c0072fe:	e785                	bnez	a5,0x1c007326
1c007300:	1c00a7b7          	lui	a5,0x1c00a
1c007304:	52c7a783          	lw	a5,1324(a5) # 0x1c00a52c
1c007308:	53c48493          	addi	s1,s1,1340
1c00730c:	0217b363          	p.bneimm	a5,1,0x1c007332
1c007310:	1a1047b7          	lui	a5,0x1a104
1c007314:	0007a623          	sw	zero,12(a5) # 0x1a10400c
1c007318:	0084c783          	lbu	a5,8(s1)
1c00731c:	4505                	li	a0,1
1c00731e:	c007c7b3          	p.bset	a5,a5,0,0
1c007322:	00f48423          	sb	a5,8(s1)
1c007326:	40b2                	lw	ra,12(sp)
1c007328:	4422                	lw	s0,8(sp)
1c00732a:	4492                	lw	s1,4(sp)
1c00732c:	4902                	lw	s2,0(sp)
1c00732e:	0141                	addi	sp,sp,16
1c007330:	8082                	ret
1c007332:	1a104437          	lui	s0,0x1a104
1c007336:	07042403          	lw	s0,112(s0) # 0x1a104070
1c00733a:	c0a417b3          	p.extractu	a5,s0,0,10
1c00733e:	ef89                	bnez	a5,0x1c007358
1c007340:	4785                	li	a5,1
1c007342:	c0a7a433          	p.insert	s0,a5,0,10
1c007346:	1a1047b7          	lui	a5,0x1a104
1c00734a:	0687a823          	sw	s0,112(a5) # 0x1a104070
1c00734e:	4585                	li	a1,1
1c007350:	02300513          	li	a0,35
1c007354:	b15ff0ef          	jal	ra,0x1c006e68
1c007358:	4785                	li	a5,1
1c00735a:	c037a433          	p.insert	s0,a5,0,3
1c00735e:	1a104937          	lui	s2,0x1a104
1c007362:	06892823          	sw	s0,112(s2) # 0x1a104070
1c007366:	4585                	li	a1,1
1c007368:	457d                	li	a0,31
1c00736a:	affff0ef          	jal	ra,0x1c006e68
1c00736e:	00092623          	sw	zero,12(s2)
1c007372:	c0d02433          	p.insert	s0,zero,0,13
1c007376:	06892823          	sw	s0,112(s2)
1c00737a:	c0a02433          	p.insert	s0,zero,0,10
1c00737e:	06892823          	sw	s0,112(s2)
1c007382:	4585                	li	a1,1
1c007384:	02300513          	li	a0,35
1c007388:	ae1ff0ef          	jal	ra,0x1c006e68
1c00738c:	01c4c783          	lbu	a5,28(s1)
1c007390:	0207f793          	andi	a5,a5,32
1c007394:	e789                	bnez	a5,0x1c00739e
1c007396:	4581                	li	a1,0
1c007398:	4505                	li	a0,1
1c00739a:	e27ff0ef          	jal	ra,0x1c0071c0
1c00739e:	c0e44433          	p.bset	s0,s0,0,14
1c0073a2:	1a1047b7          	lui	a5,0x1a104
1c0073a6:	0687a823          	sw	s0,112(a5) # 0x1a104070
1c0073aa:	b7bd                	j	0x1c007318
1c0073ac:	1141                	addi	sp,sp,-16
1c0073ae:	c422                	sw	s0,8(sp)
1c0073b0:	1c00a437          	lui	s0,0x1c00a
1c0073b4:	c606                	sw	ra,12(sp)
1c0073b6:	53c40413          	addi	s0,s0,1340 # 0x1c00a53c
1c0073ba:	a6cff0ef          	jal	ra,0x1c006626
1c0073be:	01c44583          	lbu	a1,28(s0)
1c0073c2:	4501                	li	a0,0
1c0073c4:	c04595b3          	p.extractu	a1,a1,0,4
1c0073c8:	df9ff0ef          	jal	ra,0x1c0071c0
1c0073cc:	00844783          	lbu	a5,8(s0)
1c0073d0:	c00797b3          	p.extractu	a5,a5,0,0
1c0073d4:	0017b963          	p.bneimm	a5,1,0x1c0073e6
1c0073d8:	01c44583          	lbu	a1,28(s0)
1c0073dc:	4505                	li	a0,1
1c0073de:	c05595b3          	p.extractu	a1,a1,0,5
1c0073e2:	ddfff0ef          	jal	ra,0x1c0071c0
1c0073e6:	4422                	lw	s0,8(sp)
1c0073e8:	40b2                	lw	ra,12(sp)
1c0073ea:	0141                	addi	sp,sp,16
1c0073ec:	9a4ff06f          	j	0x1c006590
1c0073f0:	1c00a7b7          	lui	a5,0x1c00a
1c0073f4:	52c7a783          	lw	a5,1324(a5) # 0x1c00a52c
1c0073f8:	0a17a963          	p.beqimm	a5,1,0x1c0074aa
1c0073fc:	1141                	addi	sp,sp,-16
1c0073fe:	1c00b7b7          	lui	a5,0x1c00b
1c007402:	1a104637          	lui	a2,0x1a104
1c007406:	c606                	sw	ra,12(sp)
1c007408:	8207a623          	sw	zero,-2004(a5) # 0x1c00a82c
1c00740c:	10062703          	lw	a4,256(a2) # 0x1a104100
1c007410:	10462683          	lw	a3,260(a2)
1c007414:	1c00a7b7          	lui	a5,0x1c00a
1c007418:	53c78793          	addi	a5,a5,1340 # 0x1c00a53c
1c00741c:	cfd4                	sw	a3,28(a5)
1c00741e:	c2e696b3          	p.extractu	a3,a3,1,14
1c007422:	96be                	add	a3,a3,a5
1c007424:	0286c683          	lbu	a3,40(a3) # 0x1a100028
1c007428:	000786a3          	sb	zero,13(a5)
1c00742c:	00d78423          	sb	a3,8(a5)
1c007430:	c80716b3          	p.extractu	a3,a4,4,0
1c007434:	00d78523          	sb	a3,10(a5)
1c007438:	c90716b3          	p.extractu	a3,a4,4,16
1c00743c:	c9871733          	p.extractu	a4,a4,4,24
1c007440:	00d785a3          	sb	a3,11(a5)
1c007444:	00e78623          	sb	a4,12(a5)
1c007448:	07062783          	lw	a5,112(a2)
1c00744c:	4705                	li	a4,1
1c00744e:	c00727b3          	p.insert	a5,a4,0,0
1c007452:	c09727b3          	p.insert	a5,a4,0,9
1c007456:	06f62823          	sw	a5,112(a2)
1c00745a:	f53ff0ef          	jal	ra,0x1c0073ac
1c00745e:	457d                	li	a0,31
1c007460:	b71ff0ef          	jal	ra,0x1c006fd0
1c007464:	02000513          	li	a0,32
1c007468:	b69ff0ef          	jal	ra,0x1c006fd0
1c00746c:	02100513          	li	a0,33
1c007470:	b61ff0ef          	jal	ra,0x1c006fd0
1c007474:	02200513          	li	a0,34
1c007478:	b59ff0ef          	jal	ra,0x1c006fd0
1c00747c:	02300513          	li	a0,35
1c007480:	b51ff0ef          	jal	ra,0x1c006fd0
1c007484:	02400513          	li	a0,36
1c007488:	b49ff0ef          	jal	ra,0x1c006fd0
1c00748c:	02500513          	li	a0,37
1c007490:	b41ff0ef          	jal	ra,0x1c006fd0
1c007494:	1a1077b7          	lui	a5,0x1a107
1c007498:	471d                	li	a4,7
1c00749a:	00e7a623          	sw	a4,12(a5) # 0x1a10700c
1c00749e:	4761                	li	a4,24
1c0074a0:	00e7a823          	sw	a4,16(a5)
1c0074a4:	40b2                	lw	ra,12(sp)
1c0074a6:	0141                	addi	sp,sp,16
1c0074a8:	8082                	ret
1c0074aa:	8082                	ret
1c0074ac:	00251793          	slli	a5,a0,0x2
1c0074b0:	1c00a537          	lui	a0,0x1c00a
1c0074b4:	53c50513          	addi	a0,a0,1340 # 0x1c00a53c
1c0074b8:	953e                	add	a0,a0,a5
1c0074ba:	5108                	lw	a0,32(a0)
1c0074bc:	8082                	ret
1c0074be:	8082                	ret
1c0074c0:	8082                	ret
1c0074c2:	4601                	li	a2,0
1c0074c4:	bc3ff06f          	j	0x1c007086
1c0074c8:	04050713          	addi	a4,a0,64
1c0074cc:	00400793          	li	a5,4
1c0074d0:	01671613          	slli	a2,a4,0x16
1c0074d4:	e6c7b7b3          	p.bclr	a5,a5,19,12
1c0074d8:	1c00b6b7          	lui	a3,0x1c00b
1c0074dc:	97b2                	add	a5,a5,a2
1c0074de:	85c68693          	addi	a3,a3,-1956 # 0x1c00a85c
1c0074e2:	06000713          	li	a4,96
1c0074e6:	8f95                	sub	a5,a5,a3
1c0074e8:	00f685b3          	add	a1,a3,a5
1c0074ec:	02e04963          	bgtz	a4,0x1c00751e
1c0074f0:	1c00b7b7          	lui	a5,0x1c00b
1c0074f4:	02800713          	li	a4,40
1c0074f8:	83478793          	addi	a5,a5,-1996 # 0x1c00a834
1c0074fc:	42e507b3          	p.mac	a5,a0,a4
1c007500:	00201737          	lui	a4,0x201
1c007504:	e0470713          	addi	a4,a4,-508 # 0x200e04
1c007508:	9732                	add	a4,a4,a2
1c00750a:	cb98                	sw	a4,16(a5)
1c00750c:	00400713          	li	a4,4
1c007510:	e6c73733          	p.bclr	a4,a4,19,12
1c007514:	9732                	add	a4,a4,a2
1c007516:	0007a423          	sw	zero,8(a5)
1c00751a:	cbd8                	sw	a4,20(a5)
1c00751c:	8082                	ret
1c00751e:	0046a80b          	p.lw	a6,4(a3!)
1c007522:	1771                	addi	a4,a4,-4
1c007524:	0105a023          	sw	a6,0(a1)
1c007528:	b7c1                	j	0x1c0074e8
1c00752a:	1c00b537          	lui	a0,0x1c00b
1c00752e:	1141                	addi	sp,sp,-16
1c007530:	02800613          	li	a2,40
1c007534:	4581                	li	a1,0
1c007536:	83450513          	addi	a0,a0,-1996 # 0x1c00a834
1c00753a:	c606                	sw	ra,12(sp)
1c00753c:	c226                	sw	s1,4(sp)
1c00753e:	c422                	sw	s0,8(sp)
1c007540:	2b4010ef          	jal	ra,0x1c0087f4
1c007544:	1c00a5b7          	lui	a1,0x1c00a
1c007548:	8e058593          	addi	a1,a1,-1824 # 0x1c0098e0
1c00754c:	4525                	li	a0,9
1c00754e:	c3bfe0ef          	jal	ra,0x1c006188
1c007552:	1c0015b7          	lui	a1,0x1c001
1c007556:	4bc58593          	addi	a1,a1,1212 # 0x1c0014bc
1c00755a:	4505                	li	a0,1
1c00755c:	c2dfe0ef          	jal	ra,0x1c006188
1c007560:	00204437          	lui	s0,0x204
1c007564:	01440493          	addi	s1,s0,20 # 0x204014
1c007568:	4789                	li	a5,2
1c00756a:	c09c                	sw	a5,0(s1)
1c00756c:	c41c                	sw	a5,8(s0)
1c00756e:	1c0015b7          	lui	a1,0x1c001
1c007572:	48458593          	addi	a1,a1,1156 # 0x1c001484
1c007576:	4511                	li	a0,4
1c007578:	c11fe0ef          	jal	ra,0x1c006188
1c00757c:	47c1                	li	a5,16
1c00757e:	c09c                	sw	a5,0(s1)
1c007580:	c41c                	sw	a5,8(s0)
1c007582:	40b2                	lw	ra,12(sp)
1c007584:	4422                	lw	s0,8(sp)
1c007586:	4492                	lw	s1,4(sp)
1c007588:	4501                	li	a0,0
1c00758a:	0141                	addi	sp,sp,16
1c00758c:	8082                	ret
1c00758e:	7179                	addi	sp,sp,-48
1c007590:	d04a                	sw	s2,32(sp)
1c007592:	ce4e                	sw	s3,28(sp)
1c007594:	1c0009b7          	lui	s3,0x1c000
1c007598:	00400913          	li	s2,4
1c00759c:	08098993          	addi	s3,s3,128 # 0x1c000080
1c0075a0:	d422                	sw	s0,40(sp)
1c0075a2:	d606                	sw	ra,44(sp)
1c0075a4:	d226                	sw	s1,36(sp)
1c0075a6:	cc52                	sw	s4,24(sp)
1c0075a8:	842a                	mv	s0,a0
1c0075aa:	e6c93933          	p.bclr	s2,s2,19,12
1c0075ae:	ce09b9b3          	p.bclr	s3,s3,7,0
1c0075b2:	4c5c                	lw	a5,28(s0)
1c0075b4:	0217ac63          	p.beqimm	a5,1,0x1c0075ec
1c0075b8:	0c27a063          	p.beqimm	a5,2,0x1c007678
1c0075bc:	ebd5                	bnez	a5,0x1c007670
1c0075be:	5018                	lw	a4,32(s0)
1c0075c0:	00042c23          	sw	zero,24(s0)
1c0075c4:	eb01                	bnez	a4,0x1c0075d4
1c0075c6:	5048                	lw	a0,36(s0)
1c0075c8:	006c                	addi	a1,sp,12
1c0075ca:	c602                	sw	zero,12(sp)
1c0075cc:	d17ff0ef          	jal	ra,0x1c0072e2
1c0075d0:	47b2                	lw	a5,12(sp)
1c0075d2:	cc08                	sw	a0,24(s0)
1c0075d4:	4c58                	lw	a4,28(s0)
1c0075d6:	0705                	addi	a4,a4,1
1c0075d8:	cc58                	sw	a4,28(s0)
1c0075da:	dfe1                	beqz	a5,0x1c0075b2
1c0075dc:	50b2                	lw	ra,44(sp)
1c0075de:	5422                	lw	s0,40(sp)
1c0075e0:	5492                	lw	s1,36(sp)
1c0075e2:	5902                	lw	s2,32(sp)
1c0075e4:	49f2                	lw	s3,28(sp)
1c0075e6:	4a62                	lw	s4,24(sp)
1c0075e8:	6145                	addi	sp,sp,48
1c0075ea:	8082                	ret
1c0075ec:	02042a03          	lw	s4,32(s0)
1c0075f0:	040a0493          	addi	s1,s4,64
1c0075f4:	04da                	slli	s1,s1,0x16
1c0075f6:	009907b3          	add	a5,s2,s1
1c0075fa:	0007a023          	sw	zero,0(a5)
1c0075fe:	0007a223          	sw	zero,4(a5)
1c007602:	0007a423          	sw	zero,8(a5)
1c007606:	100007b7          	lui	a5,0x10000
1c00760a:	0607a023          	sw	zero,96(a5) # 0x10000060
1c00760e:	1c00a7b7          	lui	a5,0x1c00a
1c007612:	52c7a783          	lw	a5,1324(a5) # 0x1c00a52c
1c007616:	0017af63          	p.beqimm	a5,1,0x1c007634
1c00761a:	4505                	li	a0,1
1c00761c:	e91ff0ef          	jal	ra,0x1c0074ac
1c007620:	1c00b7b7          	lui	a5,0x1c00b
1c007624:	82478793          	addi	a5,a5,-2012 # 0x1c00a824
1c007628:	43cc                	lw	a1,4(a5)
1c00762a:	c5a9                	beqz	a1,0x1c007674
1c00762c:	4601                	li	a2,0
1c00762e:	4505                	li	a0,1
1c007630:	8edff0ef          	jal	ra,0x1c006f1c
1c007634:	8552                	mv	a0,s4
1c007636:	e93ff0ef          	jal	ra,0x1c0074c8
1c00763a:	8552                	mv	a0,s4
1c00763c:	bd4ff0ef          	jal	ra,0x1c006a10
1c007640:	002017b7          	lui	a5,0x201
1c007644:	40078793          	addi	a5,a5,1024 # 0x201400
1c007648:	577d                	li	a4,-1
1c00764a:	00e4e7a3          	p.sw	a4,a5(s1)
1c00764e:	002007b7          	lui	a5,0x200
1c007652:	04078793          	addi	a5,a5,64 # 0x200040
1c007656:	97a6                	add	a5,a5,s1
1c007658:	008250fb          	lp.setupi	x1,8,0x1c007660
1c00765c:	0137a22b          	p.sw	s3,4(a5!)
1c007660:	0001                	nop
1c007662:	002007b7          	lui	a5,0x200
1c007666:	07a1                	addi	a5,a5,8
1c007668:	0ff00713          	li	a4,255
1c00766c:	00e4e7a3          	p.sw	a4,a5(s1)
1c007670:	4781                	li	a5,0
1c007672:	b78d                	j	0x1c0075d4
1c007674:	c3c8                	sw	a0,4(a5)
1c007676:	bf7d                	j	0x1c007634
1c007678:	505c                	lw	a5,36(s0)
1c00767a:	5b98                	lw	a4,48(a5)
1c00767c:	d398                	sw	a4,32(a5)
1c00767e:	5798                	lw	a4,40(a5)
1c007680:	c398                	sw	a4,0(a5)
1c007682:	57d8                	lw	a4,44(a5)
1c007684:	c3d8                	sw	a4,4(a5)
1c007686:	0207a823          	sw	zero,48(a5) # 0x200030
1c00768a:	505c                	lw	a5,36(s0)
1c00768c:	01c02703          	lw	a4,28(zero) # 0x1c
1c007690:	0007ac23          	sw	zero,24(a5)
1c007694:	cb01                	beqz	a4,0x1c0076a4
1c007696:	02002703          	lw	a4,32(zero) # 0x20
1c00769a:	cf1c                	sw	a5,24(a4)
1c00769c:	02f02023          	sw	a5,32(zero) # 0x20
1c0076a0:	4785                	li	a5,1
1c0076a2:	bf0d                	j	0x1c0075d4
1c0076a4:	00f02e23          	sw	a5,28(zero) # 0x1c
1c0076a8:	bfd5                	j	0x1c00769c
1c0076aa:	00052223          	sw	zero,4(a0)
1c0076ae:	8082                	ret
1c0076b0:	1101                	addi	sp,sp,-32
1c0076b2:	ce06                	sw	ra,28(sp)
1c0076b4:	cc22                	sw	s0,24(sp)
1c0076b6:	ca26                	sw	s1,20(sp)
1c0076b8:	c84a                	sw	s2,16(sp)
1c0076ba:	c64e                	sw	s3,12(sp)
1c0076bc:	30047973          	csrrci	s2,mstatus,8
1c0076c0:	00452983          	lw	s3,4(a0)
1c0076c4:	1c00b4b7          	lui	s1,0x1c00b
1c0076c8:	02800793          	li	a5,40
1c0076cc:	0049a703          	lw	a4,4(s3)
1c0076d0:	83448493          	addi	s1,s1,-1996 # 0x1c00a834
1c0076d4:	42f704b3          	p.mac	s1,a4,a5
1c0076d8:	c504                	sw	s1,8(a0)
1c0076da:	81cff0ef          	jal	ra,0x1c0066f6
1c0076de:	02000713          	li	a4,32
1c0076e2:	014027f3          	csrr	a5,uhartid
1c0076e6:	ca5797b3          	p.extractu	a5,a5,5,5
1c0076ea:	842a                	mv	s0,a0
1c0076ec:	04e79563          	bne	a5,a4,0x1c007736
1c0076f0:	511c                	lw	a5,32(a0)
1c0076f2:	0004ae23          	sw	zero,28(s1)
1c0076f6:	d0c8                	sw	a0,36(s1)
1c0076f8:	d91c                	sw	a5,48(a0)
1c0076fa:	411c                	lw	a5,0(a0)
1c0076fc:	02052223          	sw	zero,36(a0)
1c007700:	d51c                	sw	a5,40(a0)
1c007702:	415c                	lw	a5,4(a0)
1c007704:	c144                	sw	s1,4(a0)
1c007706:	d55c                	sw	a5,44(a0)
1c007708:	1c0077b7          	lui	a5,0x1c007
1c00770c:	58e78793          	addi	a5,a5,1422 # 0x1c00758e
1c007710:	c11c                	sw	a5,0(a0)
1c007712:	4785                	li	a5,1
1c007714:	d11c                	sw	a5,32(a0)
1c007716:	8526                	mv	a0,s1
1c007718:	e77ff0ef          	jal	ra,0x1c00758e
1c00771c:	8522                	mv	a0,s0
1c00771e:	936ff0ef          	jal	ra,0x1c006854
1c007722:	30091073          	csrw	mstatus,s2
1c007726:	40f2                	lw	ra,28(sp)
1c007728:	4462                	lw	s0,24(sp)
1c00772a:	44d2                	lw	s1,20(sp)
1c00772c:	4942                	lw	s2,16(sp)
1c00772e:	49b2                	lw	s3,12(sp)
1c007730:	4501                	li	a0,0
1c007732:	6105                	addi	sp,sp,32
1c007734:	8082                	ret
1c007736:	0049a483          	lw	s1,4(s3)
1c00773a:	8526                	mv	a0,s1
1c00773c:	d8dff0ef          	jal	ra,0x1c0074c8
1c007740:	04048513          	addi	a0,s1,64
1c007744:	002017b7          	lui	a5,0x201
1c007748:	055a                	slli	a0,a0,0x16
1c00774a:	40078793          	addi	a5,a5,1024 # 0x201400
1c00774e:	577d                	li	a4,-1
1c007750:	00e567a3          	p.sw	a4,a5(a0)
1c007754:	002007b7          	lui	a5,0x200
1c007758:	1c000737          	lui	a4,0x1c000
1c00775c:	04478793          	addi	a5,a5,68 # 0x200044
1c007760:	08070713          	addi	a4,a4,128 # 0x1c000080
1c007764:	97aa                	add	a5,a5,a0
1c007766:	ce073733          	p.bclr	a4,a4,7,0
1c00776a:	007250fb          	lp.setupi	x1,7,0x1c007772
1c00776e:	00e7a22b          	p.sw	a4,4(a5!)
1c007772:	0001                	nop
1c007774:	002007b7          	lui	a5,0x200
1c007778:	07a1                	addi	a5,a5,8
1c00777a:	577d                	li	a4,-1
1c00777c:	00e567a3          	p.sw	a4,a5(a0)
1c007780:	8522                	mv	a0,s0
1c007782:	84aff0ef          	jal	ra,0x1c0067cc
1c007786:	bf59                	j	0x1c00771c
1c007788:	451c                	lw	a5,8(a0)
1c00778a:	1101                	addi	sp,sp,-32
1c00778c:	cc22                	sw	s0,24(sp)
1c00778e:	5380                	lw	s0,32(a5)
1c007790:	1c00a7b7          	lui	a5,0x1c00a
1c007794:	52c7a783          	lw	a5,1324(a5) # 0x1c00a52c
1c007798:	ce06                	sw	ra,28(sp)
1c00779a:	0017a563          	p.beqimm	a5,1,0x1c0077a4
1c00779e:	4505                	li	a0,1
1c0077a0:	d1fff0ef          	jal	ra,0x1c0074be
1c0077a4:	c602                	sw	zero,12(sp)
1c0077a6:	e409                	bnez	s0,0x1c0077b0
1c0077a8:	006c                	addi	a1,sp,12
1c0077aa:	4501                	li	a0,0
1c0077ac:	84bff0ef          	jal	ra,0x1c006ff6
1c0077b0:	40f2                	lw	ra,28(sp)
1c0077b2:	4462                	lw	s0,24(sp)
1c0077b4:	4501                	li	a0,0
1c0077b6:	6105                	addi	sp,sp,32
1c0077b8:	8082                	ret
1c0077ba:	4705                	li	a4,1
1c0077bc:	00052a23          	sw	zero,20(a0)
1c0077c0:	c10c                	sw	a1,0(a0)
1c0077c2:	c150                	sw	a2,4(a0)
1c0077c4:	d158                	sw	a4,36(a0)
1c0077c6:	00050823          	sb	zero,16(a0)
1c0077ca:	8082                	ret
1c0077cc:	100006b7          	lui	a3,0x10000
1c0077d0:	06068693          	addi	a3,a3,96 # 0x10000060
1c0077d4:	c146c5b3          	p.bset	a1,a3,0,20
1c0077d8:	4709                	li	a4,2
1c0077da:	002047b7          	lui	a5,0x204
1c0077de:	4190                	lw	a2,0(a1)
1c0077e0:	05f62063          	p.beqimm	a2,-1,0x1c007820
1c0077e4:	01402773          	csrr	a4,uhartid
1c0077e8:	1c00b7b7          	lui	a5,0x1c00b
1c0077ec:	8715                	srai	a4,a4,0x5
1c0077ee:	f2673733          	p.bclr	a4,a4,25,6
1c0077f2:	02800613          	li	a2,40
1c0077f6:	83478793          	addi	a5,a5,-1996 # 0x1c00a834
1c0077fa:	42c707b3          	p.mac	a5,a4,a2
1c0077fe:	4609                	li	a2,2
1c007800:	00204737          	lui	a4,0x204
1c007804:	43cc                	lw	a1,4(a5)
1c007806:	e195                	bnez	a1,0x1c00782a
1c007808:	c3c8                	sw	a0,4(a5)
1c00780a:	1b2017b7          	lui	a5,0x1b201
1c00780e:	e007a223          	sw	zero,-508(a5) # 0x1b200e04
1c007812:	0006a023          	sw	zero,0(a3)
1c007816:	002047b7          	lui	a5,0x204
1c00781a:	1007a223          	sw	zero,260(a5) # 0x204104
1c00781e:	8082                	ret
1c007820:	c798                	sw	a4,8(a5)
1c007822:	03c7e603          	p.elw	a2,60(a5)
1c007826:	c3d8                	sw	a4,4(a5)
1c007828:	bf5d                	j	0x1c0077de
1c00782a:	c710                	sw	a2,8(a4)
1c00782c:	03c76583          	p.elw	a1,60(a4) # 0x20403c
1c007830:	c350                	sw	a2,4(a4)
1c007832:	bfc9                	j	0x1c007804
1c007834:	1c0075b7          	lui	a1,0x1c007
1c007838:	1141                	addi	sp,sp,-16
1c00783a:	4601                	li	a2,0
1c00783c:	52a58593          	addi	a1,a1,1322 # 0x1c00752a
1c007840:	4501                	li	a0,0
1c007842:	c606                	sw	ra,12(sp)
1c007844:	aabfe0ef          	jal	ra,0x1c0062ee
1c007848:	c10d                	beqz	a0,0x1c00786a
1c00784a:	01402673          	csrr	a2,uhartid
1c00784e:	1c00a537          	lui	a0,0x1c00a
1c007852:	40565593          	srai	a1,a2,0x5
1c007856:	f265b5b3          	p.bclr	a1,a1,25,6
1c00785a:	f4563633          	p.bclr	a2,a2,26,5
1c00785e:	f0850513          	addi	a0,a0,-248 # 0x1c009f08
1c007862:	2f4010ef          	jal	ra,0x1c008b56
1c007866:	274010ef          	jal	ra,0x1c008ada
1c00786a:	40b2                	lw	ra,12(sp)
1c00786c:	0141                	addi	sp,sp,16
1c00786e:	8082                	ret
1c007870:	1141                	addi	sp,sp,-16
1c007872:	45b1                	li	a1,12
1c007874:	4505                	li	a0,1
1c007876:	c606                	sw	ra,12(sp)
1c007878:	93eff0ef          	jal	ra,0x1c0069b6
1c00787c:	1c00a7b7          	lui	a5,0x1c00a
1c007880:	7ca7ac23          	sw	a0,2008(a5) # 0x1c00a7d8
1c007884:	e10d                	bnez	a0,0x1c0078a6
1c007886:	01402673          	csrr	a2,uhartid
1c00788a:	1c00a537          	lui	a0,0x1c00a
1c00788e:	40565593          	srai	a1,a2,0x5
1c007892:	f265b5b3          	p.bclr	a1,a1,25,6
1c007896:	f4563633          	p.bclr	a2,a2,26,5
1c00789a:	f5050513          	addi	a0,a0,-176 # 0x1c009f50
1c00789e:	2b8010ef          	jal	ra,0x1c008b56
1c0078a2:	238010ef          	jal	ra,0x1c008ada
1c0078a6:	40b2                	lw	ra,12(sp)
1c0078a8:	0141                	addi	sp,sp,16
1c0078aa:	8082                	ret
1c0078ac:	7139                	addi	sp,sp,-64
1c0078ae:	d84a                	sw	s2,48(sp)
1c0078b0:	4906                	lw	s2,64(sp)
1c0078b2:	dc22                	sw	s0,56(sp)
1c0078b4:	842e                	mv	s0,a1
1c0078b6:	de06                	sw	ra,60(sp)
1c0078b8:	da26                	sw	s1,52(sp)
1c0078ba:	d64e                	sw	s3,44(sp)
1c0078bc:	300479f3          	csrrci	s3,mstatus,8
1c0078c0:	84ca                	mv	s1,s2
1c0078c2:	02091163          	bnez	s2,0x1c0078e4
1c0078c6:	ce32                	sw	a2,28(sp)
1c0078c8:	cc36                	sw	a3,24(sp)
1c0078ca:	ca3a                	sw	a4,20(sp)
1c0078cc:	c83e                	sw	a5,16(sp)
1c0078ce:	c642                	sw	a6,12(sp)
1c0078d0:	c446                	sw	a7,8(sp)
1c0078d2:	e25fe0ef          	jal	ra,0x1c0066f6
1c0078d6:	48a2                	lw	a7,8(sp)
1c0078d8:	4832                	lw	a6,12(sp)
1c0078da:	47c2                	lw	a5,16(sp)
1c0078dc:	4752                	lw	a4,20(sp)
1c0078de:	46e2                	lw	a3,24(sp)
1c0078e0:	4672                	lw	a2,28(sp)
1c0078e2:	84aa                	mv	s1,a0
1c0078e4:	1c00a5b7          	lui	a1,0x1c00a
1c0078e8:	68458513          	addi	a0,a1,1668 # 0x1c00a684
1c0078ec:	c55c                	sw	a5,12(a0)
1c0078ee:	1c00a7b7          	lui	a5,0x1c00a
1c0078f2:	c110                	sw	a2,0(a0)
1c0078f4:	c154                	sw	a3,4(a0)
1c0078f6:	c518                	sw	a4,8(a0)
1c0078f8:	01052823          	sw	a6,16(a0)
1c0078fc:	01152a23          	sw	a7,20(a0)
1c007900:	7d87a503          	lw	a0,2008(a5) # 0x1c00a7d8
1c007904:	47b1                	li	a5,12
1c007906:	8626                	mv	a2,s1
1c007908:	42f40533          	p.mac	a0,s0,a5
1c00790c:	68458593          	addi	a1,a1,1668
1c007910:	2061                	jal	0x1c007998
1c007912:	842a                	mv	s0,a0
1c007914:	cd01                	beqz	a0,0x1c00792c
1c007916:	30099073          	csrw	mstatus,s3
1c00791a:	547d                	li	s0,-1
1c00791c:	8522                	mv	a0,s0
1c00791e:	50f2                	lw	ra,60(sp)
1c007920:	5462                	lw	s0,56(sp)
1c007922:	54d2                	lw	s1,52(sp)
1c007924:	5942                	lw	s2,48(sp)
1c007926:	59b2                	lw	s3,44(sp)
1c007928:	6121                	addi	sp,sp,64
1c00792a:	8082                	ret
1c00792c:	00091563          	bnez	s2,0x1c007936
1c007930:	8526                	mv	a0,s1
1c007932:	f23fe0ef          	jal	ra,0x1c006854
1c007936:	30099073          	csrw	mstatus,s3
1c00793a:	b7cd                	j	0x1c00791c
1c00793c:	7139                	addi	sp,sp,-64
1c00793e:	dc22                	sw	s0,56(sp)
1c007940:	da26                	sw	s1,52(sp)
1c007942:	d84a                	sw	s2,48(sp)
1c007944:	4431                	li	s0,12
1c007946:	1c00a4b7          	lui	s1,0x1c00a
1c00794a:	de06                	sw	ra,60(sp)
1c00794c:	d64e                	sw	s3,44(sp)
1c00794e:	8936                	mv	s2,a3
1c007950:	02858433          	mul	s0,a1,s0
1c007954:	7d848493          	addi	s1,s1,2008 # 0x1c00a7d8
1c007958:	c91d                	beqz	a0,0x1c00798e
1c00795a:	0068                	addi	a0,sp,12
1c00795c:	89ae                	mv	s3,a1
1c00795e:	d4dff0ef          	jal	ra,0x1c0076aa
1c007962:	4088                	lw	a0,0(s1)
1c007964:	006c                	addi	a1,sp,12
1c007966:	9522                	add	a0,a0,s0
1c007968:	81dfe0ef          	jal	ra,0x1c006184
1c00796c:	4088                	lw	a0,0(s1)
1c00796e:	c84e                	sw	s3,16(sp)
1c007970:	9522                	add	a0,a0,s0
1c007972:	d3fff0ef          	jal	ra,0x1c0076b0
1c007976:	00090563          	beqz	s2,0x1c007980
1c00797a:	854a                	mv	a0,s2
1c00797c:	e51fe0ef          	jal	ra,0x1c0067cc
1c007980:	50f2                	lw	ra,60(sp)
1c007982:	5462                	lw	s0,56(sp)
1c007984:	54d2                	lw	s1,52(sp)
1c007986:	5942                	lw	s2,48(sp)
1c007988:	59b2                	lw	s3,44(sp)
1c00798a:	6121                	addi	sp,sp,64
1c00798c:	8082                	ret
1c00798e:	4088                	lw	a0,0(s1)
1c007990:	9522                	add	a0,a0,s0
1c007992:	df7ff0ef          	jal	ra,0x1c007788
1c007996:	b7c5                	j	0x1c007976
1c007998:	1101                	addi	sp,sp,-32
1c00799a:	ca26                	sw	s1,20(sp)
1c00799c:	4504                	lw	s1,8(a0)
1c00799e:	cc22                	sw	s0,24(sp)
1c0079a0:	c256                	sw	s5,4(sp)
1c0079a2:	842e                	mv	s0,a1
1c0079a4:	8ab2                	mv	s5,a2
1c0079a6:	ce06                	sw	ra,28(sp)
1c0079a8:	c84a                	sw	s2,16(sp)
1c0079aa:	c64e                	sw	s3,12(sp)
1c0079ac:	c452                	sw	s4,8(sp)
1c0079ae:	30047a73          	csrrci	s4,mstatus,8
1c0079b2:	4785                	li	a5,1
1c0079b4:	00060823          	sb	zero,16(a2)
1c0079b8:	d1dc                	sw	a5,36(a1)
1c0079ba:	49dc                	lw	a5,20(a1)
1c0079bc:	0144a983          	lw	s3,20(s1)
1c0079c0:	e399                	bnez	a5,0x1c0079c6
1c0079c2:	47a1                	li	a5,8
1c0079c4:	c9dc                	sw	a5,20(a1)
1c0079c6:	441c                	lw	a5,8(s0)
1c0079c8:	ef85                	bnez	a5,0x1c007a00
1c0079ca:	445c                	lw	a5,12(s0)
1c0079cc:	eb81                	bnez	a5,0x1c0079dc
1c0079ce:	6785                	lui	a5,0x1
1c0079d0:	80078793          	addi	a5,a5,-2048 # 0x800
1c0079d4:	c45c                	sw	a5,12(s0)
1c0079d6:	40000793          	li	a5,1024
1c0079da:	c81c                	sw	a5,16(s0)
1c0079dc:	481c                	lw	a5,16(s0)
1c0079de:	00c42903          	lw	s2,12(s0)
1c0079e2:	e399                	bnez	a5,0x1c0079e8
1c0079e4:	01242823          	sw	s2,16(s0)
1c0079e8:	485c                	lw	a5,20(s0)
1c0079ea:	4818                	lw	a4,16(s0)
1c0079ec:	448c                	lw	a1,8(s1)
1c0079ee:	17fd                	addi	a5,a5,-1
1c0079f0:	42e78933          	p.mac	s2,a5,a4
1c0079f4:	c9b5                	beqz	a1,0x1c007a68
1c0079f6:	44d0                	lw	a2,12(s1)
1c0079f8:	05261f63          	bne	a2,s2,0x1c007a56
1c0079fc:	449c                	lw	a5,8(s1)
1c0079fe:	c41c                	sw	a5,8(s0)
1c007a00:	4858                	lw	a4,20(s0)
1c007a02:	4785                	li	a5,1
1c007a04:	01542c23          	sw	s5,24(s0)
1c007a08:	00e797b3          	sll	a5,a5,a4
1c007a0c:	17fd                	addi	a5,a5,-1
1c007a0e:	d41c                	sw	a5,40(s0)
1c007a10:	02042023          	sw	zero,32(s0)
1c007a14:	0089a783          	lw	a5,8(s3)
1c007a18:	cbb5                	beqz	a5,0x1c007a8c
1c007a1a:	d380                	sw	s0,32(a5)
1c007a1c:	0089a423          	sw	s0,8(s3)
1c007a20:	0009a783          	lw	a5,0(s3)
1c007a24:	e399                	bnez	a5,0x1c007a2a
1c007a26:	0089a023          	sw	s0,0(s3)
1c007a2a:	509c                	lw	a5,32(s1)
1c007a2c:	00201737          	lui	a4,0x201
1c007a30:	e0470713          	addi	a4,a4,-508 # 0x200e04
1c007a34:	04078793          	addi	a5,a5,64
1c007a38:	07da                	slli	a5,a5,0x16
1c007a3a:	0007e723          	p.sw	zero,a4(a5)
1c007a3e:	300a1073          	csrw	mstatus,s4
1c007a42:	4501                	li	a0,0
1c007a44:	40f2                	lw	ra,28(sp)
1c007a46:	4462                	lw	s0,24(sp)
1c007a48:	44d2                	lw	s1,20(sp)
1c007a4a:	4942                	lw	s2,16(sp)
1c007a4c:	49b2                	lw	s3,12(sp)
1c007a4e:	4a22                	lw	s4,8(sp)
1c007a50:	4a92                	lw	s5,4(sp)
1c007a52:	6105                	addi	sp,sp,32
1c007a54:	8082                	ret
1c007a56:	509c                	lw	a5,32(s1)
1c007a58:	1c00b737          	lui	a4,0x1c00b
1c007a5c:	81472503          	lw	a0,-2028(a4) # 0x1c00a814
1c007a60:	078a                	slli	a5,a5,0x2
1c007a62:	953e                	add	a0,a0,a5
1c007a64:	f07fe0ef          	jal	ra,0x1c00696a
1c007a68:	509c                	lw	a5,32(s1)
1c007a6a:	1c00b737          	lui	a4,0x1c00b
1c007a6e:	81472503          	lw	a0,-2028(a4) # 0x1c00a814
1c007a72:	078a                	slli	a5,a5,0x2
1c007a74:	0124a623          	sw	s2,12(s1)
1c007a78:	85ca                	mv	a1,s2
1c007a7a:	953e                	add	a0,a0,a5
1c007a7c:	ea7fe0ef          	jal	ra,0x1c006922
1c007a80:	c488                	sw	a0,8(s1)
1c007a82:	fd2d                	bnez	a0,0x1c0079fc
1c007a84:	300a1073          	csrw	mstatus,s4
1c007a88:	557d                	li	a0,-1
1c007a8a:	bf6d                	j	0x1c007a44
1c007a8c:	0089a223          	sw	s0,4(s3)
1c007a90:	b771                	j	0x1c007a1c
1c007a92:	7175                	addi	sp,sp,-144
1c007a94:	4785                	li	a5,1
1c007a96:	0050                	addi	a2,sp,4
1c007a98:	c522                	sw	s0,136(sp)
1c007a9a:	c706                	sw	ra,140(sp)
1c007a9c:	cc3e                	sw	a5,24(sp)
1c007a9e:	c202                	sw	zero,4(sp)
1c007aa0:	d43e                	sw	a5,40(sp)
1c007aa2:	00010a23          	sb	zero,20(sp)
1c007aa6:	ef3ff0ef          	jal	ra,0x1c007998
1c007aaa:	547d                	li	s0,-1
1c007aac:	e509                	bnez	a0,0x1c007ab6
1c007aae:	842a                	mv	s0,a0
1c007ab0:	0048                	addi	a0,sp,4
1c007ab2:	e1dfe0ef          	jal	ra,0x1c0068ce
1c007ab6:	8522                	mv	a0,s0
1c007ab8:	40ba                	lw	ra,140(sp)
1c007aba:	442a                	lw	s0,136(sp)
1c007abc:	6149                	addi	sp,sp,144
1c007abe:	8082                	ret
1c007ac0:	4114                	lw	a3,0(a0)
1c007ac2:	1a1047b7          	lui	a5,0x1a104
1c007ac6:	14078713          	addi	a4,a5,320 # 0x1a104140
1c007aca:	c314                	sw	a3,0(a4)
1c007acc:	4154                	lw	a3,4(a0)
1c007ace:	14478713          	addi	a4,a5,324
1c007ad2:	14878793          	addi	a5,a5,328
1c007ad6:	c314                	sw	a3,0(a4)
1c007ad8:	4518                	lw	a4,8(a0)
1c007ada:	c398                	sw	a4,0(a5)
1c007adc:	8082                	ret
1c007ade:	87aa                	mv	a5,a0
1c007ae0:	962e                	add	a2,a2,a1
1c007ae2:	00c59363          	bne	a1,a2,0x1c007ae8
1c007ae6:	8082                	ret
1c007ae8:	0015c70b          	p.lbu	a4,1(a1!)
1c007aec:	00e780ab          	p.sb	a4,1(a5!)
1c007af0:	bfcd                	j	0x1c007ae2
1c007af2:	300477f3          	csrrci	a5,mstatus,8
1c007af6:	01c02703          	lw	a4,28(zero) # 0x1c
1c007afa:	00052c23          	sw	zero,24(a0)
1c007afe:	cb09                	beqz	a4,0x1c007b10
1c007b00:	02002703          	lw	a4,32(zero) # 0x20
1c007b04:	cf08                	sw	a0,24(a4)
1c007b06:	02a02023          	sw	a0,32(zero) # 0x20
1c007b0a:	30079073          	csrw	mstatus,a5
1c007b0e:	8082                	ret
1c007b10:	00a02e23          	sw	a0,28(zero) # 0x1c
1c007b14:	bfcd                	j	0x1c007b06
1c007b16:	57fd                	li	a5,-1
1c007b18:	00f50223          	sb	a5,4(a0)
1c007b1c:	4785                	li	a5,1
1c007b1e:	c55c                	sw	a5,12(a0)
1c007b20:	00052423          	sw	zero,8(a0)
1c007b24:	8082                	ret
1c007b26:	1141                	addi	sp,sp,-16
1c007b28:	c226                	sw	s1,4(sp)
1c007b2a:	c04a                	sw	s2,0(sp)
1c007b2c:	84aa                	mv	s1,a0
1c007b2e:	00452903          	lw	s2,4(a0)
1c007b32:	4541                	li	a0,16
1c007b34:	c606                	sw	ra,12(sp)
1c007b36:	c422                	sw	s0,8(sp)
1c007b38:	fa9fe0ef          	jal	ra,0x1c006ae0
1c007b3c:	c10d                	beqz	a0,0x1c007b5e
1c007b3e:	00c92783          	lw	a5,12(s2)
1c007b42:	842a                	mv	s0,a0
1c007b44:	0017bf63          	p.bneimm	a5,1,0x1c007b62
1c007b48:	000f4637          	lui	a2,0xf4
1c007b4c:	24060613          	addi	a2,a2,576 # 0xf4240
1c007b50:	4581                	li	a1,0
1c007b52:	2711                	jal	0x1c008256
1c007b54:	c519                	beqz	a0,0x1c007b62
1c007b56:	45c1                	li	a1,16
1c007b58:	8522                	mv	a0,s0
1c007b5a:	f95fe0ef          	jal	ra,0x1c006aee
1c007b5e:	557d                	li	a0,-1
1c007b60:	a845                	j	0x1c007c10
1c007b62:	478d                	li	a5,3
1c007b64:	c05c                	sw	a5,4(s0)
1c007b66:	00892783          	lw	a5,8(s2)
1c007b6a:	00892603          	lw	a2,8(s2)
1c007b6e:	c41c                	sw	a5,8(s0)
1c007b70:	00c92783          	lw	a5,12(s2)
1c007b74:	c45c                	sw	a5,12(s0)
1c007b76:	1c00a7b7          	lui	a5,0x1c00a
1c007b7a:	7e078793          	addi	a5,a5,2016 # 0x1c00a7e0
1c007b7e:	4398                	lw	a4,0(a5)
1c007b80:	00170693          	addi	a3,a4,1
1c007b84:	c394                	sw	a3,0(a5)
1c007b86:	00c92783          	lw	a5,12(s2)
1c007b8a:	e729                	bnez	a4,0x1c007bd4
1c007b8c:	1a106737          	lui	a4,0x1a106
1c007b90:	00872683          	lw	a3,8(a4) # 0x1a106008
1c007b94:	c066b6b3          	p.bclr	a3,a3,0,6
1c007b98:	00d72423          	sw	a3,8(a4)
1c007b9c:	00872683          	lw	a3,8(a4)
1c007ba0:	c076b6b3          	p.bclr	a3,a3,0,7
1c007ba4:	00d72423          	sw	a3,8(a4)
1c007ba8:	1a102737          	lui	a4,0x1a102
1c007bac:	78070713          	addi	a4,a4,1920 # 0x1a102780
1c007bb0:	4314                	lw	a3,0(a4)
1c007bb2:	c036c6b3          	p.bset	a3,a3,0,3
1c007bb6:	c314                	sw	a3,0(a4)
1c007bb8:	1c002737          	lui	a4,0x1c002
1c007bbc:	80c70713          	addi	a4,a4,-2036 # 0x1c00180c
1c007bc0:	10e02623          	sw	a4,268(zero) # 0x10c
1c007bc4:	0e002823          	sw	zero,240(zero) # 0xf0
1c007bc8:	12e02623          	sw	a4,300(zero) # 0x12c
1c007bcc:	10002823          	sw	zero,272(zero) # 0x110
1c007bd0:	2ee02023          	sw	a4,736(zero) # 0x2e0
1c007bd4:	17fd                	addi	a5,a5,-1
1c007bd6:	0017b793          	seqz	a5,a5
1c007bda:	078a                	slli	a5,a5,0x2
1c007bdc:	1a102737          	lui	a4,0x1a102
1c007be0:	ee15                	bnez	a2,0x1c007c1c
1c007be2:	1b470613          	addi	a2,a4,436 # 0x1a1021b4
1c007be6:	4214                	lw	a3,0(a2)
1c007be8:	73b6f693          	andi	a3,a3,1851
1c007bec:	8fd5                	or	a5,a5,a3
1c007bee:	c21c                	sw	a5,0(a2)
1c007bf0:	1a870793          	addi	a5,a4,424
1c007bf4:	4398                	lw	a4,0(a5)
1c007bf6:	6691                	lui	a3,0x4
1c007bf8:	f0068693          	addi	a3,a3,-256 # 0x3f00
1c007bfc:	e2e73733          	p.bclr	a4,a4,17,14
1c007c00:	8f75                	and	a4,a4,a3
1c007c02:	c398                	sw	a4,0(a5)
1c007c04:	421c                	lw	a5,0(a2)
1c007c06:	7377f793          	andi	a5,a5,1847
1c007c0a:	c21c                	sw	a5,0(a2)
1c007c0c:	c480                	sw	s0,8(s1)
1c007c0e:	4501                	li	a0,0
1c007c10:	40b2                	lw	ra,12(sp)
1c007c12:	4422                	lw	s0,8(sp)
1c007c14:	4492                	lw	s1,4(sp)
1c007c16:	4902                	lw	s2,0(sp)
1c007c18:	0141                	addi	sp,sp,16
1c007c1a:	8082                	ret
1c007c1c:	1c470613          	addi	a2,a4,452
1c007c20:	4214                	lw	a3,0(a2)
1c007c22:	1b870713          	addi	a4,a4,440
1c007c26:	03b6f693          	andi	a3,a3,59
1c007c2a:	8fd5                	or	a5,a5,a3
1c007c2c:	c21c                	sw	a5,0(a2)
1c007c2e:	431c                	lw	a5,0(a4)
1c007c30:	6691                	lui	a3,0x4
1c007c32:	f0068693          	addi	a3,a3,-256 # 0x3f00
1c007c36:	e2e7b7b3          	p.bclr	a5,a5,17,14
1c007c3a:	8ff5                	and	a5,a5,a3
1c007c3c:	c007c7b3          	p.bset	a5,a5,0,0
1c007c40:	c31c                	sw	a5,0(a4)
1c007c42:	421c                	lw	a5,0(a2)
1c007c44:	0377f793          	andi	a5,a5,55
1c007c48:	b7c9                	j	0x1c007c0a
1c007c4a:	1c00a737          	lui	a4,0x1c00a
1c007c4e:	7e070713          	addi	a4,a4,2016 # 0x1c00a7e0
1c007c52:	431c                	lw	a5,0(a4)
1c007c54:	1141                	addi	sp,sp,-16
1c007c56:	c422                	sw	s0,8(sp)
1c007c58:	c606                	sw	ra,12(sp)
1c007c5a:	17fd                	addi	a5,a5,-1
1c007c5c:	c31c                	sw	a5,0(a4)
1c007c5e:	4500                	lw	s0,8(a0)
1c007c60:	e3bd                	bnez	a5,0x1c007cc6
1c007c62:	404c                	lw	a1,4(s0)
1c007c64:	47fd                	li	a5,31
1c007c66:	00159693          	slli	a3,a1,0x1
1c007c6a:	06d7da63          	ble	a3,a5,0x1c007cde
1c007c6e:	fe068513          	addi	a0,a3,-32
1c007c72:	4611                	li	a2,4
1c007c74:	1a1067b7          	lui	a5,0x1a106
1c007c78:	20c7f803          	p.lw	a6,a2(a5)
1c007c7c:	4705                	li	a4,1
1c007c7e:	00a71733          	sll	a4,a4,a0
1c007c82:	01076733          	or	a4,a4,a6
1c007c86:	00e7e623          	p.sw	a4,a2(a5)
1c007c8a:	00168713          	addi	a4,a3,1
1c007c8e:	47fd                	li	a5,31
1c007c90:	4621                	li	a2,8
1c007c92:	00e7d563          	ble	a4,a5,0x1c007c9c
1c007c96:	fe168713          	addi	a4,a3,-31
1c007c9a:	4611                	li	a2,4
1c007c9c:	1a1066b7          	lui	a3,0x1a106
1c007ca0:	20c6f503          	p.lw	a0,a2(a3)
1c007ca4:	4785                	li	a5,1
1c007ca6:	00e79733          	sll	a4,a5,a4
1c007caa:	8f49                	or	a4,a4,a0
1c007cac:	00e6e623          	p.sw	a4,a2(a3)
1c007cb0:	1a102737          	lui	a4,0x1a102
1c007cb4:	78070713          	addi	a4,a4,1920 # 0x1a102780
1c007cb8:	4314                	lw	a3,0(a4)
1c007cba:	00b797b3          	sll	a5,a5,a1
1c007cbe:	fff7c793          	not	a5,a5
1c007cc2:	8ff5                	and	a5,a5,a3
1c007cc4:	c31c                	sw	a5,0(a4)
1c007cc6:	445c                	lw	a5,12(s0)
1c007cc8:	0017b463          	p.bneimm	a5,1,0x1c007cd0
1c007ccc:	8522                	mv	a0,s0
1c007cce:	23c5                	jal	0x1c0082ae
1c007cd0:	8522                	mv	a0,s0
1c007cd2:	4422                	lw	s0,8(sp)
1c007cd4:	40b2                	lw	ra,12(sp)
1c007cd6:	45c1                	li	a1,16
1c007cd8:	0141                	addi	sp,sp,16
1c007cda:	e15fe06f          	j	0x1c006aee
1c007cde:	8536                	mv	a0,a3
1c007ce0:	4621                	li	a2,8
1c007ce2:	bf49                	j	0x1c007c74
1c007ce4:	40155793          	srai	a5,a0,0x1
1c007ce8:	1a102837          	lui	a6,0x1a102
1c007cec:	079e                	slli	a5,a5,0x7
1c007cee:	0512                	slli	a0,a0,0x4
1c007cf0:	97c2                	add	a5,a5,a6
1c007cf2:	8941                	andi	a0,a0,16
1c007cf4:	953e                	add	a0,a0,a5
1c007cf6:	20000813          	li	a6,512
1c007cfa:	2e000793          	li	a5,736
1c007cfe:	02d87c63          	bleu	a3,a6,0x1c007d36
1c007d02:	cbd4                	sw	a3,20(a5)
1c007d04:	1c0026b7          	lui	a3,0x1c002
1c007d08:	8a468693          	addi	a3,a3,-1884 # 0x1c0018a4
1c007d0c:	c394                	sw	a3,0(a5)
1c007d0e:	c3c8                	sw	a0,4(a5)
1c007d10:	c790                	sw	a2,8(a5)
1c007d12:	c7cc                	sw	a1,12(a5)
1c007d14:	0107a823          	sw	a6,16(a5) # 0x1a106010
1c007d18:	20000693          	li	a3,512
1c007d1c:	cf98                	sw	a4,24(a5)
1c007d1e:	1a1027b7          	lui	a5,0x1a102
1c007d22:	1ac7a023          	sw	a2,416(a5) # 0x1a1021a0
1c007d26:	00b52023          	sw	a1,0(a0)
1c007d2a:	00d52223          	sw	a3,4(a0)
1c007d2e:	47c1                	li	a5,16
1c007d30:	00f52423          	sw	a5,8(a0)
1c007d34:	8082                	ret
1c007d36:	0007a823          	sw	zero,16(a5)
1c007d3a:	b7cd                	j	0x1c007d1c
1c007d3c:	2e000813          	li	a6,736
1c007d40:	00e82e23          	sw	a4,28(a6) # 0x1a10201c
1c007d44:	fa25b833          	p.bclr	a6,a1,29,2
1c007d48:	2e000793          	li	a5,736
1c007d4c:	02081463          	bnez	a6,0x1c007d74
1c007d50:	fc163833          	p.bclr	a6,a2,30,1
1c007d54:	02081063          	bnez	a6,0x1c007d74
1c007d58:	fa26b833          	p.bclr	a6,a3,29,2
1c007d5c:	00080a63          	beqz	a6,0x1c007d70
1c007d60:	fc153833          	p.bclr	a6,a0,30,1
1c007d64:	00080863          	beqz	a6,0x1c007d74
1c007d68:	fc16b833          	p.bclr	a6,a3,30,1
1c007d6c:	00081463          	bnez	a6,0x1c007d74
1c007d70:	f75ff06f          	j	0x1c007ce4
1c007d74:	d388                	sw	a0,32(a5)
1c007d76:	853a                	mv	a0,a4
1c007d78:	d3d0                	sw	a2,36(a5)
1c007d7a:	d78c                	sw	a1,40(a5)
1c007d7c:	d7d4                	sw	a3,44(a5)
1c007d7e:	02078823          	sb	zero,48(a5)
1c007d82:	dbd8                	sw	a4,52(a5)
1c007d84:	aa29                	j	0x1c007e9e
1c007d86:	1141                	addi	sp,sp,-16
1c007d88:	c606                	sw	ra,12(sp)
1c007d8a:	c422                	sw	s0,8(sp)
1c007d8c:	30047473          	csrrci	s0,mstatus,8
1c007d90:	c399                	beqz	a5,0x1c007d96
1c007d92:	c1864633          	p.bset	a2,a2,0,24
1c007d96:	2e000813          	li	a6,736
1c007d9a:	01c82803          	lw	a6,28(a6)
1c007d9e:	2e000793          	li	a5,736
1c007da2:	02080963          	beqz	a6,0x1c007dd4
1c007da6:	0387a803          	lw	a6,56(a5)
1c007daa:	02080363          	beqz	a6,0x1c007dd0
1c007dae:	03c7a803          	lw	a6,60(a5)
1c007db2:	00e82c23          	sw	a4,24(a6)
1c007db6:	dfd8                	sw	a4,60(a5)
1c007db8:	00072c23          	sw	zero,24(a4)
1c007dbc:	db48                	sw	a0,52(a4)
1c007dbe:	df0c                	sw	a1,56(a4)
1c007dc0:	df50                	sw	a2,60(a4)
1c007dc2:	c334                	sw	a3,64(a4)
1c007dc4:	30041073          	csrw	mstatus,s0
1c007dc8:	40b2                	lw	ra,12(sp)
1c007dca:	4422                	lw	s0,8(sp)
1c007dcc:	0141                	addi	sp,sp,16
1c007dce:	8082                	ret
1c007dd0:	df98                	sw	a4,56(a5)
1c007dd2:	b7d5                	j	0x1c007db6
1c007dd4:	f69ff0ef          	jal	ra,0x1c007d3c
1c007dd8:	b7f5                	j	0x1c007dc4
1c007dda:	451c                	lw	a5,8(a0)
1c007ddc:	00070823          	sb	zero,16(a4)
1c007de0:	8832                	mv	a6,a2
1c007de2:	43c8                	lw	a0,4(a5)
1c007de4:	479c                	lw	a5,8(a5)
1c007de6:	862e                	mv	a2,a1
1c007de8:	0506                	slli	a0,a0,0x1
1c007dea:	85c2                	mv	a1,a6
1c007dec:	f9bff06f          	j	0x1c007d86
1c007df0:	7175                	addi	sp,sp,-144
1c007df2:	4785                	li	a5,1
1c007df4:	0058                	addi	a4,sp,4
1c007df6:	c706                	sw	ra,140(sp)
1c007df8:	cc3e                	sw	a5,24(sp)
1c007dfa:	d43e                	sw	a5,40(sp)
1c007dfc:	c202                	sw	zero,4(sp)
1c007dfe:	00010a23          	sb	zero,20(sp)
1c007e02:	fd9ff0ef          	jal	ra,0x1c007dda
1c007e06:	0048                	addi	a0,sp,4
1c007e08:	ac7fe0ef          	jal	ra,0x1c0068ce
1c007e0c:	40ba                	lw	ra,140(sp)
1c007e0e:	6149                	addi	sp,sp,144
1c007e10:	8082                	ret
1c007e12:	451c                	lw	a5,8(a0)
1c007e14:	00070823          	sb	zero,16(a4)
1c007e18:	8832                	mv	a6,a2
1c007e1a:	43c8                	lw	a0,4(a5)
1c007e1c:	479c                	lw	a5,8(a5)
1c007e1e:	862e                	mv	a2,a1
1c007e20:	0506                	slli	a0,a0,0x1
1c007e22:	85c2                	mv	a1,a6
1c007e24:	0505                	addi	a0,a0,1
1c007e26:	f61ff06f          	j	0x1c007d86
1c007e2a:	7175                	addi	sp,sp,-144
1c007e2c:	4785                	li	a5,1
1c007e2e:	0058                	addi	a4,sp,4
1c007e30:	c706                	sw	ra,140(sp)
1c007e32:	cc3e                	sw	a5,24(sp)
1c007e34:	d43e                	sw	a5,40(sp)
1c007e36:	c202                	sw	zero,4(sp)
1c007e38:	00010a23          	sb	zero,20(sp)
1c007e3c:	fd7ff0ef          	jal	ra,0x1c007e12
1c007e40:	0048                	addi	a0,sp,4
1c007e42:	a8dfe0ef          	jal	ra,0x1c0068ce
1c007e46:	40ba                	lw	ra,140(sp)
1c007e48:	6149                	addi	sp,sp,144
1c007e4a:	8082                	ret
1c007e4c:	2e000793          	li	a5,736
1c007e50:	5f98                	lw	a4,56(a5)
1c007e52:	c729                	beqz	a4,0x1c007e9c
1c007e54:	4f14                	lw	a3,24(a4)
1c007e56:	03472803          	lw	a6,52(a4)
1c007e5a:	5f0c                	lw	a1,56(a4)
1c007e5c:	df94                	sw	a3,56(a5)
1c007e5e:	ee883533          	p.bclr	a0,a6,23,8
1c007e62:	ce881833          	p.extractu	a6,a6,7,8
1c007e66:	5f50                	lw	a2,60(a4)
1c007e68:	4334                	lw	a3,64(a4)
1c007e6a:	00081463          	bnez	a6,0x1c007e72
1c007e6e:	ecfff06f          	j	0x1c007d3c
1c007e72:	04872803          	lw	a6,72(a4)
1c007e76:	04472883          	lw	a7,68(a4)
1c007e7a:	d388                	sw	a0,32(a5)
1c007e7c:	d3d0                	sw	a2,36(a5)
1c007e7e:	853a                	mv	a0,a4
1c007e80:	0506d633          	p.minu	a2,a3,a6
1c007e84:	cfd8                	sw	a4,28(a5)
1c007e86:	d78c                	sw	a1,40(a5)
1c007e88:	d7d0                	sw	a2,44(a5)
1c007e8a:	02078823          	sb	zero,48(a5)
1c007e8e:	dbd8                	sw	a4,52(a5)
1c007e90:	c3b4                	sw	a3,64(a5)
1c007e92:	0507a223          	sw	a6,68(a5)
1c007e96:	0517a423          	sw	a7,72(a5)
1c007e9a:	a011                	j	0x1c007e9e
1c007e9c:	8082                	ret
1c007e9e:	7179                	addi	sp,sp,-48
1c007ea0:	d422                	sw	s0,40(sp)
1c007ea2:	2e000793          	li	a5,736
1c007ea6:	ce4e                	sw	s3,28(sp)
1c007ea8:	89aa                	mv	s3,a0
1c007eaa:	5388                	lw	a0,32(a5)
1c007eac:	d606                	sw	ra,44(sp)
1c007eae:	d226                	sw	s1,36(sp)
1c007eb0:	d04a                	sw	s2,32(sp)
1c007eb2:	cc52                	sw	s4,24(sp)
1c007eb4:	ca56                	sw	s5,20(sp)
1c007eb6:	c85a                	sw	s6,16(sp)
1c007eb8:	c65e                	sw	s7,12(sp)
1c007eba:	c462                	sw	s8,8(sp)
1c007ebc:	fc1537b3          	p.bclr	a5,a0,30,1
1c007ec0:	2e000413          	li	s0,736
1c007ec4:	e7a1                	bnez	a5,0x1c007f0c
1c007ec6:	1c00ac37          	lui	s8,0x1c00a
1c007eca:	6b0c0913          	addi	s2,s8,1712 # 0x1c00a6b0
1c007ece:	4a0d                	li	s4,3
1c007ed0:	07c00a93          	li	s5,124
1c007ed4:	00190b13          	addi	s6,s2,1
1c007ed8:	5408                	lw	a0,40(s0)
1c007eda:	5444                	lw	s1,44(s0)
1c007edc:	5050                	lw	a2,36(s0)
1c007ede:	00350793          	addi	a5,a0,3
1c007ee2:	c207b7b3          	p.bclr	a5,a5,1,0
1c007ee6:	8f89                	sub	a5,a5,a0
1c007ee8:	8bbe                	mv	s7,a5
1c007eea:	009a6363          	bltu	s4,s1,0x1c007ef0
1c007eee:	8ba6                	mv	s7,s1
1c007ef0:	1c0b8663          	beqz	s7,0x1c0080bc
1c007ef4:	03044783          	lbu	a5,48(s0)
1c007ef8:	16079f63          	bnez	a5,0x1c008076
1c007efc:	4701                	li	a4,0
1c007efe:	4691                	li	a3,4
1c007f00:	c0063633          	p.bclr	a2,a2,0,0
1c007f04:	6b0c0593          	addi	a1,s8,1712
1c007f08:	5008                	lw	a0,32(s0)
1c007f0a:	a889                	j	0x1c007f5c
1c007f0c:	540c                	lw	a1,40(s0)
1c007f0e:	04442883          	lw	a7,68(s0)
1c007f12:	04842303          	lw	t1,72(s0)
1c007f16:	00358793          	addi	a5,a1,3
1c007f1a:	5050                	lw	a2,36(s0)
1c007f1c:	5454                	lw	a3,44(s0)
1c007f1e:	4038                	lw	a4,64(s0)
1c007f20:	c207b7b3          	p.bclr	a5,a5,1,0
1c007f24:	8f8d                	sub	a5,a5,a1
1c007f26:	41130333          	sub	t1,t1,a7
1c007f2a:	4801                	li	a6,0
1c007f2c:	4e0d                	li	t3,3
1c007f2e:	84be                	mv	s1,a5
1c007f30:	00de6363          	bltu	t3,a3,0x1c007f36
1c007f34:	84b6                	mv	s1,a3
1c007f36:	c4b5                	beqz	s1,0x1c007fa2
1c007f38:	00080563          	beqz	a6,0x1c007f42
1c007f3c:	d050                	sw	a2,36(s0)
1c007f3e:	d454                	sw	a3,44(s0)
1c007f40:	c038                	sw	a4,64(s0)
1c007f42:	03044703          	lbu	a4,48(s0)
1c007f46:	1c00a937          	lui	s2,0x1c00a
1c007f4a:	6b090793          	addi	a5,s2,1712 # 0x1c00a6b0
1c007f4e:	ef09                	bnez	a4,0x1c007f68
1c007f50:	4691                	li	a3,4
1c007f52:	c0063633          	p.bclr	a2,a2,0,0
1c007f56:	6b090593          	addi	a1,s2,1712
1c007f5a:	157d                	addi	a0,a0,-1
1c007f5c:	d89ff0ef          	jal	ra,0x1c007ce4
1c007f60:	4785                	li	a5,1
1c007f62:	02f40823          	sb	a5,48(s0)
1c007f66:	aa3d                	j	0x1c0080a4
1c007f68:	fc163533          	p.bclr	a0,a2,30,1
1c007f6c:	953e                	add	a0,a0,a5
1c007f6e:	8626                	mv	a2,s1
1c007f70:	02040823          	sb	zero,48(s0)
1c007f74:	b6bff0ef          	jal	ra,0x1c007ade
1c007f78:	5050                	lw	a2,36(s0)
1c007f7a:	5008                	lw	a0,32(s0)
1c007f7c:	4701                	li	a4,0
1c007f7e:	4691                	li	a3,4
1c007f80:	c0063633          	p.bclr	a2,a2,0,0
1c007f84:	6b090593          	addi	a1,s2,1712
1c007f88:	d5dff0ef          	jal	ra,0x1c007ce4
1c007f8c:	505c                	lw	a5,36(s0)
1c007f8e:	97a6                	add	a5,a5,s1
1c007f90:	d05c                	sw	a5,36(s0)
1c007f92:	541c                	lw	a5,40(s0)
1c007f94:	97a6                	add	a5,a5,s1
1c007f96:	d41c                	sw	a5,40(s0)
1c007f98:	545c                	lw	a5,44(s0)
1c007f9a:	409784b3          	sub	s1,a5,s1
1c007f9e:	d444                	sw	s1,44(s0)
1c007fa0:	a211                	j	0x1c0080a4
1c007fa2:	c2d1                	beqz	a3,0x1c008026
1c007fa4:	00080563          	beqz	a6,0x1c007fae
1c007fa8:	d050                	sw	a2,36(s0)
1c007faa:	d454                	sw	a3,44(s0)
1c007fac:	c038                	sw	a4,64(s0)
1c007fae:	97b2                	add	a5,a5,a2
1c007fb0:	fc17b7b3          	p.bclr	a5,a5,30,1
1c007fb4:	c206b4b3          	p.bclr	s1,a3,1,0
1c007fb8:	ef89                	bnez	a5,0x1c007fd2
1c007fba:	4701                	li	a4,0
1c007fbc:	86a6                	mv	a3,s1
1c007fbe:	d27ff0ef          	jal	ra,0x1c007ce4
1c007fc2:	505c                	lw	a5,36(s0)
1c007fc4:	5454                	lw	a3,44(s0)
1c007fc6:	97a6                	add	a5,a5,s1
1c007fc8:	d05c                	sw	a5,36(s0)
1c007fca:	541c                	lw	a5,40(s0)
1c007fcc:	97a6                	add	a5,a5,s1
1c007fce:	d41c                	sw	a5,40(s0)
1c007fd0:	a881                	j	0x1c008020
1c007fd2:	03044703          	lbu	a4,48(s0)
1c007fd6:	1c00a937          	lui	s2,0x1c00a
1c007fda:	6b090793          	addi	a5,s2,1712 # 0x1c00a6b0
1c007fde:	db2d                	beqz	a4,0x1c007f50
1c007fe0:	07c00693          	li	a3,124
1c007fe4:	04d4d4b3          	p.minu	s1,s1,a3
1c007fe8:	00178513          	addi	a0,a5,1
1c007fec:	fff48613          	addi	a2,s1,-1
1c007ff0:	02040823          	sb	zero,48(s0)
1c007ff4:	aebff0ef          	jal	ra,0x1c007ade
1c007ff8:	5050                	lw	a2,36(s0)
1c007ffa:	5008                	lw	a0,32(s0)
1c007ffc:	86a6                	mv	a3,s1
1c007ffe:	4701                	li	a4,0
1c008000:	c0063633          	p.bclr	a2,a2,0,0
1c008004:	6b090593          	addi	a1,s2,1712
1c008008:	cddff0ef          	jal	ra,0x1c007ce4
1c00800c:	505c                	lw	a5,36(s0)
1c00800e:	5454                	lw	a3,44(s0)
1c008010:	17fd                	addi	a5,a5,-1
1c008012:	97a6                	add	a5,a5,s1
1c008014:	d05c                	sw	a5,36(s0)
1c008016:	541c                	lw	a5,40(s0)
1c008018:	0685                	addi	a3,a3,1
1c00801a:	17fd                	addi	a5,a5,-1
1c00801c:	97a6                	add	a5,a5,s1
1c00801e:	d41c                	sw	a5,40(s0)
1c008020:	409684b3          	sub	s1,a3,s1
1c008024:	bfad                	j	0x1c007f9e
1c008026:	e719                	bnez	a4,0x1c008034
1c008028:	00080c63          	beqz	a6,0x1c008040
1c00802c:	d050                	sw	a2,36(s0)
1c00802e:	02042623          	sw	zero,44(s0)
1c008032:	a029                	j	0x1c00803c
1c008034:	02e8ea63          	bltu	a7,a4,0x1c008068
1c008038:	fe081ae3          	bnez	a6,0x1c00802c
1c00803c:	04042023          	sw	zero,64(s0)
1c008040:	854e                	mv	a0,s3
1c008042:	02042a23          	sw	zero,52(s0)
1c008046:	00042e23          	sw	zero,28(s0)
1c00804a:	aa9ff0ef          	jal	ra,0x1c007af2
1c00804e:	5422                	lw	s0,40(sp)
1c008050:	50b2                	lw	ra,44(sp)
1c008052:	5492                	lw	s1,36(sp)
1c008054:	5902                	lw	s2,32(sp)
1c008056:	49f2                	lw	s3,28(sp)
1c008058:	4a62                	lw	s4,24(sp)
1c00805a:	4ad2                	lw	s5,20(sp)
1c00805c:	4b42                	lw	s6,16(sp)
1c00805e:	4bb2                	lw	s7,12(sp)
1c008060:	4c22                	lw	s8,8(sp)
1c008062:	6145                	addi	sp,sp,48
1c008064:	de9ff06f          	j	0x1c007e4c
1c008068:	41170733          	sub	a4,a4,a7
1c00806c:	961a                	add	a2,a2,t1
1c00806e:	4805                	li	a6,1
1c008070:	04e8d6b3          	p.minu	a3,a7,a4
1c008074:	bd6d                	j	0x1c007f2e
1c008076:	fc1635b3          	p.bclr	a1,a2,30,1
1c00807a:	95ca                	add	a1,a1,s2
1c00807c:	865e                	mv	a2,s7
1c00807e:	02040823          	sb	zero,48(s0)
1c008082:	a5dff0ef          	jal	ra,0x1c007ade
1c008086:	505c                	lw	a5,36(s0)
1c008088:	97de                	add	a5,a5,s7
1c00808a:	d05c                	sw	a5,36(s0)
1c00808c:	541c                	lw	a5,40(s0)
1c00808e:	97de                	add	a5,a5,s7
1c008090:	d41c                	sw	a5,40(s0)
1c008092:	545c                	lw	a5,44(s0)
1c008094:	41778bb3          	sub	s7,a5,s7
1c008098:	03742623          	sw	s7,44(s0)
1c00809c:	e20b9ee3          	bnez	s7,0x1c007ed8
1c0080a0:	545c                	lw	a5,44(s0)
1c0080a2:	c7a5                	beqz	a5,0x1c00810a
1c0080a4:	50b2                	lw	ra,44(sp)
1c0080a6:	5422                	lw	s0,40(sp)
1c0080a8:	5492                	lw	s1,36(sp)
1c0080aa:	5902                	lw	s2,32(sp)
1c0080ac:	49f2                	lw	s3,28(sp)
1c0080ae:	4a62                	lw	s4,24(sp)
1c0080b0:	4ad2                	lw	s5,20(sp)
1c0080b2:	4b42                	lw	s6,16(sp)
1c0080b4:	4bb2                	lw	s7,12(sp)
1c0080b6:	4c22                	lw	s8,8(sp)
1c0080b8:	6145                	addi	sp,sp,48
1c0080ba:	8082                	ret
1c0080bc:	d0f5                	beqz	s1,0x1c0080a0
1c0080be:	97b2                	add	a5,a5,a2
1c0080c0:	fc17b7b3          	p.bclr	a5,a5,30,1
1c0080c4:	c204b4b3          	p.bclr	s1,s1,1,0
1c0080c8:	e791                	bnez	a5,0x1c0080d4
1c0080ca:	85aa                	mv	a1,a0
1c0080cc:	4701                	li	a4,0
1c0080ce:	86a6                	mv	a3,s1
1c0080d0:	5008                	lw	a0,32(s0)
1c0080d2:	b5f5                	j	0x1c007fbe
1c0080d4:	03044783          	lbu	a5,48(s0)
1c0080d8:	0554d4b3          	p.minu	s1,s1,s5
1c0080dc:	e789                	bnez	a5,0x1c0080e6
1c0080de:	4701                	li	a4,0
1c0080e0:	00448693          	addi	a3,s1,4
1c0080e4:	bd31                	j	0x1c007f00
1c0080e6:	8626                	mv	a2,s1
1c0080e8:	85da                	mv	a1,s6
1c0080ea:	02040823          	sb	zero,48(s0)
1c0080ee:	9f1ff0ef          	jal	ra,0x1c007ade
1c0080f2:	505c                	lw	a5,36(s0)
1c0080f4:	5454                	lw	a3,44(s0)
1c0080f6:	97a6                	add	a5,a5,s1
1c0080f8:	d05c                	sw	a5,36(s0)
1c0080fa:	541c                	lw	a5,40(s0)
1c0080fc:	97a6                	add	a5,a5,s1
1c0080fe:	409684b3          	sub	s1,a3,s1
1c008102:	d41c                	sw	a5,40(s0)
1c008104:	d444                	sw	s1,44(s0)
1c008106:	dcc9                	beqz	s1,0x1c0080a0
1c008108:	bbc1                	j	0x1c007ed8
1c00810a:	4038                	lw	a4,64(s0)
1c00810c:	db15                	beqz	a4,0x1c008040
1c00810e:	407c                	lw	a5,68(s0)
1c008110:	00e7ff63          	bleu	a4,a5,0x1c00812e
1c008114:	8f1d                	sub	a4,a4,a5
1c008116:	c038                	sw	a4,64(s0)
1c008118:	4034                	lw	a3,64(s0)
1c00811a:	d29d                	beqz	a3,0x1c008040
1c00811c:	5058                	lw	a4,36(s0)
1c00811e:	4430                	lw	a2,72(s0)
1c008120:	9732                	add	a4,a4,a2
1c008122:	8f1d                	sub	a4,a4,a5
1c008124:	04d7d7b3          	p.minu	a5,a5,a3
1c008128:	d058                	sw	a4,36(s0)
1c00812a:	d45c                	sw	a5,44(s0)
1c00812c:	b375                	j	0x1c007ed8
1c00812e:	04042023          	sw	zero,64(s0)
1c008132:	b7dd                	j	0x1c008118
1c008134:	1141                	addi	sp,sp,-16
1c008136:	c606                	sw	ra,12(sp)
1c008138:	c422                	sw	s0,8(sp)
1c00813a:	30047473          	csrrci	s0,mstatus,8
1c00813e:	00088463          	beqz	a7,0x1c008146
1c008142:	c1864633          	p.bset	a2,a2,0,24
1c008146:	2e000893          	li	a7,736
1c00814a:	01c8ae03          	lw	t3,28(a7) # 0x1a10201c
1c00814e:	2e000313          	li	t1,736
1c008152:	040e0563          	beqz	t3,0x1c00819c
1c008156:	03832883          	lw	a7,56(t1) # 0x1a100038
1c00815a:	02088e63          	beqz	a7,0x1c008196
1c00815e:	03c32883          	lw	a7,60(t1)
1c008162:	0108ac23          	sw	a6,24(a7)
1c008166:	c0854533          	p.bset	a0,a0,0,8
1c00816a:	03032e23          	sw	a6,60(t1)
1c00816e:	00082c23          	sw	zero,24(a6)
1c008172:	02a82a23          	sw	a0,52(a6)
1c008176:	02b82c23          	sw	a1,56(a6)
1c00817a:	02c82e23          	sw	a2,60(a6)
1c00817e:	04d82023          	sw	a3,64(a6)
1c008182:	04e82223          	sw	a4,68(a6)
1c008186:	04f82423          	sw	a5,72(a6)
1c00818a:	30041073          	csrw	mstatus,s0
1c00818e:	40b2                	lw	ra,12(sp)
1c008190:	4422                	lw	s0,8(sp)
1c008192:	0141                	addi	sp,sp,16
1c008194:	8082                	ret
1c008196:	03032c23          	sw	a6,56(t1)
1c00819a:	b7f1                	j	0x1c008166
1c00819c:	02a8a023          	sw	a0,32(a7)
1c0081a0:	02c8a223          	sw	a2,36(a7)
1c0081a4:	8542                	mv	a0,a6
1c0081a6:	04f6d633          	p.minu	a2,a3,a5
1c0081aa:	0108ae23          	sw	a6,28(a7)
1c0081ae:	02b8a423          	sw	a1,40(a7)
1c0081b2:	02c8a623          	sw	a2,44(a7)
1c0081b6:	02088823          	sb	zero,48(a7)
1c0081ba:	0308aa23          	sw	a6,52(a7)
1c0081be:	04d8a023          	sw	a3,64(a7)
1c0081c2:	04f8a223          	sw	a5,68(a7)
1c0081c6:	04e8a423          	sw	a4,72(a7)
1c0081ca:	cd5ff0ef          	jal	ra,0x1c007e9e
1c0081ce:	bf75                	j	0x1c00818a
1c0081d0:	8332                	mv	t1,a2
1c0081d2:	4510                	lw	a2,8(a0)
1c0081d4:	00080823          	sb	zero,16(a6)
1c0081d8:	4248                	lw	a0,4(a2)
1c0081da:	00862883          	lw	a7,8(a2)
1c0081de:	862e                	mv	a2,a1
1c0081e0:	0506                	slli	a0,a0,0x1
1c0081e2:	859a                	mv	a1,t1
1c0081e4:	f51ff06f          	j	0x1c008134
1c0081e8:	31402503          	lw	a0,788(zero) # 0x314
1c0081ec:	cb3ff06f          	j	0x1c007e9e
1c0081f0:	c5dff06f          	j	0x1c007e4c
1c0081f4:	1c00a737          	lui	a4,0x1c00a
1c0081f8:	2e000793          	li	a5,736
1c0081fc:	7c072e23          	sw	zero,2012(a4) # 0x1c00a7dc
1c008200:	577d                	li	a4,-1
1c008202:	d398                	sw	a4,32(a5)
1c008204:	1c00a737          	lui	a4,0x1c00a
1c008208:	0007ac23          	sw	zero,24(a5)
1c00820c:	0007ae23          	sw	zero,28(a5)
1c008210:	0207ac23          	sw	zero,56(a5)
1c008214:	7e072023          	sw	zero,2016(a4) # 0x1c00a7e0
1c008218:	0207a623          	sw	zero,44(a5)
1c00821c:	0407a023          	sw	zero,64(a5)
1c008220:	8082                	ret
1c008222:	300476f3          	csrrci	a3,mstatus,8
1c008226:	4158                	lw	a4,4(a0)
1c008228:	1a1047b7          	lui	a5,0x1a104
1c00822c:	14078613          	addi	a2,a5,320 # 0x1a104140
1c008230:	430c                	lw	a1,0(a4)
1c008232:	c20c                	sw	a1,0(a2)
1c008234:	434c                	lw	a1,4(a4)
1c008236:	14478613          	addi	a2,a5,324
1c00823a:	14878793          	addi	a5,a5,328
1c00823e:	c20c                	sw	a1,0(a2)
1c008240:	4718                	lw	a4,8(a4)
1c008242:	c398                	sw	a4,0(a5)
1c008244:	30069073          	csrw	mstatus,a3
1c008248:	8082                	ret
1c00824a:	1c00a537          	lui	a0,0x1c00a
1c00824e:	45050513          	addi	a0,a0,1104 # 0x1c00a450
1c008252:	fd1ff06f          	j	0x1c008222
1c008256:	1101                	addi	sp,sp,-32
1c008258:	c84a                	sw	s2,16(sp)
1c00825a:	ce06                	sw	ra,28(sp)
1c00825c:	cc22                	sw	s0,24(sp)
1c00825e:	ca26                	sw	s1,20(sp)
1c008260:	892a                	mv	s2,a0
1c008262:	c229                	beqz	a2,0x1c0082a4
1c008264:	00758493          	addi	s1,a1,7
1c008268:	842e                	mv	s0,a1
1c00826a:	4505                	li	a0,1
1c00826c:	45b1                	li	a1,12
1c00826e:	c632                	sw	a2,12(sp)
1c008270:	f46fe0ef          	jal	ra,0x1c0069b6
1c008274:	c404b4b3          	p.bclr	s1,s1,2,0
1c008278:	4632                	lw	a2,12(sp)
1c00827a:	c905                	beqz	a0,0x1c0082aa
1c00827c:	9432                	add	s0,s0,a2
1c00827e:	8c05                	sub	s0,s0,s1
1c008280:	4601                	li	a2,0
1c008282:	00805a63          	blez	s0,0x1c008296
1c008286:	00a92023          	sw	a0,0(s2)
1c00828a:	c4043433          	p.bclr	s0,s0,2,0
1c00828e:	c100                	sw	s0,0(a0)
1c008290:	00052223          	sw	zero,4(a0)
1c008294:	c504                	sw	s1,8(a0)
1c008296:	40f2                	lw	ra,28(sp)
1c008298:	4462                	lw	s0,24(sp)
1c00829a:	44d2                	lw	s1,20(sp)
1c00829c:	4942                	lw	s2,16(sp)
1c00829e:	8532                	mv	a0,a2
1c0082a0:	6105                	addi	sp,sp,32
1c0082a2:	8082                	ret
1c0082a4:	00052023          	sw	zero,0(a0)
1c0082a8:	b7fd                	j	0x1c008296
1c0082aa:	567d                	li	a2,-1
1c0082ac:	b7ed                	j	0x1c008296
1c0082ae:	410c                	lw	a1,0(a0)
1c0082b0:	4631                	li	a2,12
1c0082b2:	4505                	li	a0,1
1c0082b4:	f30fe06f          	j	0x1c0069e4
1c0082b8:	1c00b7b7          	lui	a5,0x1c00b
1c0082bc:	4d18                	lw	a4,24(a0)
1c0082be:	8247a783          	lw	a5,-2012(a5) # 0x1c00a824
1c0082c2:	068416b7          	lui	a3,0x6841
1c0082c6:	90968693          	addi	a3,a3,-1783 # 0x6840909
1c0082ca:	02e7c7b3          	div	a5,a5,a4
1c0082ce:	02954703          	lbu	a4,41(a0)
1c0082d2:	177d                	addi	a4,a4,-1
1c0082d4:	c0874733          	p.bset	a4,a4,0,8
1c0082d8:	17fd                	addi	a5,a5,-1
1c0082da:	8785                	srai	a5,a5,0x1
1c0082dc:	07c2                	slli	a5,a5,0x10
1c0082de:	8fd9                	or	a5,a5,a4
1c0082e0:	02554703          	lbu	a4,37(a0)
1c0082e4:	9736                	add	a4,a4,a3
1c0082e6:	070a                	slli	a4,a4,0x2
1c0082e8:	c31c                	sw	a5,0(a4)
1c0082ea:	8082                	ret
1c0082ec:	1141                	addi	sp,sp,-16
1c0082ee:	1c00a7b7          	lui	a5,0x1c00a
1c0082f2:	c422                	sw	s0,8(sp)
1c0082f4:	7e47a403          	lw	s0,2020(a5) # 0x1c00a7e4
1c0082f8:	c606                	sw	ra,12(sp)
1c0082fa:	e411                	bnez	s0,0x1c008306
1c0082fc:	40b2                	lw	ra,12(sp)
1c0082fe:	4422                	lw	s0,8(sp)
1c008300:	4501                	li	a0,0
1c008302:	0141                	addi	sp,sp,16
1c008304:	8082                	ret
1c008306:	02844783          	lbu	a5,40(s0)
1c00830a:	c781                	beqz	a5,0x1c008312
1c00830c:	8522                	mv	a0,s0
1c00830e:	fabff0ef          	jal	ra,0x1c0082b8
1c008312:	4c40                	lw	s0,28(s0)
1c008314:	b7dd                	j	0x1c0082fa
1c008316:	1c00a7b7          	lui	a5,0x1c00a
1c00831a:	7e47a783          	lw	a5,2020(a5) # 0x1c00a7e4
1c00831e:	068416b7          	lui	a3,0x6841
1c008322:	90968693          	addi	a3,a3,-1783 # 0x6840909
1c008326:	e399                	bnez	a5,0x1c00832c
1c008328:	4501                	li	a0,0
1c00832a:	8082                	ret
1c00832c:	0287c703          	lbu	a4,40(a5)
1c008330:	c719                	beqz	a4,0x1c00833e
1c008332:	0257c703          	lbu	a4,37(a5)
1c008336:	9736                	add	a4,a4,a3
1c008338:	070a                	slli	a4,a4,0x2
1c00833a:	00072023          	sw	zero,0(a4)
1c00833e:	4fdc                	lw	a5,28(a5)
1c008340:	b7dd                	j	0x1c008326
1c008342:	1c0085b7          	lui	a1,0x1c008
1c008346:	1141                	addi	sp,sp,-16
1c008348:	4601                	li	a2,0
1c00834a:	31658593          	addi	a1,a1,790 # 0x1c008316
1c00834e:	4511                	li	a0,4
1c008350:	c606                	sw	ra,12(sp)
1c008352:	c422                	sw	s0,8(sp)
1c008354:	f9bfd0ef          	jal	ra,0x1c0062ee
1c008358:	1c0085b7          	lui	a1,0x1c008
1c00835c:	842a                	mv	s0,a0
1c00835e:	4601                	li	a2,0
1c008360:	2ec58593          	addi	a1,a1,748 # 0x1c0082ec
1c008364:	4515                	li	a0,5
1c008366:	f89fd0ef          	jal	ra,0x1c0062ee
1c00836a:	8d41                	or	a0,a0,s0
1c00836c:	c10d                	beqz	a0,0x1c00838e
1c00836e:	01402673          	csrr	a2,uhartid
1c008372:	1c00a537          	lui	a0,0x1c00a
1c008376:	40565593          	srai	a1,a2,0x5
1c00837a:	f265b5b3          	p.bclr	a1,a1,25,6
1c00837e:	f4563633          	p.bclr	a2,a2,26,5
1c008382:	fc050513          	addi	a0,a0,-64 # 0x1c009fc0
1c008386:	7d0000ef          	jal	ra,0x1c008b56
1c00838a:	750000ef          	jal	ra,0x1c008ada
1c00838e:	40b2                	lw	ra,12(sp)
1c008390:	4422                	lw	s0,8(sp)
1c008392:	0141                	addi	sp,sp,16
1c008394:	8082                	ret
1c008396:	1b0007b7          	lui	a5,0x1b000
1c00839a:	40078a23          	sb	zero,1044(a5) # 0x1b000414
1c00839e:	8082                	ret
1c0083a0:	1c00a7b7          	lui	a5,0x1c00a
1c0083a4:	56878793          	addi	a5,a5,1384 # 0x1c00a568
1c0083a8:	00078223          	sb	zero,4(a5)
1c0083ac:	00078a23          	sb	zero,20(a5)
1c0083b0:	8082                	ret
1c0083b2:	33000793          	li	a5,816
1c0083b6:	0207ac23          	sw	zero,56(a5)
1c0083ba:	02078823          	sb	zero,48(a5)
1c0083be:	0207aa23          	sw	zero,52(a5)
1c0083c2:	8082                	ret
1c0083c4:	1a106737          	lui	a4,0x1a106
1c0083c8:	00472783          	lw	a5,4(a4) # 0x1a106004
1c0083cc:	c0a7b7b3          	p.bclr	a5,a5,0,10
1c0083d0:	00f72223          	sw	a5,4(a4)
1c0083d4:	36c00693          	li	a3,876
1c0083d8:	36c00793          	li	a5,876
1c0083dc:	020250fb          	lp.setupi	x1,32,0x1c0083e4
1c0083e0:	0006a22b          	p.sw	zero,4(a3!)
1c0083e4:	0001                	nop
1c0083e6:	0807a223          	sw	zero,132(a5)
1c0083ea:	0807a023          	sw	zero,128(a5)
1c0083ee:	8082                	ret
1c0083f0:	1c00a7b7          	lui	a5,0x1c00a
1c0083f4:	7e878793          	addi	a5,a5,2024 # 0x1c00a7e8
1c0083f8:	0007a023          	sw	zero,0(a5)
1c0083fc:	0007a223          	sw	zero,4(a5)
1c008400:	8082                	ret
1c008402:	1c00a7b7          	lui	a5,0x1c00a
1c008406:	58078423          	sb	zero,1416(a5) # 0x1c00a588
1c00840a:	8082                	ret
1c00840c:	1c00a7b7          	lui	a5,0x1c00a
1c008410:	7e07aa23          	sw	zero,2036(a5) # 0x1c00a7f4
1c008414:	00052c23          	sw	zero,24(a0)
1c008418:	8082                	ret
1c00841a:	1141                	addi	sp,sp,-16
1c00841c:	c226                	sw	s1,4(sp)
1c00841e:	84aa                	mv	s1,a0
1c008420:	c606                	sw	ra,12(sp)
1c008422:	c422                	sw	s0,8(sp)
1c008424:	c04a                	sw	s2,0(sp)
1c008426:	30047973          	csrrci	s2,mstatus,8
1c00842a:	1c00a437          	lui	s0,0x1c00a
1c00842e:	7f040413          	addi	s0,s0,2032 # 0x1c00a7f0
1c008432:	4008                	lw	a0,0(s0)
1c008434:	c509                	beqz	a0,0x1c00843e
1c008436:	c48fe0ef          	jal	ra,0x1c00687e
1c00843a:	00042023          	sw	zero,0(s0)
1c00843e:	4785                	li	a5,1
1c008440:	06f48e23          	sb	a5,124(s1)
1c008444:	07d4c783          	lbu	a5,125(s1)
1c008448:	00201737          	lui	a4,0x201
1c00844c:	e0470713          	addi	a4,a4,-508 # 0x200e04
1c008450:	04078793          	addi	a5,a5,64
1c008454:	07da                	slli	a5,a5,0x16
1c008456:	0007e723          	p.sw	zero,a4(a5)
1c00845a:	30091073          	csrw	mstatus,s2
1c00845e:	40b2                	lw	ra,12(sp)
1c008460:	4422                	lw	s0,8(sp)
1c008462:	4492                	lw	s1,4(sp)
1c008464:	4902                	lw	s2,0(sp)
1c008466:	0141                	addi	sp,sp,16
1c008468:	8082                	ret
1c00846a:	1c00a737          	lui	a4,0x1c00a
1c00846e:	7f870793          	addi	a5,a4,2040 # 0x1c00a7f8
1c008472:	4390                	lw	a2,0(a5)
1c008474:	7f870713          	addi	a4,a4,2040
1c008478:	00160693          	addi	a3,a2,1
1c00847c:	c394                	sw	a3,0(a5)
1c00847e:	1c00a7b7          	lui	a5,0x1c00a
1c008482:	5e478593          	addi	a1,a5,1508 # 0x1c00a5e4
1c008486:	00a5c623          	p.sb	a0,a2(a1)
1c00848a:	07f00593          	li	a1,127
1c00848e:	5e478613          	addi	a2,a5,1508
1c008492:	00b68463          	beq	a3,a1,0x1c00849a
1c008496:	00a53a63          	p.bneimm	a0,10,0x1c0084aa
1c00849a:	5e478513          	addi	a0,a5,1508
1c00849e:	000646a3          	p.sb	zero,a3(a2)
1c0084a2:	00072023          	sw	zero,0(a4)
1c0084a6:	e03f806f          	j	0x1c0012a8
1c0084aa:	8082                	ret
1c0084ac:	1101                	addi	sp,sp,-32
1c0084ae:	0028                	addi	a0,sp,8
1c0084b0:	ce06                	sw	ra,28(sp)
1c0084b2:	cc22                	sw	s0,24(sp)
1c0084b4:	132010ef          	jal	ra,0x1c0095e6
1c0084b8:	4585                	li	a1,1
1c0084ba:	4501                	li	a0,0
1c0084bc:	a52fe0ef          	jal	ra,0x1c00670e
1c0084c0:	547d                	li	s0,-1
1c0084c2:	ed1d                	bnez	a0,0x1c008500
1c0084c4:	1c00a7b7          	lui	a5,0x1c00a
1c0084c8:	5287a783          	lw	a5,1320(a5) # 0x1c00a528
1c0084cc:	842a                	mv	s0,a0
1c0084ce:	1c00a537          	lui	a0,0x1c00a
1c0084d2:	e3ff8597          	auipc	a1,0xe3ff8
1c0084d6:	b4a58593          	addi	a1,a1,-1206 # 0x1c
1c0084da:	73050513          	addi	a0,a0,1840 # 0x1c00a730
1c0084de:	c43e                	sw	a5,8(sp)
1c0084e0:	9eefe0ef          	jal	ra,0x1c0066ce
1c0084e4:	1c00a7b7          	lui	a5,0x1c00a
1c0084e8:	7d07a503          	lw	a0,2000(a5) # 0x1c00a7d0
1c0084ec:	4681                	li	a3,0
1c0084ee:	4601                	li	a2,0
1c0084f0:	002c                	addi	a1,sp,8
1c0084f2:	0511                	addi	a0,a0,4
1c0084f4:	102010ef          	jal	ra,0x1c0095f6
1c0084f8:	1c00a7b7          	lui	a5,0x1c00a
1c0084fc:	7ea7ae23          	sw	a0,2044(a5) # 0x1c00a7fc
1c008500:	8522                	mv	a0,s0
1c008502:	40f2                	lw	ra,28(sp)
1c008504:	4462                	lw	s0,24(sp)
1c008506:	6105                	addi	sp,sp,32
1c008508:	8082                	ret
1c00850a:	1141                	addi	sp,sp,-16
1c00850c:	c606                	sw	ra,12(sp)
1c00850e:	c422                	sw	s0,8(sp)
1c008510:	30047473          	csrrci	s0,mstatus,8
1c008514:	4585                	li	a1,1
1c008516:	e3ff8517          	auipc	a0,0xe3ff8
1c00851a:	b0650513          	addi	a0,a0,-1274 # 0x1c
1c00851e:	ad2fe0ef          	jal	ra,0x1c0067f0
1c008522:	30041073          	csrw	mstatus,s0
1c008526:	40b2                	lw	ra,12(sp)
1c008528:	4422                	lw	s0,8(sp)
1c00852a:	0141                	addi	sp,sp,16
1c00852c:	8082                	ret
1c00852e:	1c00a7b7          	lui	a5,0x1c00a
1c008532:	4787a783          	lw	a5,1144(a5) # 0x1c00a478
1c008536:	cf81                	beqz	a5,0x1c00854e
1c008538:	1c00a7b7          	lui	a5,0x1c00a
1c00853c:	7fc7a783          	lw	a5,2044(a5) # 0x1c00a7fc
1c008540:	e799                	bnez	a5,0x1c00854e
1c008542:	1c00a7b7          	lui	a5,0x1c00a
1c008546:	7cc7a783          	lw	a5,1996(a5) # 0x1c00a7cc
1c00854a:	0427b763          	p.bneimm	a5,2,0x1c008598
1c00854e:	7135                	addi	sp,sp,-160
1c008550:	014027f3          	csrr	a5,uhartid
1c008554:	cf06                	sw	ra,156(sp)
1c008556:	ca5797b3          	p.extractu	a5,a5,5,5
1c00855a:	02000713          	li	a4,32
1c00855e:	1b000537          	lui	a0,0x1b000
1c008562:	00e79963          	bne	a5,a4,0x1c008574
1c008566:	41850513          	addi	a0,a0,1048 # 0x1b000418
1c00856a:	e15fd0ef          	jal	ra,0x1c00637e
1c00856e:	40fa                	lw	ra,156(sp)
1c008570:	610d                	addi	sp,sp,160
1c008572:	8082                	ret
1c008574:	002c                	addi	a1,sp,8
1c008576:	41850513          	addi	a0,a0,1048
1c00857a:	e6bfd0ef          	jal	ra,0x1c0063e4
1c00857e:	4689                	li	a3,2
1c008580:	00204737          	lui	a4,0x204
1c008584:	08c14783          	lbu	a5,140(sp)
1c008588:	0ff7f793          	andi	a5,a5,255
1c00858c:	f3ed                	bnez	a5,0x1c00856e
1c00858e:	c714                	sw	a3,8(a4)
1c008590:	03c76783          	p.elw	a5,60(a4) # 0x20403c
1c008594:	c354                	sw	a3,4(a4)
1c008596:	b7fd                	j	0x1c008584
1c008598:	8082                	ret
1c00859a:	1141                	addi	sp,sp,-16
1c00859c:	c422                	sw	s0,8(sp)
1c00859e:	c606                	sw	ra,12(sp)
1c0085a0:	842a                	mv	s0,a0
1c0085a2:	08554503          	lbu	a0,133(a0)
1c0085a6:	ec5ff0ef          	jal	ra,0x1c00846a
1c0085aa:	4785                	li	a5,1
1c0085ac:	08f42023          	sw	a5,128(s0)
1c0085b0:	08444783          	lbu	a5,132(s0)
1c0085b4:	40b2                	lw	ra,12(sp)
1c0085b6:	4422                	lw	s0,8(sp)
1c0085b8:	04078793          	addi	a5,a5,64
1c0085bc:	00201737          	lui	a4,0x201
1c0085c0:	07da                	slli	a5,a5,0x16
1c0085c2:	e0470713          	addi	a4,a4,-508 # 0x200e04
1c0085c6:	0007e723          	p.sw	zero,a4(a5)
1c0085ca:	0141                	addi	sp,sp,16
1c0085cc:	8082                	ret
1c0085ce:	1c00a7b7          	lui	a5,0x1c00a
1c0085d2:	4787a783          	lw	a5,1144(a5) # 0x1c00a478
1c0085d6:	cf81                	beqz	a5,0x1c0085ee
1c0085d8:	1c00a7b7          	lui	a5,0x1c00a
1c0085dc:	7fc7a783          	lw	a5,2044(a5) # 0x1c00a7fc
1c0085e0:	e799                	bnez	a5,0x1c0085ee
1c0085e2:	1c00a7b7          	lui	a5,0x1c00a
1c0085e6:	7cc7a783          	lw	a5,1996(a5) # 0x1c00a7cc
1c0085ea:	0427b763          	p.bneimm	a5,2,0x1c008638
1c0085ee:	7135                	addi	sp,sp,-160
1c0085f0:	014027f3          	csrr	a5,uhartid
1c0085f4:	cf06                	sw	ra,156(sp)
1c0085f6:	ca5797b3          	p.extractu	a5,a5,5,5
1c0085fa:	02000713          	li	a4,32
1c0085fe:	1b000537          	lui	a0,0x1b000
1c008602:	00e79963          	bne	a5,a4,0x1c008614
1c008606:	41850513          	addi	a0,a0,1048 # 0x1b000418
1c00860a:	da7fd0ef          	jal	ra,0x1c0063b0
1c00860e:	40fa                	lw	ra,156(sp)
1c008610:	610d                	addi	sp,sp,160
1c008612:	8082                	ret
1c008614:	002c                	addi	a1,sp,8
1c008616:	41850513          	addi	a0,a0,1048
1c00861a:	e03fd0ef          	jal	ra,0x1c00641c
1c00861e:	4689                	li	a3,2
1c008620:	00204737          	lui	a4,0x204
1c008624:	08c14783          	lbu	a5,140(sp)
1c008628:	0ff7f793          	andi	a5,a5,255
1c00862c:	f3ed                	bnez	a5,0x1c00860e
1c00862e:	c714                	sw	a3,8(a4)
1c008630:	03c76783          	p.elw	a5,60(a4) # 0x20403c
1c008634:	c354                	sw	a3,4(a4)
1c008636:	b7fd                	j	0x1c008624
1c008638:	8082                	ret
1c00863a:	7171                	addi	sp,sp,-176
1c00863c:	d522                	sw	s0,168(sp)
1c00863e:	d706                	sw	ra,172(sp)
1c008640:	d326                	sw	s1,164(sp)
1c008642:	d14a                	sw	s2,160(sp)
1c008644:	cf4e                	sw	s3,156(sp)
1c008646:	cd52                	sw	s4,152(sp)
1c008648:	1c00a437          	lui	s0,0x1c00a
1c00864c:	7f442783          	lw	a5,2036(s0) # 0x1c00a7f4
1c008650:	7f440993          	addi	s3,s0,2036
1c008654:	efad                	bnez	a5,0x1c0086ce
1c008656:	1c00a637          	lui	a2,0x1c00a
1c00865a:	46860793          	addi	a5,a2,1128 # 0x1c00a468
1c00865e:	4f80                	lw	s0,24(a5)
1c008660:	46860a13          	addi	s4,a2,1128
1c008664:	cc29                	beqz	s0,0x1c0086be
1c008666:	1c00a737          	lui	a4,0x1c00a
1c00866a:	014027f3          	csrr	a5,uhartid
1c00866e:	7fc72483          	lw	s1,2044(a4) # 0x1c00a7fc
1c008672:	ca5797b3          	p.extractu	a5,a5,5,5
1c008676:	02000713          	li	a4,32
1c00867a:	1c00a937          	lui	s2,0x1c00a
1c00867e:	06e79263          	bne	a5,a4,0x1c0086e2
1c008682:	1c0085b7          	lui	a1,0x1c008
1c008686:	4785                	li	a5,1
1c008688:	46860613          	addi	a2,a2,1128
1c00868c:	40c58593          	addi	a1,a1,1036 # 0x1c00840c
1c008690:	4501                	li	a0,0
1c008692:	00f9a023          	sw	a5,0(s3)
1c008696:	8fafe0ef          	jal	ra,0x1c006790
1c00869a:	40cc                	lw	a1,4(s1)
1c00869c:	87aa                	mv	a5,a0
1c00869e:	4701                	li	a4,0
1c0086a0:	0586                	slli	a1,a1,0x1
1c0086a2:	86a2                	mv	a3,s0
1c0086a4:	48490613          	addi	a2,s2,1156 # 0x1c00a484
1c0086a8:	0585                	addi	a1,a1,1
1c0086aa:	4501                	li	a0,0
1c0086ac:	e88fe0ef          	jal	ra,0x1c006d34
1c0086b0:	f1fff0ef          	jal	ra,0x1c0085ce
1c0086b4:	0009a783          	lw	a5,0(s3)
1c0086b8:	e395                	bnez	a5,0x1c0086dc
1c0086ba:	e75ff0ef          	jal	ra,0x1c00852e
1c0086be:	50ba                	lw	ra,172(sp)
1c0086c0:	542a                	lw	s0,168(sp)
1c0086c2:	549a                	lw	s1,164(sp)
1c0086c4:	590a                	lw	s2,160(sp)
1c0086c6:	49fa                	lw	s3,156(sp)
1c0086c8:	4a6a                	lw	s4,152(sp)
1c0086ca:	614d                	addi	sp,sp,176
1c0086cc:	8082                	ret
1c0086ce:	f01ff0ef          	jal	ra,0x1c0085ce
1c0086d2:	e39ff0ef          	jal	ra,0x1c00850a
1c0086d6:	e59ff0ef          	jal	ra,0x1c00852e
1c0086da:	bf8d                	j	0x1c00864c
1c0086dc:	e2fff0ef          	jal	ra,0x1c00850a
1c0086e0:	bfd1                	j	0x1c0086b4
1c0086e2:	0054                	addi	a3,sp,4
1c0086e4:	8622                	mv	a2,s0
1c0086e6:	48490593          	addi	a1,s2,1156
1c0086ea:	8526                	mv	a0,s1
1c0086ec:	7e7000ef          	jal	ra,0x1c0096d2
1c0086f0:	4689                	li	a3,2
1c0086f2:	00204737          	lui	a4,0x204
1c0086f6:	08c14783          	lbu	a5,140(sp)
1c0086fa:	0ff7f793          	andi	a5,a5,255
1c0086fe:	c781                	beqz	a5,0x1c008706
1c008700:	000a2c23          	sw	zero,24(s4)
1c008704:	bf6d                	j	0x1c0086be
1c008706:	c714                	sw	a3,8(a4)
1c008708:	03c76783          	p.elw	a5,60(a4) # 0x20403c
1c00870c:	c354                	sw	a3,4(a4)
1c00870e:	b7e5                	j	0x1c0086f6
1c008710:	7175                	addi	sp,sp,-144
1c008712:	c522                	sw	s0,136(sp)
1c008714:	c706                	sw	ra,140(sp)
1c008716:	1c00a437          	lui	s0,0x1c00a
1c00871a:	7f442783          	lw	a5,2036(s0) # 0x1c00a7f4
1c00871e:	eb85                	bnez	a5,0x1c00874e
1c008720:	1c00a437          	lui	s0,0x1c00a
1c008724:	7f040413          	addi	s0,s0,2032 # 0x1c00a7f0
1c008728:	4008                	lw	a0,0(s0)
1c00872a:	cd11                	beqz	a0,0x1c008746
1c00872c:	014027f3          	csrr	a5,uhartid
1c008730:	8795                	srai	a5,a5,0x5
1c008732:	f267b7b3          	p.bclr	a5,a5,25,6
1c008736:	02000713          	li	a4,32
1c00873a:	02e79163          	bne	a5,a4,0x1c00875c
1c00873e:	940fe0ef          	jal	ra,0x1c00687e
1c008742:	00042023          	sw	zero,0(s0)
1c008746:	40ba                	lw	ra,140(sp)
1c008748:	442a                	lw	s0,136(sp)
1c00874a:	6149                	addi	sp,sp,144
1c00874c:	8082                	ret
1c00874e:	e81ff0ef          	jal	ra,0x1c0085ce
1c008752:	db9ff0ef          	jal	ra,0x1c00850a
1c008756:	dd9ff0ef          	jal	ra,0x1c00852e
1c00875a:	b7c1                	j	0x1c00871a
1c00875c:	06f10ea3          	sb	a5,125(sp)
1c008760:	1c0087b7          	lui	a5,0x1c008
1c008764:	41a78793          	addi	a5,a5,1050 # 0x1c00841a
1c008768:	c03e                	sw	a5,0(sp)
1c00876a:	00010793          	mv	a5,sp
1c00876e:	4705                	li	a4,1
1c008770:	c23e                	sw	a5,4(sp)
1c008772:	850a                	mv	a0,sp
1c008774:	1c00a7b7          	lui	a5,0x1c00a
1c008778:	74e7a823          	sw	a4,1872(a5) # 0x1c00a750
1c00877c:	06010e23          	sb	zero,124(sp)
1c008780:	d002                	sw	zero,32(sp)
1c008782:	d202                	sw	zero,36(sp)
1c008784:	848ff0ef          	jal	ra,0x1c0077cc
1c008788:	4689                	li	a3,2
1c00878a:	00204737          	lui	a4,0x204
1c00878e:	07c14783          	lbu	a5,124(sp)
1c008792:	0ff7f793          	andi	a5,a5,255
1c008796:	fbc5                	bnez	a5,0x1c008746
1c008798:	c714                	sw	a3,8(a4)
1c00879a:	03c76783          	p.elw	a5,60(a4) # 0x20403c
1c00879e:	c354                	sw	a3,4(a4)
1c0087a0:	b7fd                	j	0x1c00878e
1c0087a2:	1141                	addi	sp,sp,-16
1c0087a4:	c422                	sw	s0,8(sp)
1c0087a6:	1c00a437          	lui	s0,0x1c00a
1c0087aa:	c606                	sw	ra,12(sp)
1c0087ac:	7fc40413          	addi	s0,s0,2044 # 0x1c00a7fc
1c0087b0:	f61ff0ef          	jal	ra,0x1c008710
1c0087b4:	4008                	lw	a0,0(s0)
1c0087b6:	4581                	li	a1,0
1c0087b8:	6cd000ef          	jal	ra,0x1c009684
1c0087bc:	40b2                	lw	ra,12(sp)
1c0087be:	00042023          	sw	zero,0(s0)
1c0087c2:	4422                	lw	s0,8(sp)
1c0087c4:	4501                	li	a0,0
1c0087c6:	0141                	addi	sp,sp,16
1c0087c8:	8082                	ret
1c0087ca:	0015478b          	p.lbu	a5,1(a0!)
1c0087ce:	0015c70b          	p.lbu	a4,1(a1!)
1c0087d2:	c399                	beqz	a5,0x1c0087d8
1c0087d4:	fee78be3          	beq	a5,a4,0x1c0087ca
1c0087d8:	40e78533          	sub	a0,a5,a4
1c0087dc:	8082                	ret
1c0087de:	87aa                	mv	a5,a0
1c0087e0:	0007c703          	lbu	a4,0(a5)
1c0087e4:	00178693          	addi	a3,a5,1
1c0087e8:	e701                	bnez	a4,0x1c0087f0
1c0087ea:	40a78533          	sub	a0,a5,a0
1c0087ee:	8082                	ret
1c0087f0:	87b6                	mv	a5,a3
1c0087f2:	b7fd                	j	0x1c0087e0
1c0087f4:	962a                	add	a2,a2,a0
1c0087f6:	87aa                	mv	a5,a0
1c0087f8:	00c79363          	bne	a5,a2,0x1c0087fe
1c0087fc:	8082                	ret
1c0087fe:	00b780ab          	p.sb	a1,1(a5!)
1c008802:	bfdd                	j	0x1c0087f8
1c008804:	00a5e733          	or	a4,a1,a0
1c008808:	fa273733          	p.bclr	a4,a4,29,2
1c00880c:	87aa                	mv	a5,a0
1c00880e:	c709                	beqz	a4,0x1c008818
1c008810:	962e                	add	a2,a2,a1
1c008812:	00c59f63          	bne	a1,a2,0x1c008830
1c008816:	8082                	ret
1c008818:	fa263733          	p.bclr	a4,a2,29,2
1c00881c:	fb75                	bnez	a4,0x1c008810
1c00881e:	962e                	add	a2,a2,a1
1c008820:	00c59363          	bne	a1,a2,0x1c008826
1c008824:	8082                	ret
1c008826:	0045a70b          	p.lw	a4,4(a1!)
1c00882a:	00e7a22b          	p.sw	a4,4(a5!)
1c00882e:	bfcd                	j	0x1c008820
1c008830:	0015c70b          	p.lbu	a4,1(a1!)
1c008834:	00e780ab          	p.sb	a4,1(a5!)
1c008838:	bfe9                	j	0x1c008812
1c00883a:	40b507b3          	sub	a5,a0,a1
1c00883e:	00c7e763          	bltu	a5,a2,0x1c00884c
1c008842:	962a                	add	a2,a2,a0
1c008844:	87aa                	mv	a5,a0
1c008846:	00c79f63          	bne	a5,a2,0x1c008864
1c00884a:	8082                	ret
1c00884c:	167d                	addi	a2,a2,-1
1c00884e:	00c507b3          	add	a5,a0,a2
1c008852:	95b2                	add	a1,a1,a2
1c008854:	0605                	addi	a2,a2,1
1c008856:	004640fb          	lp.setup	x1,a2,0x1c00885e
1c00885a:	fff5c70b          	p.lbu	a4,-1(a1!)
1c00885e:	fee78fab          	p.sb	a4,-1(a5!)
1c008862:	8082                	ret
1c008864:	0015c70b          	p.lbu	a4,1(a1!)
1c008868:	00e780ab          	p.sb	a4,1(a5!)
1c00886c:	bfe9                	j	0x1c008846
1c00886e:	0ff5f593          	andi	a1,a1,255
1c008872:	00054703          	lbu	a4,0(a0)
1c008876:	87aa                	mv	a5,a0
1c008878:	0505                	addi	a0,a0,1
1c00887a:	00b70563          	beq	a4,a1,0x1c008884
1c00887e:	fb75                	bnez	a4,0x1c008872
1c008880:	c191                	beqz	a1,0x1c008884
1c008882:	4781                	li	a5,0
1c008884:	853e                	mv	a0,a5
1c008886:	8082                	ret
1c008888:	1141                	addi	sp,sp,-16
1c00888a:	c422                	sw	s0,8(sp)
1c00888c:	1c00a437          	lui	s0,0x1c00a
1c008890:	c226                	sw	s1,4(sp)
1c008892:	c606                	sw	ra,12(sp)
1c008894:	84aa                	mv	s1,a0
1c008896:	46840413          	addi	s0,s0,1128 # 0x1c00a468
1c00889a:	485c                	lw	a5,20(s0)
1c00889c:	c791                	beqz	a5,0x1c0088a8
1c00889e:	06400513          	li	a0,100
1c0088a2:	b06fe0ef          	jal	ra,0x1c006ba8
1c0088a6:	bfd5                	j	0x1c00889a
1c0088a8:	4c1c                	lw	a5,24(s0)
1c0088aa:	00178713          	addi	a4,a5,1
1c0088ae:	97a2                	add	a5,a5,s0
1c0088b0:	00978e23          	sb	s1,28(a5)
1c0088b4:	cc18                	sw	a4,24(s0)
1c0088b6:	4c14                	lw	a3,24(s0)
1c0088b8:	08000793          	li	a5,128
1c0088bc:	00f68463          	beq	a3,a5,0x1c0088c4
1c0088c0:	00a4b663          	p.bneimm	s1,10,0x1c0088cc
1c0088c4:	c701                	beqz	a4,0x1c0088cc
1c0088c6:	c858                	sw	a4,20(s0)
1c0088c8:	00042c23          	sw	zero,24(s0)
1c0088cc:	4c1c                	lw	a5,24(s0)
1c0088ce:	e799                	bnez	a5,0x1c0088dc
1c0088d0:	4422                	lw	s0,8(sp)
1c0088d2:	40b2                	lw	ra,12(sp)
1c0088d4:	4492                	lw	s1,4(sp)
1c0088d6:	0141                	addi	sp,sp,16
1c0088d8:	d15fd06f          	j	0x1c0065ec
1c0088dc:	40b2                	lw	ra,12(sp)
1c0088de:	4422                	lw	s0,8(sp)
1c0088e0:	4492                	lw	s1,4(sp)
1c0088e2:	0141                	addi	sp,sp,16
1c0088e4:	8082                	ret
1c0088e6:	1101                	addi	sp,sp,-32
1c0088e8:	c62a                	sw	a0,12(sp)
1c0088ea:	ce06                	sw	ra,28(sp)
1c0088ec:	e25ff0ef          	jal	ra,0x1c008710
1c0088f0:	1c00a7b7          	lui	a5,0x1c00a
1c0088f4:	46878793          	addi	a5,a5,1128 # 0x1c00a468
1c0088f8:	4f94                	lw	a3,24(a5)
1c0088fa:	4532                	lw	a0,12(sp)
1c0088fc:	00168713          	addi	a4,a3,1
1c008900:	cf98                	sw	a4,24(a5)
1c008902:	97b6                	add	a5,a5,a3
1c008904:	00a78e23          	sb	a0,28(a5)
1c008908:	08000793          	li	a5,128
1c00890c:	00f70463          	beq	a4,a5,0x1c008914
1c008910:	00a53663          	p.bneimm	a0,10,0x1c00891c
1c008914:	40f2                	lw	ra,28(sp)
1c008916:	6105                	addi	sp,sp,32
1c008918:	d23ff06f          	j	0x1c00863a
1c00891c:	40f2                	lw	ra,28(sp)
1c00891e:	6105                	addi	sp,sp,32
1c008920:	8082                	ret
1c008922:	1c00a7b7          	lui	a5,0x1c00a
1c008926:	7cc7a783          	lw	a5,1996(a5) # 0x1c00a7cc
1c00892a:	7135                	addi	sp,sp,-160
1c00892c:	cf06                	sw	ra,156(sp)
1c00892e:	0427bc63          	p.bneimm	a5,2,0x1c008986
1c008932:	014027f3          	csrr	a5,uhartid
1c008936:	8795                	srai	a5,a5,0x5
1c008938:	f267b7b3          	p.bclr	a5,a5,25,6
1c00893c:	02000713          	li	a4,32
1c008940:	00e79763          	bne	a5,a4,0x1c00894e
1c008944:	b27ff0ef          	jal	ra,0x1c00846a
1c008948:	40fa                	lw	ra,156(sp)
1c00894a:	610d                	addi	sp,sp,160
1c00894c:	8082                	ret
1c00894e:	0030                	addi	a2,sp,8
1c008950:	1c0085b7          	lui	a1,0x1c008
1c008954:	4705                	li	a4,1
1c008956:	08a106a3          	sb	a0,141(sp)
1c00895a:	59a58593          	addi	a1,a1,1434 # 0x1c00859a
1c00895e:	8532                	mv	a0,a2
1c008960:	d63a                	sw	a4,44(sp)
1c008962:	08f10623          	sb	a5,140(sp)
1c008966:	c502                	sw	zero,136(sp)
1c008968:	e53fe0ef          	jal	ra,0x1c0077ba
1c00896c:	0028                	addi	a0,sp,8
1c00896e:	e5ffe0ef          	jal	ra,0x1c0077cc
1c008972:	4709                	li	a4,2
1c008974:	002047b7          	lui	a5,0x204
1c008978:	46aa                	lw	a3,136(sp)
1c00897a:	f6f9                	bnez	a3,0x1c008948
1c00897c:	c798                	sw	a4,8(a5)
1c00897e:	03c7e683          	p.elw	a3,60(a5) # 0x20403c
1c008982:	c3d8                	sw	a4,4(a5)
1c008984:	bfd5                	j	0x1c008978
1c008986:	1c00a7b7          	lui	a5,0x1c00a
1c00898a:	7fc7a783          	lw	a5,2044(a5) # 0x1c00a7fc
1c00898e:	c781                	beqz	a5,0x1c008996
1c008990:	f57ff0ef          	jal	ra,0x1c0088e6
1c008994:	bf55                	j	0x1c008948
1c008996:	1c00a7b7          	lui	a5,0x1c00a
1c00899a:	4787a783          	lw	a5,1144(a5) # 0x1c00a478
1c00899e:	c395                	beqz	a5,0x1c0089c2
1c0089a0:	6689                	lui	a3,0x2
1c0089a2:	014027f3          	csrr	a5,uhartid
1c0089a6:	f8068693          	addi	a3,a3,-128 # 0x1f80
1c0089aa:	00379713          	slli	a4,a5,0x3
1c0089ae:	078a                	slli	a5,a5,0x2
1c0089b0:	ee873733          	p.bclr	a4,a4,23,8
1c0089b4:	8ff5                	and	a5,a5,a3
1c0089b6:	97ba                	add	a5,a5,a4
1c0089b8:	1a110737          	lui	a4,0x1a110
1c0089bc:	00a767a3          	p.sw	a0,a5(a4)
1c0089c0:	b761                	j	0x1c008948
1c0089c2:	ec7ff0ef          	jal	ra,0x1c008888
1c0089c6:	b749                	j	0x1c008948
1c0089c8:	1141                	addi	sp,sp,-16
1c0089ca:	c422                	sw	s0,8(sp)
1c0089cc:	c606                	sw	ra,12(sp)
1c0089ce:	842a                	mv	s0,a0
1c0089d0:	b5fff0ef          	jal	ra,0x1c00852e
1c0089d4:	0014450b          	p.lbu	a0,1(s0!)
1c0089d8:	c501                	beqz	a0,0x1c0089e0
1c0089da:	f49ff0ef          	jal	ra,0x1c008922
1c0089de:	bfdd                	j	0x1c0089d4
1c0089e0:	4529                	li	a0,10
1c0089e2:	f41ff0ef          	jal	ra,0x1c008922
1c0089e6:	be9ff0ef          	jal	ra,0x1c0085ce
1c0089ea:	40b2                	lw	ra,12(sp)
1c0089ec:	4422                	lw	s0,8(sp)
1c0089ee:	4501                	li	a0,0
1c0089f0:	0141                	addi	sp,sp,16
1c0089f2:	8082                	ret
1c0089f4:	1141                	addi	sp,sp,-16
1c0089f6:	c422                	sw	s0,8(sp)
1c0089f8:	842a                	mv	s0,a0
1c0089fa:	0ff57513          	andi	a0,a0,255
1c0089fe:	c606                	sw	ra,12(sp)
1c008a00:	f23ff0ef          	jal	ra,0x1c008922
1c008a04:	8522                	mv	a0,s0
1c008a06:	40b2                	lw	ra,12(sp)
1c008a08:	4422                	lw	s0,8(sp)
1c008a0a:	0141                	addi	sp,sp,16
1c008a0c:	8082                	ret
1c008a0e:	1141                	addi	sp,sp,-16
1c008a10:	c606                	sw	ra,12(sp)
1c008a12:	c422                	sw	s0,8(sp)
1c008a14:	842a                	mv	s0,a0
1c008a16:	b19ff0ef          	jal	ra,0x1c00852e
1c008a1a:	0ff47513          	andi	a0,s0,255
1c008a1e:	f05ff0ef          	jal	ra,0x1c008922
1c008a22:	1c00a7b7          	lui	a5,0x1c00a
1c008a26:	4787a783          	lw	a5,1144(a5) # 0x1c00a478
1c008a2a:	e399                	bnez	a5,0x1c008a30
1c008a2c:	bc1fd0ef          	jal	ra,0x1c0065ec
1c008a30:	b9fff0ef          	jal	ra,0x1c0085ce
1c008a34:	8522                	mv	a0,s0
1c008a36:	40b2                	lw	ra,12(sp)
1c008a38:	4422                	lw	s0,8(sp)
1c008a3a:	0141                	addi	sp,sp,16
1c008a3c:	8082                	ret
1c008a3e:	4589                	li	a1,2
1c008a40:	fcfff06f          	j	0x1c008a0e
1c008a44:	1101                	addi	sp,sp,-32
1c008a46:	ce06                	sw	ra,28(sp)
1c008a48:	c02a                	sw	a0,0(sp)
1c008a4a:	c62e                	sw	a1,12(sp)
1c008a4c:	c432                	sw	a2,8(sp)
1c008a4e:	c236                	sw	a3,4(sp)
1c008a50:	adfff0ef          	jal	ra,0x1c00852e
1c008a54:	4692                	lw	a3,4(sp)
1c008a56:	4622                	lw	a2,8(sp)
1c008a58:	45b2                	lw	a1,12(sp)
1c008a5a:	4502                	lw	a0,0(sp)
1c008a5c:	2c19                	jal	0x1c008c72
1c008a5e:	c02a                	sw	a0,0(sp)
1c008a60:	b6fff0ef          	jal	ra,0x1c0085ce
1c008a64:	40f2                	lw	ra,28(sp)
1c008a66:	4502                	lw	a0,0(sp)
1c008a68:	6105                	addi	sp,sp,32
1c008a6a:	8082                	ret
1c008a6c:	1141                	addi	sp,sp,-16
1c008a6e:	c422                	sw	s0,8(sp)
1c008a70:	1a104437          	lui	s0,0x1a104
1c008a74:	c04a                	sw	s2,0(sp)
1c008a76:	0a040793          	addi	a5,s0,160 # 0x1a1040a0
1c008a7a:	c606                	sw	ra,12(sp)
1c008a7c:	c226                	sw	s1,4(sp)
1c008a7e:	c1f54933          	p.bset	s2,a0,0,31
1c008a82:	0127a023          	sw	s2,0(a5)
1c008a86:	1c00a7b7          	lui	a5,0x1c00a
1c008a8a:	7cc7a783          	lw	a5,1996(a5) # 0x1c00a7cc
1c008a8e:	0027bf63          	p.bneimm	a5,2,0x1c008aac
1c008a92:	c901                	beqz	a0,0x1c008aa2
1c008a94:	00020537          	lui	a0,0x20
1c008a98:	02350513          	addi	a0,a0,35 # 0x20023
1c008a9c:	895f80ef          	jal	ra,0x1c001330
1c008aa0:	a001                	j	0x1c008aa0
1c008aa2:	00020537          	lui	a0,0x20
1c008aa6:	02650513          	addi	a0,a0,38 # 0x20026
1c008aaa:	bfcd                	j	0x1c008a9c
1c008aac:	1c00a4b7          	lui	s1,0x1c00a
1c008ab0:	46848493          	addi	s1,s1,1128 # 0x1c00a468
1c008ab4:	b39fd0ef          	jal	ra,0x1c0065ec
1c008ab8:	0124a623          	sw	s2,12(s1)
1c008abc:	af3fd0ef          	jal	ra,0x1c0065ae
1c008ac0:	449c                	lw	a5,8(s1)
1c008ac2:	dff9                	beqz	a5,0x1c008aa0
1c008ac4:	07440413          	addi	s0,s0,116
1c008ac8:	401c                	lw	a5,0(s0)
1c008aca:	83a5                	srli	a5,a5,0x9
1c008acc:	f837b7b3          	p.bclr	a5,a5,28,3
1c008ad0:	fe77bce3          	p.bneimm	a5,7,0x1c008ac8
1c008ad4:	afbfd0ef          	jal	ra,0x1c0065ce
1c008ad8:	b7e1                	j	0x1c008aa0
1c008ada:	1141                	addi	sp,sp,-16
1c008adc:	557d                	li	a0,-1
1c008ade:	c606                	sw	ra,12(sp)
1c008ae0:	f8dff0ef          	jal	ra,0x1c008a6c
1c008ae4:	1c00a7b7          	lui	a5,0x1c00a
1c008ae8:	7e07ac23          	sw	zero,2040(a5) # 0x1c00a7f8
1c008aec:	1b0007b7          	lui	a5,0x1b000
1c008af0:	41878793          	addi	a5,a5,1048 # 0x1b000418
1c008af4:	0007a223          	sw	zero,4(a5)
1c008af8:	0007a023          	sw	zero,0(a5)
1c008afc:	0007a623          	sw	zero,12(a5)
1c008b00:	1c00a7b7          	lui	a5,0x1c00a
1c008b04:	7e07ae23          	sw	zero,2044(a5) # 0x1c00a7fc
1c008b08:	1c00a7b7          	lui	a5,0x1c00a
1c008b0c:	7e07a823          	sw	zero,2032(a5) # 0x1c00a7f0
1c008b10:	1c00a7b7          	lui	a5,0x1c00a
1c008b14:	7cc7a783          	lw	a5,1996(a5) # 0x1c00a7cc
1c008b18:	0217be63          	p.bneimm	a5,1,0x1c008b54
1c008b1c:	1c0085b7          	lui	a1,0x1c008
1c008b20:	1141                	addi	sp,sp,-16
1c008b22:	4601                	li	a2,0
1c008b24:	4ac58593          	addi	a1,a1,1196 # 0x1c0084ac
1c008b28:	4501                	li	a0,0
1c008b2a:	c606                	sw	ra,12(sp)
1c008b2c:	fc2fd0ef          	jal	ra,0x1c0062ee
1c008b30:	1c0085b7          	lui	a1,0x1c008
1c008b34:	7a258593          	addi	a1,a1,1954 # 0x1c0087a2
1c008b38:	4601                	li	a2,0
1c008b3a:	4505                	li	a0,1
1c008b3c:	fb2fd0ef          	jal	ra,0x1c0062ee
1c008b40:	40b2                	lw	ra,12(sp)
1c008b42:	1c00a7b7          	lui	a5,0x1c00a
1c008b46:	7e07aa23          	sw	zero,2036(a5) # 0x1c00a7f4
1c008b4a:	4585                	li	a1,1
1c008b4c:	4501                	li	a0,0
1c008b4e:	0141                	addi	sp,sp,16
1c008b50:	bbffd06f          	j	0x1c00670e
1c008b54:	8082                	ret
1c008b56:	7139                	addi	sp,sp,-64
1c008b58:	d432                	sw	a2,40(sp)
1c008b5a:	862a                	mv	a2,a0
1c008b5c:	1c009537          	lui	a0,0x1c009
1c008b60:	d22e                	sw	a1,36(sp)
1c008b62:	d636                	sw	a3,44(sp)
1c008b64:	4589                	li	a1,2
1c008b66:	1054                	addi	a3,sp,36
1c008b68:	9f450513          	addi	a0,a0,-1548 # 0x1c0089f4
1c008b6c:	ce06                	sw	ra,28(sp)
1c008b6e:	d83a                	sw	a4,48(sp)
1c008b70:	da3e                	sw	a5,52(sp)
1c008b72:	dc42                	sw	a6,56(sp)
1c008b74:	de46                	sw	a7,60(sp)
1c008b76:	c636                	sw	a3,12(sp)
1c008b78:	ecdff0ef          	jal	ra,0x1c008a44
1c008b7c:	40f2                	lw	ra,28(sp)
1c008b7e:	6121                	addi	sp,sp,64
1c008b80:	8082                	ret
1c008b82:	872a                	mv	a4,a0
1c008b84:	87aa                	mv	a5,a0
1c008b86:	4325                	li	t1,9
1c008b88:	02c5f8b3          	remu	a7,a1,a2
1c008b8c:	02700513          	li	a0,39
1c008b90:	02c5d5b3          	divu	a1,a1,a2
1c008b94:	0ff8f813          	andi	a6,a7,255
1c008b98:	01136363          	bltu	t1,a7,0x1c008b9e
1c008b9c:	4501                	li	a0,0
1c008b9e:	03080813          	addi	a6,a6,48
1c008ba2:	9542                	add	a0,a0,a6
1c008ba4:	00a780ab          	p.sb	a0,1(a5!)
1c008ba8:	f1e5                	bnez	a1,0x1c008b88
1c008baa:	03000613          	li	a2,48
1c008bae:	40e78533          	sub	a0,a5,a4
1c008bb2:	00d54763          	blt	a0,a3,0x1c008bc0
1c008bb6:	fe078fab          	p.sb	zero,-1(a5!)
1c008bba:	00f76663          	bltu	a4,a5,0x1c008bc6
1c008bbe:	8082                	ret
1c008bc0:	00c780ab          	p.sb	a2,1(a5!)
1c008bc4:	b7ed                	j	0x1c008bae
1c008bc6:	00074603          	lbu	a2,0(a4) # 0x1a110000
1c008bca:	0007c683          	lbu	a3,0(a5)
1c008bce:	fec78fab          	p.sb	a2,-1(a5!)
1c008bd2:	00d700ab          	p.sb	a3,1(a4!)
1c008bd6:	b7d5                	j	0x1c008bba
1c008bd8:	411c                	lw	a5,0(a0)
1c008bda:	4154                	lw	a3,4(a0)
1c008bdc:	fc17b733          	p.bclr	a4,a5,30,1
1c008be0:	01f69613          	slli	a2,a3,0x1f
1c008be4:	8385                	srli	a5,a5,0x1
1c008be6:	8fd1                	or	a5,a5,a2
1c008be8:	97ba                	add	a5,a5,a4
1c008bea:	8285                	srli	a3,a3,0x1
1c008bec:	00e7b733          	sltu	a4,a5,a4
1c008bf0:	9736                	add	a4,a4,a3
1c008bf2:	c11c                	sw	a5,0(a0)
1c008bf4:	c158                	sw	a4,4(a0)
1c008bf6:	8082                	ret
1c008bf8:	4118                	lw	a4,0(a0)
1c008bfa:	4154                	lw	a3,4(a0)
1c008bfc:	4615                	li	a2,5
1c008bfe:	00270793          	addi	a5,a4,2
1c008c02:	00e7b733          	sltu	a4,a5,a4
1c008c06:	9736                	add	a4,a4,a3
1c008c08:	02c755b3          	divu	a1,a4,a2
1c008c0c:	42b61733          	p.msu	a4,a2,a1
1c008c10:	01d71693          	slli	a3,a4,0x1d
1c008c14:	0037d713          	srli	a4,a5,0x3
1c008c18:	8f55                	or	a4,a4,a3
1c008c1a:	02c75733          	divu	a4,a4,a2
1c008c1e:	01d75693          	srli	a3,a4,0x1d
1c008c22:	070e                	slli	a4,a4,0x3
1c008c24:	42e617b3          	p.msu	a5,a2,a4
1c008c28:	95b6                	add	a1,a1,a3
1c008c2a:	02c7d7b3          	divu	a5,a5,a2
1c008c2e:	973e                	add	a4,a4,a5
1c008c30:	00f737b3          	sltu	a5,a4,a5
1c008c34:	97ae                	add	a5,a5,a1
1c008c36:	c118                	sw	a4,0(a0)
1c008c38:	c15c                	sw	a5,4(a0)
1c008c3a:	8082                	ret
1c008c3c:	419c                	lw	a5,0(a1)
1c008c3e:	03000713          	li	a4,48
1c008c42:	02f05563          	blez	a5,0x1c008c6c
1c008c46:	17fd                	addi	a5,a5,-1
1c008c48:	c19c                	sw	a5,0(a1)
1c008c4a:	411c                	lw	a5,0(a0)
1c008c4c:	4729                	li	a4,10
1c008c4e:	4150                	lw	a2,4(a0)
1c008c50:	02f706b3          	mul	a3,a4,a5
1c008c54:	02f737b3          	mulhu	a5,a4,a5
1c008c58:	c114                	sw	a3,0(a0)
1c008c5a:	42c707b3          	p.mac	a5,a4,a2
1c008c5e:	01c7d713          	srli	a4,a5,0x1c
1c008c62:	c7c7b7b3          	p.bclr	a5,a5,3,28
1c008c66:	03070713          	addi	a4,a4,48
1c008c6a:	c15c                	sw	a5,4(a0)
1c008c6c:	0ff77513          	andi	a0,a4,255
1c008c70:	8082                	ret
1c008c72:	714d                	addi	sp,sp,-336
1c008c74:	14912223          	sw	s1,324(sp)
1c008c78:	15212023          	sw	s2,320(sp)
1c008c7c:	13812423          	sw	s8,296(sp)
1c008c80:	14112623          	sw	ra,332(sp)
1c008c84:	14812423          	sw	s0,328(sp)
1c008c88:	13312e23          	sw	s3,316(sp)
1c008c8c:	13412c23          	sw	s4,312(sp)
1c008c90:	13512a23          	sw	s5,308(sp)
1c008c94:	13612823          	sw	s6,304(sp)
1c008c98:	13712623          	sw	s7,300(sp)
1c008c9c:	13912223          	sw	s9,292(sp)
1c008ca0:	13a12023          	sw	s10,288(sp)
1c008ca4:	11b12e23          	sw	s11,284(sp)
1c008ca8:	cc2a                	sw	a0,24(sp)
1c008caa:	ce2e                	sw	a1,28(sp)
1c008cac:	84b2                	mv	s1,a2
1c008cae:	8c36                	mv	s8,a3
1c008cb0:	4901                	li	s2,0
1c008cb2:	0004c503          	lbu	a0,0(s1)
1c008cb6:	00148b93          	addi	s7,s1,1
1c008cba:	c919                	beqz	a0,0x1c008cd0
1c008cbc:	02500793          	li	a5,37
1c008cc0:	14f50763          	beq	a0,a5,0x1c008e0e
1c008cc4:	45f2                	lw	a1,28(sp)
1c008cc6:	4762                	lw	a4,24(sp)
1c008cc8:	9702                	jalr	a4
1c008cca:	05f53063          	p.bneimm	a0,-1,0x1c008d0a
1c008cce:	597d                	li	s2,-1
1c008cd0:	14c12083          	lw	ra,332(sp)
1c008cd4:	14812403          	lw	s0,328(sp)
1c008cd8:	854a                	mv	a0,s2
1c008cda:	14412483          	lw	s1,324(sp)
1c008cde:	14012903          	lw	s2,320(sp)
1c008ce2:	13c12983          	lw	s3,316(sp)
1c008ce6:	13812a03          	lw	s4,312(sp)
1c008cea:	13412a83          	lw	s5,308(sp)
1c008cee:	13012b03          	lw	s6,304(sp)
1c008cf2:	12c12b83          	lw	s7,300(sp)
1c008cf6:	12812c03          	lw	s8,296(sp)
1c008cfa:	12412c83          	lw	s9,292(sp)
1c008cfe:	12012d03          	lw	s10,288(sp)
1c008d02:	11c12d83          	lw	s11,284(sp)
1c008d06:	6171                	addi	sp,sp,336
1c008d08:	8082                	ret
1c008d0a:	0905                	addi	s2,s2,1
1c008d0c:	8a62                	mv	s4,s8
1c008d0e:	84de                	mv	s1,s7
1c008d10:	8c52                	mv	s8,s4
1c008d12:	b745                	j	0x1c008cb2
1c008d14:	0f3a8463          	beq	s5,s3,0x1c008dfc
1c008d18:	0d59e763          	bltu	s3,s5,0x1c008de6
1c008d1c:	fa0a8ae3          	beqz	s5,0x1c008cd0
1c008d20:	0dba8c63          	beq	s5,s11,0x1c008df8
1c008d24:	8ba6                	mv	s7,s1
1c008d26:	000bca83          	lbu	s5,0(s7) # 0x1000000
1c008d2a:	1c00a7b7          	lui	a5,0x1c00a
1c008d2e:	00878513          	addi	a0,a5,8 # 0x1c00a008
1c008d32:	85d6                	mv	a1,s5
1c008d34:	001b8493          	addi	s1,s7,1
1c008d38:	b37ff0ef          	jal	ra,0x1c00886e
1c008d3c:	fd61                	bnez	a0,0x1c008d14
1c008d3e:	02a00693          	li	a3,42
1c008d42:	0eda9863          	bne	s5,a3,0x1c008e32
1c008d46:	000c2983          	lw	s3,0(s8)
1c008d4a:	004c0693          	addi	a3,s8,4
1c008d4e:	0009d663          	bgez	s3,0x1c008d5a
1c008d52:	4705                	li	a4,1
1c008d54:	413009b3          	neg	s3,s3
1c008d58:	ca3a                	sw	a4,20(sp)
1c008d5a:	0004ca83          	lbu	s5,0(s1)
1c008d5e:	8c36                	mv	s8,a3
1c008d60:	002b8493          	addi	s1,s7,2
1c008d64:	0c800713          	li	a4,200
1c008d68:	02e00693          	li	a3,46
1c008d6c:	04e9d9b3          	p.minu	s3,s3,a4
1c008d70:	5d7d                	li	s10,-1
1c008d72:	02da9463          	bne	s5,a3,0x1c008d9a
1c008d76:	0004c703          	lbu	a4,0(s1)
1c008d7a:	02a00793          	li	a5,42
1c008d7e:	0ef71d63          	bne	a4,a5,0x1c008e78
1c008d82:	000c2d03          	lw	s10,0(s8)
1c008d86:	0485                	addi	s1,s1,1
1c008d88:	0c11                	addi	s8,s8,4
1c008d8a:	0c800793          	li	a5,200
1c008d8e:	01a7d363          	ble	s10,a5,0x1c008d94
1c008d92:	5d7d                	li	s10,-1
1c008d94:	0004ca83          	lbu	s5,0(s1)
1c008d98:	0485                	addi	s1,s1,1
1c008d9a:	1c00a7b7          	lui	a5,0x1c00a
1c008d9e:	85d6                	mv	a1,s5
1c008da0:	01078513          	addi	a0,a5,16 # 0x1c00a010
1c008da4:	acbff0ef          	jal	ra,0x1c00886e
1c008da8:	c501                	beqz	a0,0x1c008db0
1c008daa:	0004ca83          	lbu	s5,0(s1)
1c008dae:	0485                	addi	s1,s1,1
1c008db0:	06700693          	li	a3,103
1c008db4:	1356c663          	blt	a3,s5,0x1c008ee0
1c008db8:	06500693          	li	a3,101
1c008dbc:	20dad263          	ble	a3,s5,0x1c008fc0
1c008dc0:	04700693          	li	a3,71
1c008dc4:	0b56ce63          	blt	a3,s5,0x1c008e80
1c008dc8:	04500693          	li	a3,69
1c008dcc:	1edada63          	ble	a3,s5,0x1c008fc0
1c008dd0:	f00a80e3          	beqz	s5,0x1c008cd0
1c008dd4:	02500713          	li	a4,37
1c008dd8:	64ea8e63          	beq	s5,a4,0x1c009434
1c008ddc:	0c800713          	li	a4,200
1c008de0:	67575263          	ble	s5,a4,0x1c009444
1c008de4:	b5ed                	j	0x1c008cce
1c008de6:	034a8163          	beq	s5,s4,0x1c008e08
1c008dea:	016a8b63          	beq	s5,s6,0x1c008e00
1c008dee:	f3aa9be3          	bne	s5,s10,0x1c008d24
1c008df2:	4785                	li	a5,1
1c008df4:	c83e                	sw	a5,16(sp)
1c008df6:	b73d                	j	0x1c008d24
1c008df8:	4405                	li	s0,1
1c008dfa:	b72d                	j	0x1c008d24
1c008dfc:	4c85                	li	s9,1
1c008dfe:	b71d                	j	0x1c008d24
1c008e00:	03000713          	li	a4,48
1c008e04:	c63a                	sw	a4,12(sp)
1c008e06:	bf39                	j	0x1c008d24
1c008e08:	4785                	li	a5,1
1c008e0a:	ca3e                	sw	a5,20(sp)
1c008e0c:	bf21                	j	0x1c008d24
1c008e0e:	02000713          	li	a4,32
1c008e12:	c63a                	sw	a4,12(sp)
1c008e14:	4401                	li	s0,0
1c008e16:	c802                	sw	zero,16(sp)
1c008e18:	ca02                	sw	zero,20(sp)
1c008e1a:	4c81                	li	s9,0
1c008e1c:	02300993          	li	s3,35
1c008e20:	02d00a13          	li	s4,45
1c008e24:	03000b13          	li	s6,48
1c008e28:	02b00d13          	li	s10,43
1c008e2c:	02000d93          	li	s11,32
1c008e30:	bddd                	j	0x1c008d26
1c008e32:	fd0a8693          	addi	a3,s5,-48
1c008e36:	4625                	li	a2,9
1c008e38:	4981                	li	s3,0
1c008e3a:	f2d665e3          	bltu	a2,a3,0x1c008d64
1c008e3e:	46a5                	li	a3,9
1c008e40:	45a9                	li	a1,10
1c008e42:	84de                	mv	s1,s7
1c008e44:	0014c70b          	p.lbu	a4,1(s1!)
1c008e48:	fd070613          	addi	a2,a4,-48
1c008e4c:	8aba                	mv	s5,a4
1c008e4e:	f0c6ebe3          	bltu	a3,a2,0x1c008d64
1c008e52:	42b98733          	p.mac	a4,s3,a1
1c008e56:	8ba6                	mv	s7,s1
1c008e58:	fd070993          	addi	s3,a4,-48
1c008e5c:	b7dd                	j	0x1c008e42
1c008e5e:	42ad07b3          	p.mac	a5,s10,a0
1c008e62:	84b6                	mv	s1,a3
1c008e64:	fd078d13          	addi	s10,a5,-48
1c008e68:	86a6                	mv	a3,s1
1c008e6a:	0016c78b          	p.lbu	a5,1(a3!)
1c008e6e:	fd078593          	addi	a1,a5,-48
1c008e72:	feb676e3          	bleu	a1,a2,0x1c008e5e
1c008e76:	bf11                	j	0x1c008d8a
1c008e78:	4d01                	li	s10,0
1c008e7a:	4625                	li	a2,9
1c008e7c:	4529                	li	a0,10
1c008e7e:	b7ed                	j	0x1c008e68
1c008e80:	06300693          	li	a3,99
1c008e84:	0cda8f63          	beq	s5,a3,0x1c008f62
1c008e88:	0756cc63          	blt	a3,s5,0x1c008f00
1c008e8c:	05800693          	li	a3,88
1c008e90:	f4da96e3          	bne	s5,a3,0x1c008ddc
1c008e94:	04410b93          	addi	s7,sp,68
1c008e98:	004c0a13          	addi	s4,s8,4
1c008e9c:	000c2583          	lw	a1,0(s8)
1c008ea0:	845e                	mv	s0,s7
1c008ea2:	000c8963          	beqz	s9,0x1c008eb4
1c008ea6:	76e1                	lui	a3,0xffff8
1c008ea8:	8306c693          	xori	a3,a3,-2000
1c008eac:	04d11223          	sh	a3,68(sp)
1c008eb0:	04610413          	addi	s0,sp,70
1c008eb4:	86ea                	mv	a3,s10
1c008eb6:	4641                	li	a2,16
1c008eb8:	8522                	mv	a0,s0
1c008eba:	cc9ff0ef          	jal	ra,0x1c008b82
1c008ebe:	05800693          	li	a3,88
1c008ec2:	00da9863          	bne	s5,a3,0x1c008ed2
1c008ec6:	86de                	mv	a3,s7
1c008ec8:	45e5                	li	a1,25
1c008eca:	0016c78b          	p.lbu	a5,1(a3!) # 0xffff8001
1c008ece:	54079963          	bnez	a5,0x1c009420
1c008ed2:	41740433          	sub	s0,s0,s7
1c008ed6:	9522                	add	a0,a0,s0
1c008ed8:	01903433          	snez	s0,s9
1c008edc:	0406                	slli	s0,s0,0x1
1c008ede:	a0f1                	j	0x1c008faa
1c008ee0:	07000693          	li	a3,112
1c008ee4:	4eda8763          	beq	s5,a3,0x1c0093d2
1c008ee8:	0556c163          	blt	a3,s5,0x1c008f2a
1c008eec:	06e00693          	li	a3,110
1c008ef0:	46da8463          	beq	s5,a3,0x1c009358
1c008ef4:	4756c963          	blt	a3,s5,0x1c009366
1c008ef8:	06900693          	li	a3,105
1c008efc:	eeda90e3          	bne	s5,a3,0x1c008ddc
1c008f00:	000c2a83          	lw	s5,0(s8)
1c008f04:	004c0a13          	addi	s4,s8,4
1c008f08:	04410b13          	addi	s6,sp,68
1c008f0c:	060ad663          	bgez	s5,0x1c008f78
1c008f10:	02d00693          	li	a3,45
1c008f14:	04d10223          	sb	a3,68(sp)
1c008f18:	80000737          	lui	a4,0x80000
1c008f1c:	415005b3          	neg	a1,s5
1c008f20:	06ea9663          	bne	s5,a4,0x1c008f8c
1c008f24:	800005b7          	lui	a1,0x80000
1c008f28:	a095                	j	0x1c008f8c
1c008f2a:	07500693          	li	a3,117
1c008f2e:	4cda8f63          	beq	s5,a3,0x1c00940c
1c008f32:	07800693          	li	a3,120
1c008f36:	f4da8fe3          	beq	s5,a3,0x1c008e94
1c008f3a:	07300693          	li	a3,115
1c008f3e:	e8da9fe3          	bne	s5,a3,0x1c008ddc
1c008f42:	000c2583          	lw	a1,0(s8)
1c008f46:	004c0a13          	addi	s4,s8,4
1c008f4a:	4c81                	li	s9,0
1c008f4c:	86ae                	mv	a3,a1
1c008f4e:	0c8350fb          	lp.setupi	x1,200,0x1c008f5a
1c008f52:	0016c60b          	p.lbu	a2,1(a3!)
1c008f56:	4a060063          	beqz	a2,0x1c0093f6
1c008f5a:	0c85                	addi	s9,s9,1
1c008f5c:	480d5f63          	bgez	s10,0x1c0093fa
1c008f60:	a14d                	j	0x1c009402
1c008f62:	000c2783          	lw	a5,0(s8)
1c008f66:	004c0a13          	addi	s4,s8,4
1c008f6a:	040102a3          	sb	zero,69(sp)
1c008f6e:	04f10223          	sb	a5,68(sp)
1c008f72:	4c85                	li	s9,1
1c008f74:	4401                	li	s0,0
1c008f76:	a919                	j	0x1c00938c
1c008f78:	47c2                	lw	a5,16(sp)
1c008f7a:	02b00693          	li	a3,43
1c008f7e:	e781                	bnez	a5,0x1c008f86
1c008f80:	c81d                	beqz	s0,0x1c008fb6
1c008f82:	02000693          	li	a3,32
1c008f86:	04d10223          	sb	a3,68(sp)
1c008f8a:	85d6                	mv	a1,s5
1c008f8c:	04510c13          	addi	s8,sp,69
1c008f90:	86ea                	mv	a3,s10
1c008f92:	4629                	li	a2,10
1c008f94:	8562                	mv	a0,s8
1c008f96:	bedff0ef          	jal	ra,0x1c008b82
1c008f9a:	4742                	lw	a4,16(sp)
1c008f9c:	9562                	add	a0,a0,s8
1c008f9e:	41650533          	sub	a0,a0,s6
1c008fa2:	ef09                	bnez	a4,0x1c008fbc
1c008fa4:	e019                	bnez	s0,0x1c008faa
1c008fa6:	01fad413          	srli	s0,s5,0x1f
1c008faa:	0bfd2363          	p.beqimm	s10,-1,0x1c009050
1c008fae:	02000713          	li	a4,32
1c008fb2:	c63a                	sw	a4,12(sp)
1c008fb4:	a871                	j	0x1c009050
1c008fb6:	85d6                	mv	a1,s5
1c008fb8:	8c5a                	mv	s8,s6
1c008fba:	bfd9                	j	0x1c008f90
1c008fbc:	4442                	lw	s0,16(sp)
1c008fbe:	b7f5                	j	0x1c008faa
1c008fc0:	0c1d                	addi	s8,s8,7
1c008fc2:	c40c3c33          	p.bclr	s8,s8,2,0
1c008fc6:	000c2883          	lw	a7,0(s8)
1c008fca:	004c2303          	lw	t1,4(s8)
1c008fce:	800007b7          	lui	a5,0x80000
1c008fd2:	0158d593          	srli	a1,a7,0x15
1c008fd6:	00b31693          	slli	a3,t1,0xb
1c008fda:	8ecd                	or	a3,a3,a1
1c008fdc:	fff7c793          	not	a5,a5
1c008fe0:	01435613          	srli	a2,t1,0x14
1c008fe4:	08ae                	slli	a7,a7,0xb
1c008fe6:	8efd                	and	a3,a3,a5
1c008fe8:	e8b63633          	p.bclr	a2,a2,20,11
1c008fec:	d846                	sw	a7,48(sp)
1c008fee:	da36                	sw	a3,52(sp)
1c008ff0:	7ff00593          	li	a1,2047
1c008ff4:	008c0a13          	addi	s4,s8,8
1c008ff8:	08b61d63          	bne	a2,a1,0x1c009092
1c008ffc:	00d0                	addi	a2,sp,68
1c008ffe:	8732                	mv	a4,a2
1c009000:	00035863          	bgez	t1,0x1c009010
1c009004:	02d00713          	li	a4,45
1c009008:	04e10223          	sb	a4,68(sp)
1c00900c:	04510713          	addi	a4,sp,69
1c009010:	00d8e6b3          	or	a3,a7,a3
1c009014:	fbfa8793          	addi	a5,s5,-65
1c009018:	00370513          	addi	a0,a4,3 # 0x80000003
1c00901c:	eaa1                	bnez	a3,0x1c00906c
1c00901e:	46e5                	li	a3,25
1c009020:	02f6ee63          	bltu	a3,a5,0x1c00905c
1c009024:	6795                	lui	a5,0x5
1c009026:	e4978793          	addi	a5,a5,-439 # 0x4e49
1c00902a:	00f71023          	sh	a5,0(a4)
1c00902e:	04600793          	li	a5,70
1c009032:	00f70123          	sb	a5,2(a4)
1c009036:	000701a3          	sb	zero,3(a4)
1c00903a:	8d11                	sub	a0,a0,a2
1c00903c:	47c2                	lw	a5,16(sp)
1c00903e:	46079163          	bnez	a5,0x1c0094a0
1c009042:	e419                	bnez	s0,0x1c009050
1c009044:	04414403          	lbu	s0,68(sp)
1c009048:	fd340413          	addi	s0,s0,-45
1c00904c:	00143413          	seqz	s0,s0
1c009050:	0c800793          	li	a5,200
1c009054:	c6a7cde3          	blt	a5,a0,0x1c008cce
1c009058:	8caa                	mv	s9,a0
1c00905a:	ae0d                	j	0x1c00938c
1c00905c:	679d                	lui	a5,0x7
1c00905e:	e6978793          	addi	a5,a5,-407 # 0x6e69
1c009062:	00f71023          	sh	a5,0(a4)
1c009066:	06600793          	li	a5,102
1c00906a:	b7e1                	j	0x1c009032
1c00906c:	46e5                	li	a3,25
1c00906e:	00f6ea63          	bltu	a3,a5,0x1c009082
1c009072:	6791                	lui	a5,0x4
1c009074:	14e78793          	addi	a5,a5,334 # 0x414e
1c009078:	00f71023          	sh	a5,0(a4)
1c00907c:	04e00793          	li	a5,78
1c009080:	bf4d                	j	0x1c009032
1c009082:	6799                	lui	a5,0x6
1c009084:	16e78793          	addi	a5,a5,366 # 0x616e
1c009088:	00f71023          	sh	a5,0(a4)
1c00908c:	06e00793          	li	a5,110
1c009090:	b74d                	j	0x1c009032
1c009092:	04600593          	li	a1,70
1c009096:	00ba9463          	bne	s5,a1,0x1c00909e
1c00909a:	06600a93          	li	s5,102
1c00909e:	011665b3          	or	a1,a2,a7
1c0090a2:	8dd5                	or	a1,a1,a3
1c0090a4:	c5d9                	beqz	a1,0x1c009132
1c0090a6:	80000737          	lui	a4,0x80000
1c0090aa:	8ed9                	or	a3,a3,a4
1c0090ac:	da36                	sw	a3,52(sp)
1c0090ae:	d846                	sw	a7,48(sp)
1c0090b0:	c0260c13          	addi	s8,a2,-1022
1c0090b4:	02d00693          	li	a3,45
1c0090b8:	00034b63          	bltz	t1,0x1c0090ce
1c0090bc:	47c2                	lw	a5,16(sp)
1c0090be:	02b00693          	li	a3,43
1c0090c2:	e791                	bnez	a5,0x1c0090ce
1c0090c4:	04410b13          	addi	s6,sp,68
1c0090c8:	c419                	beqz	s0,0x1c0090d6
1c0090ca:	02000693          	li	a3,32
1c0090ce:	04d10223          	sb	a3,68(sp)
1c0090d2:	04510b13          	addi	s6,sp,69
1c0090d6:	4b81                	li	s7,0
1c0090d8:	55f9                	li	a1,-2
1c0090da:	06bc4163          	blt	s8,a1,0x1c00913c
1c0090de:	0b804763          	bgtz	s8,0x1c00918c
1c0090e2:	1808                	addi	a0,sp,48
1c0090e4:	0c05                	addi	s8,s8,1
1c0090e6:	af3ff0ef          	jal	ra,0x1c008bd8
1c0090ea:	fe4c3ce3          	p.bneimm	s8,4,0x1c0090e2
1c0090ee:	000d5363          	bgez	s10,0x1c0090f4
1c0090f2:	4d19                	li	s10,6
1c0090f4:	c05ab5b3          	p.bclr	a1,s5,0,5
1c0090f8:	04700513          	li	a0,71
1c0090fc:	0ca59463          	bne	a1,a0,0x1c0091c4
1c009100:	4c01                	li	s8,0
1c009102:	000c9463          	bnez	s9,0x1c00910a
1c009106:	01a03c33          	snez	s8,s10
1c00910a:	55f5                	li	a1,-3
1c00910c:	00bbc663          	blt	s7,a1,0x1c009118
1c009110:	001d0593          	addi	a1,s10,1
1c009114:	0b75dd63          	ble	s7,a1,0x1c0091ce
1c009118:	06700593          	li	a1,103
1c00911c:	14ba8863          	beq	s5,a1,0x1c00926c
1c009120:	04500a93          	li	s5,69
1c009124:	001d0593          	addi	a1,s10,1
1c009128:	4541                	li	a0,16
1c00912a:	d62a                	sw	a0,44(sp)
1c00912c:	04a5cdb3          	p.min	s11,a1,a0
1c009130:	a845                	j	0x1c0091e0
1c009132:	4c01                	li	s8,0
1c009134:	b761                	j	0x1c0090bc
1c009136:	1808                	addi	a0,sp,48
1c009138:	aa1ff0ef          	jal	ra,0x1c008bd8
1c00913c:	5352                	lw	t1,52(sp)
1c00913e:	33333737          	lui	a4,0x33333
1c009142:	33270713          	addi	a4,a4,818 # 0x33333332
1c009146:	58c2                	lw	a7,48(sp)
1c009148:	0c05                	addi	s8,s8,1
1c00914a:	fe6766e3          	bltu	a4,t1,0x1c009136
1c00914e:	4515                	li	a0,5
1c009150:	031535b3          	mulhu	a1,a0,a7
1c009154:	1bfd                	addi	s7,s7,-1
1c009156:	031508b3          	mul	a7,a0,a7
1c00915a:	426505b3          	p.mac	a1,a0,t1
1c00915e:	d846                	sw	a7,48(sp)
1c009160:	4501                	li	a0,0
1c009162:	da2e                	sw	a1,52(sp)
1c009164:	800007b7          	lui	a5,0x80000
1c009168:	fff7c793          	not	a5,a5
1c00916c:	00b7f663          	bleu	a1,a5,0x1c009178
1c009170:	d525                	beqz	a0,0x1c0090d8
1c009172:	d846                	sw	a7,48(sp)
1c009174:	da2e                	sw	a1,52(sp)
1c009176:	b78d                	j	0x1c0090d8
1c009178:	01f8d313          	srli	t1,a7,0x1f
1c00917c:	00159513          	slli	a0,a1,0x1
1c009180:	00a365b3          	or	a1,t1,a0
1c009184:	0886                	slli	a7,a7,0x1
1c009186:	1c7d                	addi	s8,s8,-1
1c009188:	4505                	li	a0,1
1c00918a:	bfe9                	j	0x1c009164
1c00918c:	1808                	addi	a0,sp,48
1c00918e:	a6bff0ef          	jal	ra,0x1c008bf8
1c009192:	58c2                	lw	a7,48(sp)
1c009194:	55d2                	lw	a1,52(sp)
1c009196:	1c7d                	addi	s8,s8,-1
1c009198:	0b85                	addi	s7,s7,1
1c00919a:	4501                	li	a0,0
1c00919c:	80000737          	lui	a4,0x80000
1c0091a0:	fff74713          	not	a4,a4
1c0091a4:	00b77663          	bleu	a1,a4,0x1c0091b0
1c0091a8:	d91d                	beqz	a0,0x1c0090de
1c0091aa:	d846                	sw	a7,48(sp)
1c0091ac:	da2e                	sw	a1,52(sp)
1c0091ae:	bf05                	j	0x1c0090de
1c0091b0:	01f8d313          	srli	t1,a7,0x1f
1c0091b4:	00159513          	slli	a0,a1,0x1
1c0091b8:	00a365b3          	or	a1,t1,a0
1c0091bc:	0886                	slli	a7,a7,0x1
1c0091be:	1c7d                	addi	s8,s8,-1
1c0091c0:	4505                	li	a0,1
1c0091c2:	bfe9                	j	0x1c00919c
1c0091c4:	06600593          	li	a1,102
1c0091c8:	4c01                	li	s8,0
1c0091ca:	f4ba9de3          	bne	s5,a1,0x1c009124
1c0091ce:	01ab85b3          	add	a1,s7,s10
1c0091d2:	06600a93          	li	s5,102
1c0091d6:	f405d9e3          	bgez	a1,0x1c009128
1c0091da:	45c1                	li	a1,16
1c0091dc:	d62e                	sw	a1,44(sp)
1c0091de:	4d81                	li	s11,0
1c0091e0:	4301                	li	t1,0
1c0091e2:	080003b7          	lui	t2,0x8000
1c0091e6:	dc1a                	sw	t1,56(sp)
1c0091e8:	de1e                	sw	t2,60(sp)
1c0091ea:	1dfd                	addi	s11,s11,-1
1c0091ec:	09fdb363          	p.bneimm	s11,-1,0x1c009272
1c0091f0:	55c2                	lw	a1,48(sp)
1c0091f2:	5562                	lw	a0,56(sp)
1c0091f4:	58d2                	lw	a7,52(sp)
1c0091f6:	5372                	lw	t1,60(sp)
1c0091f8:	952e                	add	a0,a0,a1
1c0091fa:	00b535b3          	sltu	a1,a0,a1
1c0091fe:	989a                	add	a7,a7,t1
1c009200:	95c6                	add	a1,a1,a7
1c009202:	da2e                	sw	a1,52(sp)
1c009204:	d82a                	sw	a0,48(sp)
1c009206:	f605b5b3          	p.bclr	a1,a1,27,0
1c00920a:	c981                	beqz	a1,0x1c00921a
1c00920c:	1808                	addi	a0,sp,48
1c00920e:	9ebff0ef          	jal	ra,0x1c008bf8
1c009212:	1808                	addi	a0,sp,48
1c009214:	9c5ff0ef          	jal	ra,0x1c008bd8
1c009218:	0b85                	addi	s7,s7,1
1c00921a:	06600593          	li	a1,102
1c00921e:	001b0d93          	addi	s11,s6,1
1c009222:	08ba9463          	bne	s5,a1,0x1c0092aa
1c009226:	05705d63          	blez	s7,0x1c009280
1c00922a:	017b0db3          	add	s11,s6,s7
1c00922e:	106c                	addi	a1,sp,44
1c009230:	1808                	addi	a0,sp,48
1c009232:	a0bff0ef          	jal	ra,0x1c008c3c
1c009236:	00ab00ab          	p.sb	a0,1(s6!)
1c00923a:	ffbb1ae3          	bne	s6,s11,0x1c00922e
1c00923e:	4b81                	li	s7,0
1c009240:	000c9463          	bnez	s9,0x1c009248
1c009244:	020d0163          	beqz	s10,0x1c009266
1c009248:	001d8b13          	addi	s6,s11,1
1c00924c:	02e00613          	li	a2,46
1c009250:	00cd8023          	sb	a2,0(s11)
1c009254:	8cea                	mv	s9,s10
1c009256:	8dda                	mv	s11,s6
1c009258:	03000893          	li	a7,48
1c00925c:	1cfd                	addi	s9,s9,-1
1c00925e:	03fcb663          	p.bneimm	s9,-1,0x1c00928a
1c009262:	01ab0db3          	add	s11,s6,s10
1c009266:	060c1c63          	bnez	s8,0x1c0092de
1c00926a:	a8c1                	j	0x1c00933a
1c00926c:	06500a93          	li	s5,101
1c009270:	bd55                	j	0x1c009124
1c009272:	1828                	addi	a0,sp,56
1c009274:	985ff0ef          	jal	ra,0x1c008bf8
1c009278:	1828                	addi	a0,sp,56
1c00927a:	95fff0ef          	jal	ra,0x1c008bd8
1c00927e:	b7b5                	j	0x1c0091ea
1c009280:	03000593          	li	a1,48
1c009284:	00bb0023          	sb	a1,0(s6)
1c009288:	bf65                	j	0x1c009240
1c00928a:	0d85                	addi	s11,s11,1
1c00928c:	000b8663          	beqz	s7,0x1c009298
1c009290:	ff1d8fa3          	sb	a7,-1(s11)
1c009294:	0b85                	addi	s7,s7,1
1c009296:	b7d9                	j	0x1c00925c
1c009298:	106c                	addi	a1,sp,44
1c00929a:	1808                	addi	a0,sp,48
1c00929c:	c446                	sw	a7,8(sp)
1c00929e:	99fff0ef          	jal	ra,0x1c008c3c
1c0092a2:	fead8fa3          	sb	a0,-1(s11)
1c0092a6:	48a2                	lw	a7,8(sp)
1c0092a8:	bf55                	j	0x1c00925c
1c0092aa:	106c                	addi	a1,sp,44
1c0092ac:	1808                	addi	a0,sp,48
1c0092ae:	98fff0ef          	jal	ra,0x1c008c3c
1c0092b2:	00ab0023          	sb	a0,0(s6)
1c0092b6:	03000593          	li	a1,48
1c0092ba:	00b50363          	beq	a0,a1,0x1c0092c0
1c0092be:	1bfd                	addi	s7,s7,-1
1c0092c0:	000c9463          	bnez	s9,0x1c0092c8
1c0092c4:	000d0b63          	beqz	s10,0x1c0092da
1c0092c8:	002b0d93          	addi	s11,s6,2
1c0092cc:	02e00593          	li	a1,46
1c0092d0:	00bb00a3          	sb	a1,1(s6)
1c0092d4:	9d6e                	add	s10,s10,s11
1c0092d6:	07bd1863          	bne	s10,s11,0x1c009346
1c0092da:	000c0f63          	beqz	s8,0x1c0092f8
1c0092de:	03000593          	li	a1,48
1c0092e2:	fffd8713          	addi	a4,s11,-1
1c0092e6:	00074603          	lbu	a2,0(a4) # 0x80000000
1c0092ea:	06b60563          	beq	a2,a1,0x1c009354
1c0092ee:	02e00593          	li	a1,46
1c0092f2:	00b61363          	bne	a2,a1,0x1c0092f8
1c0092f6:	8dba                	mv	s11,a4
1c0092f8:	c05ab733          	p.bclr	a4,s5,0,5
1c0092fc:	04500613          	li	a2,69
1c009300:	02c71d63          	bne	a4,a2,0x1c00933a
1c009304:	87d6                	mv	a5,s5
1c009306:	00fd8023          	sb	a5,0(s11)
1c00930a:	02b00793          	li	a5,43
1c00930e:	000bd663          	bgez	s7,0x1c00931a
1c009312:	41700bb3          	neg	s7,s7
1c009316:	02d00793          	li	a5,45
1c00931a:	00fd80a3          	sb	a5,1(s11)
1c00931e:	47a9                	li	a5,10
1c009320:	02fbc733          	div	a4,s7,a5
1c009324:	0d91                	addi	s11,s11,4
1c009326:	02fbe6b3          	rem	a3,s7,a5
1c00932a:	03070713          	addi	a4,a4,48
1c00932e:	feed8f23          	sb	a4,-2(s11)
1c009332:	03068693          	addi	a3,a3,48
1c009336:	fedd8fa3          	sb	a3,-1(s11)
1c00933a:	00c8                	addi	a0,sp,68
1c00933c:	000d8023          	sb	zero,0(s11)
1c009340:	40ad8533          	sub	a0,s11,a0
1c009344:	b9e5                	j	0x1c00903c
1c009346:	106c                	addi	a1,sp,44
1c009348:	1808                	addi	a0,sp,48
1c00934a:	8f3ff0ef          	jal	ra,0x1c008c3c
1c00934e:	00ad80ab          	p.sb	a0,1(s11!)
1c009352:	b751                	j	0x1c0092d6
1c009354:	8dba                	mv	s11,a4
1c009356:	b771                	j	0x1c0092e2
1c009358:	000c2783          	lw	a5,0(s8)
1c00935c:	004c0a13          	addi	s4,s8,4
1c009360:	0127a023          	sw	s2,0(a5) # 0x80000000
1c009364:	b275                	j	0x1c008d10
1c009366:	004c0a13          	addi	s4,s8,4
1c00936a:	000c2583          	lw	a1,0(s8)
1c00936e:	00dc                	addi	a5,sp,68
1c009370:	040c8263          	beqz	s9,0x1c0093b4
1c009374:	03000693          	li	a3,48
1c009378:	04d10223          	sb	a3,68(sp)
1c00937c:	04510513          	addi	a0,sp,69
1c009380:	e99d                	bnez	a1,0x1c0093b6
1c009382:	040102a3          	sb	zero,69(sp)
1c009386:	4401                	li	s0,0
1c009388:	0dfd3063          	p.bneimm	s10,-1,0x1c009448
1c00938c:	04410b93          	addi	s7,sp,68
1c009390:	0d3cc063          	blt	s9,s3,0x1c009450
1c009394:	89e6                	mv	s3,s9
1c009396:	41790433          	sub	s0,s2,s7
1c00939a:	01740933          	add	s2,s0,s7
1c00939e:	960989e3          	beqz	s3,0x1c008d10
1c0093a2:	45f2                	lw	a1,28(sp)
1c0093a4:	001bc50b          	p.lbu	a0,1(s7!)
1c0093a8:	47e2                	lw	a5,24(sp)
1c0093aa:	9782                	jalr	a5
1c0093ac:	93f521e3          	p.beqimm	a0,-1,0x1c008cce
1c0093b0:	19fd                	addi	s3,s3,-1
1c0093b2:	b7e5                	j	0x1c00939a
1c0093b4:	853e                	mv	a0,a5
1c0093b6:	86ea                	mv	a3,s10
1c0093b8:	4621                	li	a2,8
1c0093ba:	40f50433          	sub	s0,a0,a5
1c0093be:	fc4ff0ef          	jal	ra,0x1c008b82
1c0093c2:	9522                	add	a0,a0,s0
1c0093c4:	4401                	li	s0,0
1c0093c6:	c9fd25e3          	p.beqimm	s10,-1,0x1c009050
1c0093ca:	02000793          	li	a5,32
1c0093ce:	c63e                	sw	a5,12(sp)
1c0093d0:	b141                	j	0x1c009050
1c0093d2:	000c2583          	lw	a1,0(s8)
1c0093d6:	77e1                	lui	a5,0xffff8
1c0093d8:	8307c793          	xori	a5,a5,-2000
1c0093dc:	46a1                	li	a3,8
1c0093de:	4641                	li	a2,16
1c0093e0:	04610513          	addi	a0,sp,70
1c0093e4:	04f11223          	sh	a5,68(sp)
1c0093e8:	f9aff0ef          	jal	ra,0x1c008b82
1c0093ec:	004c0a13          	addi	s4,s8,4
1c0093f0:	0509                	addi	a0,a0,2
1c0093f2:	4401                	li	s0,0
1c0093f4:	be5d                	j	0x1c008faa
1c0093f6:	000d4463          	bltz	s10,0x1c0093fe
1c0093fa:	05acccb3          	p.min	s9,s9,s10
1c0093fe:	900c89e3          	beqz	s9,0x1c008d10
1c009402:	8666                	mv	a2,s9
1c009404:	00c8                	addi	a0,sp,68
1c009406:	bfeff0ef          	jal	ra,0x1c008804
1c00940a:	b6ad                	j	0x1c008f74
1c00940c:	000c2583          	lw	a1,0(s8)
1c009410:	86ea                	mv	a3,s10
1c009412:	4629                	li	a2,10
1c009414:	00c8                	addi	a0,sp,68
1c009416:	004c0a13          	addi	s4,s8,4
1c00941a:	f68ff0ef          	jal	ra,0x1c008b82
1c00941e:	b75d                	j	0x1c0093c4
1c009420:	f9f78613          	addi	a2,a5,-97 # 0xffff7f9f
1c009424:	0ff67613          	andi	a2,a2,255
1c009428:	aac5e1e3          	bltu	a1,a2,0x1c008eca
1c00942c:	1781                	addi	a5,a5,-32
1c00942e:	fef68fa3          	sb	a5,-1(a3)
1c009432:	bc61                	j	0x1c008eca
1c009434:	45f2                	lw	a1,28(sp)
1c009436:	4762                	lw	a4,24(sp)
1c009438:	02500513          	li	a0,37
1c00943c:	9702                	jalr	a4
1c00943e:	89f528e3          	p.beqimm	a0,-1,0x1c008cce
1c009442:	0905                	addi	s2,s2,1
1c009444:	8a62                	mv	s4,s8
1c009446:	b0e9                	j	0x1c008d10
1c009448:	02000793          	li	a5,32
1c00944c:	c63e                	sw	a5,12(sp)
1c00944e:	bf3d                	j	0x1c00938c
1c009450:	4752                	lw	a4,20(sp)
1c009452:	cf01                	beqz	a4,0x1c00946a
1c009454:	019b8833          	add	a6,s7,s9
1c009458:	02000713          	li	a4,32
1c00945c:	417807b3          	sub	a5,a6,s7
1c009460:	f337dbe3          	ble	s3,a5,0x1c009396
1c009464:	00e800ab          	p.sb	a4,1(a6!)
1c009468:	bfd5                	j	0x1c00945c
1c00946a:	41998c33          	sub	s8,s3,s9
1c00946e:	001c8613          	addi	a2,s9,1
1c009472:	85de                	mv	a1,s7
1c009474:	018b8533          	add	a0,s7,s8
1c009478:	bc2ff0ef          	jal	ra,0x1c00883a
1c00947c:	4732                	lw	a4,12(sp)
1c00947e:	02000793          	li	a5,32
1c009482:	00f70363          	beq	a4,a5,0x1c009488
1c009486:	ca22                	sw	s0,20(sp)
1c009488:	47d2                	lw	a5,20(sp)
1c00948a:	9c3e                	add	s8,s8,a5
1c00948c:	00fb8ab3          	add	s5,s7,a5
1c009490:	417a87b3          	sub	a5,s5,s7
1c009494:	f187d1e3          	ble	s8,a5,0x1c009396
1c009498:	4732                	lw	a4,12(sp)
1c00949a:	00ea80ab          	p.sb	a4,1(s5!)
1c00949e:	bfcd                	j	0x1c009490
1c0094a0:	4442                	lw	s0,16(sp)
1c0094a2:	b67d                	j	0x1c009050
1c0094a4:	300476f3          	csrrci	a3,mstatus,8
1c0094a8:	4785                	li	a5,1
1c0094aa:	08f50423          	sb	a5,136(a0)
1c0094ae:	08954783          	lbu	a5,137(a0)
1c0094b2:	00201737          	lui	a4,0x201
1c0094b6:	e0470713          	addi	a4,a4,-508 # 0x200e04
1c0094ba:	04078793          	addi	a5,a5,64
1c0094be:	07da                	slli	a5,a5,0x16
1c0094c0:	0007e723          	p.sw	zero,a4(a5)
1c0094c4:	30069073          	csrw	mstatus,a3
1c0094c8:	8082                	ret
1c0094ca:	1c00b737          	lui	a4,0x1c00b
1c0094ce:	82472703          	lw	a4,-2012(a4) # 0x1c00a824
1c0094d2:	00155793          	srli	a5,a0,0x1
1c0094d6:	97ba                	add	a5,a5,a4
1c0094d8:	02a7d7b3          	divu	a5,a5,a0
1c0094dc:	1a102737          	lui	a4,0x1a102
1c0094e0:	17fd                	addi	a5,a5,-1
1c0094e2:	07c2                	slli	a5,a5,0x10
1c0094e4:	3067e793          	ori	a5,a5,774
1c0094e8:	22f72223          	sw	a5,548(a4) # 0x1a102224
1c0094ec:	8082                	ret
1c0094ee:	1c00a7b7          	lui	a5,0x1c00a
1c0094f2:	7ac78793          	addi	a5,a5,1964 # 0x1c00a7ac
1c0094f6:	4398                	lw	a4,0(a5)
1c0094f8:	cb11                	beqz	a4,0x1c00950c
1c0094fa:	4788                	lw	a0,8(a5)
1c0094fc:	1141                	addi	sp,sp,-16
1c0094fe:	c606                	sw	ra,12(sp)
1c009500:	fcbff0ef          	jal	ra,0x1c0094ca
1c009504:	40b2                	lw	ra,12(sp)
1c009506:	4501                	li	a0,0
1c009508:	0141                	addi	sp,sp,16
1c00950a:	8082                	ret
1c00950c:	4501                	li	a0,0
1c00950e:	8082                	ret
1c009510:	1a102737          	lui	a4,0x1a102
1c009514:	1141                	addi	sp,sp,-16
1c009516:	21870713          	addi	a4,a4,536 # 0x1a102218
1c00951a:	002046b7          	lui	a3,0x204
1c00951e:	431c                	lw	a5,0(a4)
1c009520:	8bc1                	andi	a5,a5,16
1c009522:	e38d                	bnez	a5,0x1c009544
1c009524:	1a102737          	lui	a4,0x1a102
1c009528:	22070713          	addi	a4,a4,544 # 0x1a102220
1c00952c:	431c                	lw	a5,0(a4)
1c00952e:	fc17b7b3          	p.bclr	a5,a5,30,1
1c009532:	ffed                	bnez	a5,0x1c00952c
1c009534:	c602                	sw	zero,12(sp)
1c009536:	7cf00713          	li	a4,1999
1c00953a:	47b2                	lw	a5,12(sp)
1c00953c:	00f75763          	ble	a5,a4,0x1c00954a
1c009540:	0141                	addi	sp,sp,16
1c009542:	8082                	ret
1c009544:	0386e783          	p.elw	a5,56(a3) # 0x204038
1c009548:	bfd9                	j	0x1c00951e
1c00954a:	47b2                	lw	a5,12(sp)
1c00954c:	0785                	addi	a5,a5,1
1c00954e:	c63e                	sw	a5,12(sp)
1c009550:	b7ed                	j	0x1c00953a
1c009552:	1c00a7b7          	lui	a5,0x1c00a
1c009556:	7ac7a783          	lw	a5,1964(a5) # 0x1c00a7ac
1c00955a:	c385                	beqz	a5,0x1c00957a
1c00955c:	1141                	addi	sp,sp,-16
1c00955e:	c606                	sw	ra,12(sp)
1c009560:	fb1ff0ef          	jal	ra,0x1c009510
1c009564:	40b2                	lw	ra,12(sp)
1c009566:	005007b7          	lui	a5,0x500
1c00956a:	1a102737          	lui	a4,0x1a102
1c00956e:	0799                	addi	a5,a5,6
1c009570:	22f72223          	sw	a5,548(a4) # 0x1a102224
1c009574:	4501                	li	a0,0
1c009576:	0141                	addi	sp,sp,16
1c009578:	8082                	ret
1c00957a:	4501                	li	a0,0
1c00957c:	8082                	ret
1c00957e:	1141                	addi	sp,sp,-16
1c009580:	c606                	sw	ra,12(sp)
1c009582:	c422                	sw	s0,8(sp)
1c009584:	30047473          	csrrci	s0,mstatus,8
1c009588:	1c0097b7          	lui	a5,0x1c009
1c00958c:	4a478793          	addi	a5,a5,1188 # 0x1c0094a4
1c009590:	c55c                	sw	a5,12(a0)
1c009592:	4785                	li	a5,1
1c009594:	d55c                	sw	a5,44(a0)
1c009596:	411c                	lw	a5,0(a0)
1c009598:	02052823          	sw	zero,48(a0)
1c00959c:	c908                	sw	a0,16(a0)
1c00959e:	43cc                	lw	a1,4(a5)
1c0095a0:	4514                	lw	a3,8(a0)
1c0095a2:	4150                	lw	a2,4(a0)
1c0095a4:	0586                	slli	a1,a1,0x1
1c0095a6:	00c50793          	addi	a5,a0,12
1c0095aa:	4701                	li	a4,0
1c0095ac:	0585                	addi	a1,a1,1
1c0095ae:	4501                	li	a0,0
1c0095b0:	f84fd0ef          	jal	ra,0x1c006d34
1c0095b4:	30041073          	csrw	mstatus,s0
1c0095b8:	40b2                	lw	ra,12(sp)
1c0095ba:	4422                	lw	s0,8(sp)
1c0095bc:	0141                	addi	sp,sp,16
1c0095be:	8082                	ret
1c0095c0:	47fd                	li	a5,31
1c0095c2:	4721                	li	a4,8
1c0095c4:	00a7d463          	ble	a0,a5,0x1c0095cc
1c0095c8:	1501                	addi	a0,a0,-32
1c0095ca:	4711                	li	a4,4
1c0095cc:	1a1066b7          	lui	a3,0x1a106
1c0095d0:	20e6f603          	p.lw	a2,a4(a3)
1c0095d4:	4785                	li	a5,1
1c0095d6:	00a79533          	sll	a0,a5,a0
1c0095da:	fff54513          	not	a0,a0
1c0095de:	8d71                	and	a0,a0,a2
1c0095e0:	00a6e723          	p.sw	a0,a4(a3)
1c0095e4:	8082                	ret
1c0095e6:	000997b7          	lui	a5,0x99
1c0095ea:	96878793          	addi	a5,a5,-1688 # 0x98968
1c0095ee:	c11c                	sw	a5,0(a0)
1c0095f0:	57fd                	li	a5,-1
1c0095f2:	c15c                	sw	a5,4(a0)
1c0095f4:	8082                	ret
1c0095f6:	1141                	addi	sp,sp,-16
1c0095f8:	c606                	sw	ra,12(sp)
1c0095fa:	c422                	sw	s0,8(sp)
1c0095fc:	c226                	sw	s1,4(sp)
1c0095fe:	c04a                	sw	s2,0(sp)
1c009600:	30047973          	csrrci	s2,mstatus,8
1c009604:	cd8d                	beqz	a1,0x1c00963e
1c009606:	4198                	lw	a4,0(a1)
1c009608:	1c00a6b7          	lui	a3,0x1c00a
1c00960c:	ffc50793          	addi	a5,a0,-4
1c009610:	7ac68413          	addi	s0,a3,1964 # 0x1c00a7ac
1c009614:	0792                	slli	a5,a5,0x4
1c009616:	943e                	add	s0,s0,a5
1c009618:	4010                	lw	a2,0(s0)
1c00961a:	7ac68693          	addi	a3,a3,1964
1c00961e:	c60d                	beqz	a2,0x1c009648
1c009620:	c589                	beqz	a1,0x1c00962a
1c009622:	418c                	lw	a1,0(a1)
1c009624:	4418                	lw	a4,8(s0)
1c009626:	04e59d63          	bne	a1,a4,0x1c009680
1c00962a:	0605                	addi	a2,a2,1
1c00962c:	00c6e7a3          	p.sw	a2,a5(a3)
1c009630:	8522                	mv	a0,s0
1c009632:	40b2                	lw	ra,12(sp)
1c009634:	4422                	lw	s0,8(sp)
1c009636:	4492                	lw	s1,4(sp)
1c009638:	4902                	lw	s2,0(sp)
1c00963a:	0141                	addi	sp,sp,16
1c00963c:	8082                	ret
1c00963e:	00099737          	lui	a4,0x99
1c009642:	96870713          	addi	a4,a4,-1688 # 0x98968
1c009646:	b7c9                	j	0x1c009608
1c009648:	c418                	sw	a4,8(s0)
1c00964a:	4785                	li	a5,1
1c00964c:	1a102737          	lui	a4,0x1a102
1c009650:	78070713          	addi	a4,a4,1920 # 0x1a102780
1c009654:	c01c                	sw	a5,0(s0)
1c009656:	c048                	sw	a0,4(s0)
1c009658:	4314                	lw	a3,0(a4)
1c00965a:	00a797b3          	sll	a5,a5,a0
1c00965e:	00151493          	slli	s1,a0,0x1
1c009662:	8fd5                	or	a5,a5,a3
1c009664:	c31c                	sw	a5,0(a4)
1c009666:	8526                	mv	a0,s1
1c009668:	f59ff0ef          	jal	ra,0x1c0095c0
1c00966c:	00148513          	addi	a0,s1,1
1c009670:	f51ff0ef          	jal	ra,0x1c0095c0
1c009674:	4408                	lw	a0,8(s0)
1c009676:	e55ff0ef          	jal	ra,0x1c0094ca
1c00967a:	30091073          	csrw	mstatus,s2
1c00967e:	bf4d                	j	0x1c009630
1c009680:	4401                	li	s0,0
1c009682:	b77d                	j	0x1c009630
1c009684:	1141                	addi	sp,sp,-16
1c009686:	c606                	sw	ra,12(sp)
1c009688:	c422                	sw	s0,8(sp)
1c00968a:	c226                	sw	s1,4(sp)
1c00968c:	300474f3          	csrrci	s1,mstatus,8
1c009690:	411c                	lw	a5,0(a0)
1c009692:	17fd                	addi	a5,a5,-1
1c009694:	c11c                	sw	a5,0(a0)
1c009696:	e79d                	bnez	a5,0x1c0096c4
1c009698:	842a                	mv	s0,a0
1c00969a:	e77ff0ef          	jal	ra,0x1c009510
1c00969e:	1a102737          	lui	a4,0x1a102
1c0096a2:	005007b7          	lui	a5,0x500
1c0096a6:	22470693          	addi	a3,a4,548 # 0x1a102224
1c0096aa:	0799                	addi	a5,a5,6
1c0096ac:	c29c                	sw	a5,0(a3)
1c0096ae:	4050                	lw	a2,4(s0)
1c0096b0:	78070713          	addi	a4,a4,1920
1c0096b4:	4314                	lw	a3,0(a4)
1c0096b6:	4785                	li	a5,1
1c0096b8:	00c797b3          	sll	a5,a5,a2
1c0096bc:	fff7c793          	not	a5,a5
1c0096c0:	8ff5                	and	a5,a5,a3
1c0096c2:	c31c                	sw	a5,0(a4)
1c0096c4:	30049073          	csrw	mstatus,s1
1c0096c8:	40b2                	lw	ra,12(sp)
1c0096ca:	4422                	lw	s0,8(sp)
1c0096cc:	4492                	lw	s1,4(sp)
1c0096ce:	0141                	addi	sp,sp,16
1c0096d0:	8082                	ret
1c0096d2:	014027f3          	csrr	a5,uhartid
1c0096d6:	8795                	srai	a5,a5,0x5
1c0096d8:	f267b7b3          	p.bclr	a5,a5,25,6
1c0096dc:	08f684a3          	sb	a5,137(a3)
1c0096e0:	1c0097b7          	lui	a5,0x1c009
1c0096e4:	57e78793          	addi	a5,a5,1406 # 0x1c00957e
1c0096e8:	c6dc                	sw	a5,12(a3)
1c0096ea:	4785                	li	a5,1
1c0096ec:	c288                	sw	a0,0(a3)
1c0096ee:	c2cc                	sw	a1,4(a3)
1c0096f0:	c690                	sw	a2,8(a3)
1c0096f2:	08068423          	sb	zero,136(a3)
1c0096f6:	0206a823          	sw	zero,48(a3)
1c0096fa:	ca94                	sw	a3,16(a3)
1c0096fc:	d6dc                	sw	a5,44(a3)
1c0096fe:	00c68513          	addi	a0,a3,12
1c009702:	8cafe06f          	j	0x1c0077cc
1c009706:	1c0095b7          	lui	a1,0x1c009
1c00970a:	1141                	addi	sp,sp,-16
1c00970c:	4601                	li	a2,0
1c00970e:	55258593          	addi	a1,a1,1362 # 0x1c009552
1c009712:	4511                	li	a0,4
1c009714:	c606                	sw	ra,12(sp)
1c009716:	c422                	sw	s0,8(sp)
1c009718:	bd7fc0ef          	jal	ra,0x1c0062ee
1c00971c:	1c0095b7          	lui	a1,0x1c009
1c009720:	842a                	mv	s0,a0
1c009722:	4601                	li	a2,0
1c009724:	4ee58593          	addi	a1,a1,1262 # 0x1c0094ee
1c009728:	4515                	li	a0,5
1c00972a:	bc5fc0ef          	jal	ra,0x1c0062ee
1c00972e:	1c00a7b7          	lui	a5,0x1c00a
1c009732:	7a07a623          	sw	zero,1964(a5) # 0x1c00a7ac
1c009736:	8d41                	or	a0,a0,s0
1c009738:	c10d                	beqz	a0,0x1c00975a
1c00973a:	01402673          	csrr	a2,uhartid
1c00973e:	1c00a537          	lui	a0,0x1c00a
1c009742:	40565593          	srai	a1,a2,0x5
1c009746:	f265b5b3          	p.bclr	a1,a1,25,6
1c00974a:	f4563633          	p.bclr	a2,a2,26,5
1c00974e:	01850513          	addi	a0,a0,24 # 0x1c00a018
1c009752:	c04ff0ef          	jal	ra,0x1c008b56
1c009756:	b84ff0ef          	jal	ra,0x1c008ada
1c00975a:	40b2                	lw	ra,12(sp)
1c00975c:	4422                	lw	s0,8(sp)
1c00975e:	0141                	addi	sp,sp,16
1c009760:	8082                	ret
1c009762:	0000                	unimp
1c009764:	f1402573          	csrr	a0,mhartid
1c009768:	01f57593          	andi	a1,a0,31
1c00976c:	8115                	srli	a0,a0,0x5
1c00976e:	000702b7          	lui	t0,0x70
1c009772:	00204337          	lui	t1,0x204
1c009776:	00532023          	sw	t0,0(t1) # 0x204000
1c00977a:	00002a23          	sw	zero,20(zero) # 0x14
1c00977e:	10059063          	bnez	a1,0x1c00987e
1c009782:	20000293          	li	t0,512
1c009786:	00204337          	lui	t1,0x204
1c00978a:	00532a23          	sw	t0,20(t1) # 0x204014
1c00978e:	e3ff7417          	auipc	s0,0xe3ff7
1c009792:	87640413          	addi	s0,s0,-1930 # 0x4
1c009796:	002049b7          	lui	s3,0x204
1c00979a:	4a09                	li	s4,2
1c00979c:	00000a97          	auipc	s5,0x0
1c0097a0:	038a8a93          	addi	s5,s5,56 # 0x1c0097d4
1c0097a4:	00001b97          	auipc	s7,0x1
1c0097a8:	090b8b93          	addi	s7,s7,144 # 0x1c00a834
1c0097ac:	02800393          	li	t2,40
1c0097b0:	02a383b3          	mul	t2,t2,a0
1c0097b4:	9b9e                	add	s7,s7,t2
1c0097b6:	0b91                	addi	s7,s7,4
1c0097b8:	1b201cb7          	lui	s9,0x1b201
1c0097bc:	e04c8c93          	addi	s9,s9,-508 # 0x1b200e04
1c0097c0:	4c05                	li	s8,1
1c0097c2:	00000d17          	auipc	s10,0x0
1c0097c6:	0fad0d13          	addi	s10,s10,250 # 0x1c0098bc
1c0097ca:	001d6d13          	ori	s10,s10,1
1c0097ce:	30045073          	csrwi	mstatus,8
1c0097d2:	a819                	j	0x1c0097e8
1c0097d4:	000b0a63          	beqz	s6,0x1c0097e8
1c0097d8:	000ba283          	lw	t0,0(s7)
1c0097dc:	08029a63          	bnez	t0,0x1c009870
1c0097e0:	016ba023          	sw	s6,0(s7)
1c0097e4:	018ca023          	sw	s8,0(s9)
1c0097e8:	00042e03          	lw	t3,0(s0)
1c0097ec:	060e0b63          	beqz	t3,0x1c009862
1c0097f0:	020e2e83          	lw	t4,32(t3)
1c0097f4:	020e2223          	sw	zero,36(t3)
1c0097f8:	01d42023          	sw	t4,0(s0)
1c0097fc:	020e2f03          	lw	t5,32(t3)
1c009800:	ffee98e3          	bne	t4,t5,0x1c0097f0
1c009804:	7d005073          	csrwi	0x7d0,0
1c009808:	004e2503          	lw	a0,4(t3)
1c00980c:	000e2283          	lw	t0,0(t3)
1c009810:	008e2103          	lw	sp,8(t3)
1c009814:	00ce2303          	lw	t1,12(t3)
1c009818:	010e2383          	lw	t2,16(t3)
1c00981c:	028e2f03          	lw	t5,40(t3)
1c009820:	018e2b03          	lw	s6,24(t3)
1c009824:	014e2f83          	lw	t6,20(t3)
1c009828:	80d6                	mv	ra,s5
1c00982a:	911a                	add	sp,sp,t1
1c00982c:	01f02c23          	sw	t6,24(zero) # 0x18
1c009830:	00030a63          	beqz	t1,0x1c009844
1c009834:	40610eb3          	sub	t4,sp,t1
1c009838:	7d1e9073          	csrw	0x7d1,t4
1c00983c:	7d211073          	csrw	0x7d2,sp
1c009840:	7d00d073          	csrwi	0x7d0,1
1c009844:	09e9a223          	sw	t5,132(s3) # 0x204084
1c009848:	21e9a023          	sw	t5,512(s3)
1c00984c:	21e9a623          	sw	t5,524(s3)
1c009850:	000f2863          	p.beqimm	t5,0,0x1c009860
1c009854:	09a9a023          	sw	s10,128(s3)
1c009858:	0879a023          	sw	t2,128(s3)
1c00985c:	0829a023          	sw	sp,128(s3)
1c009860:	8282                	jr	t0
1c009862:	0149a423          	sw	s4,8(s3)
1c009866:	03c9e003          	p.elw	zero,60(s3)
1c00986a:	0149a223          	sw	s4,4(s3)
1c00986e:	bfad                	j	0x1c0097e8
1c009870:	0149a423          	sw	s4,8(s3)
1c009874:	03c9e003          	p.elw	zero,60(s3)
1c009878:	0149a223          	sw	s4,4(s3)
1c00987c:	bfb1                	j	0x1c0097d8
1c00987e:	00204937          	lui	s2,0x204
1c009882:	f14029f3          	csrr	s3,mhartid
1c009886:	01f9f993          	andi	s3,s3,31
1c00988a:	00000a17          	auipc	s4,0x0
1c00988e:	012a0a13          	addi	s4,s4,18 # 0x1c00989c
1c009892:	00000a97          	auipc	s5,0x0
1c009896:	00ea8a93          	addi	s5,s5,14 # 0x1c0098a0
1c00989a:	a019                	j	0x1c0098a0
1c00989c:	21c96283          	p.elw	t0,540(s2) # 0x20421c
1c0098a0:	08096283          	p.elw	t0,128(s2)
1c0098a4:	08096503          	p.elw	a0,128(s2)
1c0098a8:	0012f313          	andi	t1,t0,1
1c0098ac:	00031563          	bnez	t1,0x1c0098b6
1c0098b0:	000a00b3          	add	ra,s4,zero
1c0098b4:	8282                	jr	t0
1c0098b6:	000a80b3          	add	ra,s5,zero
1c0098ba:	8282                	jr	t0
1c0098bc:	7d005073          	csrwi	0x7d0,0
1c0098c0:	08096283          	p.elw	t0,128(s2)
1c0098c4:	02a98eb3          	mul	t4,s3,a0
1c0098c8:	005e8133          	add	sp,t4,t0
1c0098cc:	c909                	beqz	a0,0x1c0098de
1c0098ce:	40a10eb3          	sub	t4,sp,a0
1c0098d2:	7d1e9073          	csrw	0x7d1,t4
1c0098d6:	7d211073          	csrw	0x7d2,sp
1c0098da:	7d00d073          	csrwi	0x7d0,1
1c0098de:	8082                	ret
1c0098e0:	fe812e23          	sw	s0,-4(sp)
1c0098e4:	fe912c23          	sw	s1,-8(sp)
1c0098e8:	fea12a23          	sw	a0,-12(sp)
1c0098ec:	feb12823          	sw	a1,-16(sp)
1c0098f0:	fec12623          	sw	a2,-20(sp)
1c0098f4:	00204637          	lui	a2,0x204
1c0098f8:	40060613          	addi	a2,a2,1024 # 0x204400
1c0098fc:	01402403          	lw	s0,20(zero) # 0x14
1c009900:	400c                	lw	a1,0(s0)
1c009902:	4408                	lw	a0,8(s0)
1c009904:	80b045b3          	p.bsetr	a1,zero,a1
1c009908:	c24c                	sw	a1,4(a2)
1c00990a:	480c                	lw	a1,16(s0)
1c00990c:	c131                	beqz	a0,0x1c009950
1c00990e:	4044                	lw	s1,4(s0)
1c009910:	00a5c363          	blt	a1,a0,0x1c009916
1c009914:	85aa                	mv	a1,a0
1c009916:	4208                	lw	a0,0(a2)
1c009918:	c008                	sw	a0,0(s0)
1c00991a:	4408                	lw	a0,8(s0)
1c00991c:	de05a4b3          	p.insert	s1,a1,15,0
1c009920:	c204                	sw	s1,0(a2)
1c009922:	8d0d                	sub	a0,a0,a1
1c009924:	c408                	sw	a0,8(s0)
1c009926:	4848                	lw	a0,20(s0)
1c009928:	c208                	sw	a0,0(a2)
1c00992a:	952e                	add	a0,a0,a1
1c00992c:	c848                	sw	a0,20(s0)
1c00992e:	4c08                	lw	a0,24(s0)
1c009930:	444c                	lw	a1,12(s0)
1c009932:	c208                	sw	a0,0(a2)
1c009934:	952e                	add	a0,a0,a1
1c009936:	cc08                	sw	a0,24(s0)
1c009938:	ffc12403          	lw	s0,-4(sp)
1c00993c:	ff812483          	lw	s1,-8(sp)
1c009940:	ff412503          	lw	a0,-12(sp)
1c009944:	ff012583          	lw	a1,-16(sp)
1c009948:	fec12603          	lw	a2,-20(sp)
1c00994c:	30200073          	mret
1c009950:	00042c23          	sw	zero,24(s0)
1c009954:	4c44                	lw	s1,28(s0)
1c009956:	00902a23          	sw	s1,20(zero) # 0x14
1c00995a:	00204437          	lui	s0,0x204
1c00995e:	11440413          	addi	s0,s0,276 # 0x204114
1c009962:	00042023          	sw	zero,0(s0)
1c009966:	d8e9                	beqz	s1,0x1c009938
1c009968:	8426                	mv	s0,s1
1c00996a:	4408                	lw	a0,8(s0)
1c00996c:	480c                	lw	a1,16(s0)
1c00996e:	b745                	j	0x1c00990e

Disassembly of section .init_array:

1c009970 <.init_array>:
1c009970:	0010                	addi	a2,sp,0
1c009972:	0000                	unimp
1c009974:	ffff                	0xffff
1c009976:	ffff                	0xffff
1c009978:	669a                	flw	fa3,132(sp)
1c00997a:	1c00                	addi	s0,sp,560
1c00997c:	6bca                	flw	fs7,144(sp)
1c00997e:	1c00                	addi	s0,sp,560
1c009980:	6ebe                	flw	ft9,204(sp)
1c009982:	1c00                	addi	s0,sp,560
1c009984:	7834                	flw	fa3,112(s0)
1c009986:	1c00                	addi	s0,sp,560
1c009988:	7870                	flw	fa2,116(s0)
1c00998a:	1c00                	addi	s0,sp,560
1c00998c:	81f4                	0x81f4
1c00998e:	1c00                	addi	s0,sp,560
1c009990:	8342                	mv	t1,a6
1c009992:	1c00                	addi	s0,sp,560
1c009994:	8396                	mv	t2,t0
1c009996:	1c00                	addi	s0,sp,560
1c009998:	83a0                	0x83a0
1c00999a:	1c00                	addi	s0,sp,560
1c00999c:	83b2                	mv	t2,a2
1c00999e:	1c00                	addi	s0,sp,560
1c0099a0:	83c4                	0x83c4
1c0099a2:	1c00                	addi	s0,sp,560
1c0099a4:	83f0                	0x83f0
1c0099a6:	1c00                	addi	s0,sp,560
1c0099a8:	8402                	jr	s0
1c0099aa:	1c00                	addi	s0,sp,560
1c0099ac:	8ae4                	0x8ae4
1c0099ae:	1c00                	addi	s0,sp,560
1c0099b0:	9706                	add	a4,a4,ra
1c0099b2:	1c00                	addi	s0,sp,560
1c0099b4:	0000                	unimp
	...

Disassembly of section .fini_array:

1c0099b8 <.fini_array>:
1c0099b8:	0001                	nop
1c0099ba:	0000                	unimp
1c0099bc:	ffff                	0xffff
1c0099be:	ffff                	0xffff
1c0099c0:	0000                	unimp
	...

Disassembly of section .rodata:

1c0099c4 <.rodata>:
1c0099c4:	1b4a                	slli	s6,s6,0x32
1c0099c6:	1c00                	addi	s0,sp,560
1c0099c8:	1b42                	slli	s6,s6,0x30
1c0099ca:	1c00                	addi	s0,sp,560
1c0099cc:	1b46                	slli	s6,s6,0x31
1c0099ce:	1c00                	addi	s0,sp,560
1c0099d0:	1b42                	slli	s6,s6,0x30
1c0099d2:	1c00                	addi	s0,sp,560
1c0099d4:	1c7c                	addi	a5,sp,572
1c0099d6:	1c00                	addi	s0,sp,560
1c0099d8:	1b42                	slli	s6,s6,0x30
1c0099da:	1c00                	addi	s0,sp,560
1c0099dc:	1b46                	slli	s6,s6,0x31
1c0099de:	1c00                	addi	s0,sp,560
1c0099e0:	1b4e                	slli	s6,s6,0x33
1c0099e2:	1c00                	addi	s0,sp,560
1c0099e4:	1b4e                	slli	s6,s6,0x33
1c0099e6:	1c00                	addi	s0,sp,560
1c0099e8:	1c7c                	addi	a5,sp,572
1c0099ea:	1c00                	addi	s0,sp,560
1c0099ec:	1b46                	slli	s6,s6,0x31
1c0099ee:	1c00                	addi	s0,sp,560
1c0099f0:	1b30                	addi	a2,sp,440
1c0099f2:	1c00                	addi	s0,sp,560
1c0099f4:	1b30                	addi	a2,sp,440
1c0099f6:	1c00                	addi	s0,sp,560
1c0099f8:	1b30                	addi	a2,sp,440
1c0099fa:	1c00                	addi	s0,sp,560
1c0099fc:	1c70                	addi	a2,sp,572
1c0099fe:	1c00                	addi	s0,sp,560
1c009a00:	7552                	flw	fa0,52(sp)
1c009a02:	6e6e                	flw	ft8,216(sp)
1c009a04:	6e69                	lui	t3,0x1a
1c009a06:	6e6f2067          	0x6e6f2067
1c009a0a:	6320                	flw	fs0,64(a4)
1c009a0c:	756c                	flw	fa1,108(a0)
1c009a0e:	72657473          	csrrci	s0,0x726,10
1c009a12:	0000                	unimp
1c009a14:	7552                	flw	fa0,52(sp)
1c009a16:	6e6e                	flw	ft8,216(sp)
1c009a18:	7265                	lui	tp,0xffff9
1c009a1a:	6320                	flw	fs0,64(a4)
1c009a1c:	6c706d6f          	jal	s10,0x1c0108e2
1c009a20:	7465                	lui	s0,0xffff9
1c009a22:	6465                	lui	s0,0x19
1c009a24:	0000                	unimp
1c009a26:	0000                	unimp
1c009a28:	6552                	flw	fa0,20(sp)
1c009a2a:	6e676f63          	bltu	a4,t1,0x1c00a128
1c009a2e:	7a69                	lui	s4,0xffffa
1c009a30:	6465                	lui	s0,0x19
1c009a32:	203a                	fld	ft0,392(sp)
1c009a34:	6425                	lui	s0,0x9
1c009a36:	000a                	0xa
1c009a38:	706d6173          	csrrsi	sp,0x706,26
1c009a3c:	656c                	flw	fa1,76(a0)
1c009a3e:	32355f73          	csrrwi	t5,0x323,10
1c009a42:	3332                	fld	ft6,296(sp)
1c009a44:	355f 705f 6d67      	0x6d67705f355f
1c009a4a:	0000                	unimp
1c009a4c:	0a0a                	slli	s4,s4,0x2
1c009a4e:	2009                	jal	0x1c009a50
1c009a50:	2a2a                	fld	fs4,136(sp)
1c009a52:	202a                	fld	ft0,136(sp)
1c009a54:	4e4e                	lw	t3,208(sp)
1c009a56:	4f54                	lw	a3,28(a4)
1c009a58:	4d204c4f          	fnmadd.h	s8,zero,s2,s1,rmm
1c009a5c:	696e                	flw	fs2,216(sp)
1c009a5e:	45207473          	csrrci	s0,0x452,0
1c009a62:	6178                	flw	fa4,68(a0)
1c009a64:	706d                	0x706d
1c009a66:	656c                	flw	fa1,76(a0)
1c009a68:	2a20                	fld	fs0,80(a2)
1c009a6a:	2a2a                	fld	fs4,136(sp)
1c009a6c:	000a                	0xa
1c009a6e:	0000                	unimp
1c009a70:	6e45                	lui	t3,0x11
1c009a72:	6574                	flw	fa3,76(a0)
1c009a74:	6972                	flw	fs2,28(sp)
1c009a76:	676e                	flw	fa4,216(sp)
1c009a78:	6d20                	flw	fs0,88(a0)
1c009a7a:	6961                	lui	s2,0x18
1c009a7c:	206e                	fld	ft0,216(sp)
1c009a7e:	746e6f63          	bltu	t3,t1,0x1c00a1dc
1c009a82:	6f72                	flw	ft10,28(sp)
1c009a84:	6c6c                	flw	fa1,92(s0)
1c009a86:	7265                	lui	tp,0xffff9
1c009a88:	0000                	unimp
1c009a8a:	0000                	unimp
1c009a8c:	6146                	flw	ft2,80(sp)
1c009a8e:	6c69                	lui	s8,0x1a
1c009a90:	6465                	lui	s0,0x19
1c009a92:	7420                	flw	fs0,104(s0)
1c009a94:	6c61206f          	j	0x1c01c15a
1c009a98:	6f6c                	flw	fa1,92(a4)
1c009a9a:	65746163          	bltu	s0,s7,0x1c00a0dc
1c009a9e:	4d20                	lw	s0,88(a0)
1c009aa0:	6d65                	lui	s10,0x19
1c009aa2:	2079726f          	jal	tp,0x1c0a14a8
1c009aa6:	6f66                	flw	ft10,88(sp)
1c009aa8:	2072                	fld	ft0,280(sp)
1c009aaa:	6d49                	lui	s10,0x12
1c009aac:	6761                	lui	a4,0x18
1c009aae:	2065                	jal	0x1c009b56
1c009ab0:	2528                	fld	fa0,72(a0)
1c009ab2:	2064                	fld	fs1,192(s0)
1c009ab4:	7962                	flw	fs2,56(sp)
1c009ab6:	6574                	flw	fa3,76(a0)
1c009ab8:	000a2973          	csrrs	s2,0x0,s4
1c009abc:	6552                	flw	fa0,20(sp)
1c009abe:	6461                	lui	s0,0x18
1c009ac0:	6e69                	lui	t3,0x1a
1c009ac2:	6d692067          	0x6d692067
1c009ac6:	6761                	lui	a4,0x18
1c009ac8:	0065                	c.addi	zero,25
1c009aca:	0000                	unimp
1c009acc:	6146                	flw	ft2,80(sp)
1c009ace:	6c69                	lui	s8,0x1a
1c009ad0:	6465                	lui	s0,0x19
1c009ad2:	7420                	flw	fs0,104(s0)
1c009ad4:	6f6c206f          	j	0x1c0cc1ca
1c009ad8:	6461                	lui	s0,0x18
1c009ada:	6920                	flw	fs0,80(a0)
1c009adc:	616d                	addi	sp,sp,240
1c009ade:	25206567          	0x25206567
1c009ae2:	726f2073          	csrs	0x726,t5
1c009ae6:	6420                	flw	fs0,72(s0)
1c009ae8:	6d69                	lui	s10,0x1a
1c009aea:	6e65                	lui	t3,0x19
1c009aec:	6e6f6973          	csrrsi	s2,0x6e6,30
1c009af0:	6d20                	flw	fs0,88(a0)
1c009af2:	7369                	lui	t1,0xffffa
1c009af4:	616d                	addi	sp,sp,240
1c009af6:	6374                	flw	fa3,68(a4)
1c009af8:	2068                	fld	fa0,192(s0)
1c009afa:	7845                	lui	a6,0xffff1
1c009afc:	6570                	flw	fa2,76(a0)
1c009afe:	20737463          	bleu	t2,t1,0x1c009d06
1c009b02:	7864255b          	0x7864255b
1c009b06:	6425                	lui	s0,0x9
1c009b08:	2c5d                	jal	0x1c009dbe
1c009b0a:	4720                	lw	s0,72(a4)
1c009b0c:	5b20746f          	jal	s0,0x1c0110be
1c009b10:	6425                	lui	s0,0x9
1c009b12:	2578                	fld	fa4,200(a0)
1c009b14:	5d64                	lw	s1,124(a0)
1c009b16:	000a                	0xa
1c009b18:	6946                	flw	fs2,80(sp)
1c009b1a:	696e                	flw	fs2,216(sp)
1c009b1c:	64656873          	csrrsi	a6,0x646,10
1c009b20:	7220                	flw	fs0,96(a2)
1c009b22:	6165                	addi	sp,sp,112
1c009b24:	6964                	flw	fs1,84(a0)
1c009b26:	676e                	flw	fa4,216(sp)
1c009b28:	6920                	flw	fs0,80(a0)
1c009b2a:	616d                	addi	sp,sp,240
1c009b2c:	00006567          	0x6567
1c009b30:	6146                	flw	ft2,80(sp)
1c009b32:	6c69                	lui	s8,0x1a
1c009b34:	6465                	lui	s0,0x19
1c009b36:	7420                	flw	fs0,104(s0)
1c009b38:	6c61206f          	j	0x1c01c1fe
1c009b3c:	6f6c                	flw	fa1,92(a4)
1c009b3e:	65746163          	bltu	s0,s7,0x1c00a180
1c009b42:	4d20                	lw	s0,88(a0)
1c009b44:	6d65                	lui	s10,0x19
1c009b46:	2079726f          	jal	tp,0x1c0a154c
1c009b4a:	6f66                	flw	ft10,88(sp)
1c009b4c:	2072                	fld	ft0,280(sp)
1c009b4e:	6552                	flw	fa0,20(sp)
1c009b50:	746c7573          	csrrci	a0,0x746,24
1c009b54:	2820                	fld	fs0,80(s0)
1c009b56:	6425                	lui	s0,0x9
1c009b58:	6220                	flw	fs0,64(a2)
1c009b5a:	7479                	lui	s0,0xffffe
1c009b5c:	7365                	lui	t1,0xffff9
1c009b5e:	0a29                	addi	s4,s4,10
1c009b60:	0000                	unimp
1c009b62:	0000                	unimp
1c009b64:	7250                	flw	fa2,36(a2)
1c009b66:	7065                	0x7065
1c009b68:	6f72                	flw	ft10,28(sp)
1c009b6a:	73736563          	bltu	t1,s7,0x1c00a294
1c009b6e:	3820                	fld	fs0,112(s0)
1c009b70:	6220                	flw	fs0,64(a2)
1c009b72:	7469                	lui	s0,0xffffa
1c009b74:	0000                	unimp
1c009b76:	0000                	unimp
1c009b78:	73756c43          	fmadd.d	fs8,fa0,fs7,fa4,unknown
1c009b7c:	6574                	flw	fa3,76(a0)
1c009b7e:	2072                	fld	ft0,280(sp)
1c009b80:	6e65706f          	j	0x1c061266
1c009b84:	6620                	flw	fs0,72(a2)
1c009b86:	6961                	lui	s2,0x18
1c009b88:	656c                	flw	fa1,76(a0)
1c009b8a:	2064                	fld	fs1,192(s0)
1c009b8c:	0021                	c.addi	zero,8
1c009b8e:	0000                	unimp
1c009b90:	736e6f43          	fmadd.d	ft10,ft8,fs6,fa4,unknown
1c009b94:	7274                	flw	fa3,100(a2)
1c009b96:	6375                	lui	t1,0x1d
1c009b98:	6f74                	flw	fa3,92(a4)
1c009b9a:	0072                	0x72
1c009b9c:	70617247          	fmsub.s	ft4,ft2,ft6,fa4
1c009ba0:	2068                	fld	fa0,192(s0)
1c009ba2:	736e6f63          	bltu	t3,s6,0x1c00a2e0
1c009ba6:	7274                	flw	fa3,100(a2)
1c009ba8:	6375                	lui	t1,0x1d
1c009baa:	6f74                	flw	fa3,92(a4)
1c009bac:	2072                	fld	ft0,280(sp)
1c009bae:	7865                	lui	a6,0xffff9
1c009bb0:	7469                	lui	s0,0xffffa
1c009bb2:	6465                	lui	s0,0x19
1c009bb4:	7720                	flw	fs0,104(a4)
1c009bb6:	7469                	lui	s0,0xffffa
1c009bb8:	2068                	fld	fa0,192(s0)
1c009bba:	6e61                	lui	t3,0x18
1c009bbc:	6520                	flw	fs0,72(a0)
1c009bbe:	7272                	flw	ft4,60(sp)
1c009bc0:	0000726f          	jal	tp,0x1c010bc0
1c009bc4:	6c6c6143          	fmadd.h	sp,s8,t1,a3,unknown
1c009bc8:	6320                	flw	fs0,64(a4)
1c009bca:	756c                	flw	fa1,108(a0)
1c009bcc:	72657473          	csrrci	s0,0x726,10
1c009bd0:	0000                	unimp
1c009bd2:	0000                	unimp
1c009bd4:	3425                	jal	0x1c0095fc
1c009bd6:	7335                	lui	t1,0xfffed
1c009bd8:	203a                	fld	ft0,392(sp)
1c009bda:	3125                	jal	0x1c009802
1c009bdc:	6430                	flw	fa2,72(s0)
1c009bde:	202c                	fld	fa1,64(s0)
1c009be0:	7265704f          	fnmadd.d	ft0,fa0,ft6,fa4
1c009be4:	7461                	lui	s0,0xffff8
1c009be6:	6f69                	lui	t5,0x1a
1c009be8:	3a6e                	fld	fs4,248(sp)
1c009bea:	2520                	fld	fs0,72(a0)
1c009bec:	3031                	jal	0x1c0093f8
1c009bee:	2c64                	fld	fs1,216(s0)
1c009bf0:	4f20                	lw	s0,88(a4)
1c009bf2:	6570                	flw	fa2,76(a0)
1c009bf4:	6172                	flw	ft2,28(sp)
1c009bf6:	6974                	flw	fa3,84(a0)
1c009bf8:	432f6e6f          	jal	t3,0x1c10002a
1c009bfc:	6379                	lui	t1,0x1e
1c009bfe:	656c                	flw	fa1,76(a0)
1c009c00:	203a                	fld	ft0,392(sp)
1c009c02:	6625                	lui	a2,0x9
1c009c04:	000a                	0xa
1c009c06:	0000                	unimp
1c009c08:	6f54                	flw	fa3,28(a4)
1c009c0a:	6174                	flw	fa3,68(a0)
1c009c0c:	006c                	addi	a1,sp,12
1c009c0e:	0000                	unimp
1c009c10:	6e45                	lui	t3,0x11
1c009c12:	6564                	flw	fs1,76(a0)
1c009c14:	0064                	addi	s1,sp,12
1c009c16:	0000                	unimp
1c009c18:	6f6c6f43          	0x6f6c6f43
1c009c1c:	0072                	0x72
1c009c1e:	0000                	unimp
1c009c20:	79617247          	fmsub.s	ft4,ft2,fs6,fa5
1c009c24:	0000                	unimp
1c009c26:	0000                	unimp
1c009c28:	00006b4f          	fnmadd.s	fs6,ft0,ft0,ft0,unknown
1c009c2c:	6946                	flw	fs2,80(sp)
1c009c2e:	656c                	flw	fa1,76(a0)
1c009c30:	203a                	fld	ft0,392(sp)
1c009c32:	7325                	lui	t1,0xfffe9
1c009c34:	6f20                	flw	fs0,88(a4)
1c009c36:	6570                	flw	fa2,76(a0)
1c009c38:	3a6e                	fld	fs4,248(sp)
1c009c3a:	2520                	fld	fs0,72(a0)
1c009c3c:	00000a73          	0xa73
1c009c40:	6146                	flw	ft2,80(sp)
1c009c42:	6c69                	lui	s8,0x1a
1c009c44:	6465                	lui	s0,0x19
1c009c46:	7420                	flw	fs0,104(s0)
1c009c48:	6567206f          	j	0x1c07c29e
1c009c4c:	2074                	fld	fa3,192(s0)
1c009c4e:	6e69                	lui	t3,0x1a
1c009c50:	7570                	flw	fa2,108(a0)
1c009c52:	2074                	fld	fa3,192(s0)
1c009c54:	6d69                	lui	s10,0x1a
1c009c56:	6761                	lui	a4,0x18
1c009c58:	7365                	lui	t1,0xffff9
1c009c5a:	6920                	flw	fs0,80(a0)
1c009c5c:	666e                	flw	fa2,216(sp)
1c009c5e:	202c736f          	jal	t1,0x1c0d0e60
1c009c62:	7325                	lui	t1,0xfffe9
1c009c64:	000a                	0xa
1c009c66:	0000                	unimp
1c009c68:	6d49                	lui	s10,0x12
1c009c6a:	6761                	lui	a4,0x18
1c009c6c:	2065                	jal	0x1c009d14
1c009c6e:	7325                	lui	t1,0xfffe9
1c009c70:	203a                	fld	ft0,392(sp)
1c009c72:	5b20                	lw	s0,112(a4)
1c009c74:	25203a57          	0x25203a57
1c009c78:	2c64                	fld	fs1,216(s0)
1c009c7a:	4820                	lw	s0,80(s0)
1c009c7c:	203a                	fld	ft0,392(sp)
1c009c7e:	6425                	lui	s0,0x9
1c009c80:	205d                	jal	0x1c009d26
1c009c82:	7325                	lui	t1,0xfffe9
1c009c84:	202c                	fld	fa1,64(s0)
1c009c86:	6548                	flw	fa0,12(a0)
1c009c88:	6461                	lui	s0,0x18
1c009c8a:	7265                	lui	tp,0xffff9
1c009c8c:	657a6953          	0x657a6953
1c009c90:	203a                	fld	ft0,392(sp)
1c009c92:	6425                	lui	s0,0x9
1c009c94:	000a                	0xa
1c009c96:	0000                	unimp
1c009c98:	796c6e4f          	fnmadd.s	ft8,fs8,fs6,fa5,unknown
1c009c9c:	4720                	lw	s0,72(a4)
1c009c9e:	6172                	flw	ft2,28(sp)
1c009ca0:	2079                	jal	0x1c009d2e
1c009ca2:	656c                	flw	fa1,76(a0)
1c009ca4:	6576                	flw	fa0,92(sp)
1c009ca6:	736c                	flw	fa1,100(a4)
1c009ca8:	7320                	flw	fs0,96(a4)
1c009caa:	7075                	0x7075
1c009cac:	6f70                	flw	fa2,92(a4)
1c009cae:	7472                	flw	fs0,60(sp)
1c009cb0:	6465                	lui	s0,0x19
1c009cb2:	202c                	fld	fa1,64(s0)
1c009cb4:	6f66                	flw	ft10,88(sp)
1c009cb6:	6e75                	lui	t3,0x1d
1c009cb8:	2064                	fld	fs1,192(s0)
1c009cba:	4752                	lw	a4,20(sp)
1c009cbc:	0042                	0x42
1c009cbe:	0000                	unimp
1c009cc0:	6146                	flw	ft2,80(sp)
1c009cc2:	6c69                	lui	s8,0x1a
1c009cc4:	6465                	lui	s0,0x19
1c009cc6:	7420                	flw	fs0,104(s0)
1c009cc8:	6c61206f          	j	0x1c01c38e
1c009ccc:	6f6c                	flw	fa1,92(a4)
1c009cce:	65746163          	bltu	s0,s7,0x1c00a310
1c009cd2:	2520                	fld	fs0,72(a0)
1c009cd4:	2064                	fld	fs1,192(s0)
1c009cd6:	7962                	flw	fs2,56(sp)
1c009cd8:	6574                	flw	fa3,76(a0)
1c009cda:	6f662073          	csrs	0x6f6,a2
1c009cde:	2072                	fld	ft0,280(sp)
1c009ce0:	6e69                	lui	t3,0x1a
1c009ce2:	7570                	flw	fa2,108(a0)
1c009ce4:	2074                	fld	fa3,192(s0)
1c009ce6:	6d69                	lui	s10,0x1a
1c009ce8:	6761                	lui	a4,0x18
1c009cea:	0a65                	addi	s4,s4,25
1c009cec:	0000                	unimp
1c009cee:	0000                	unimp
1c009cf0:	7245                	lui	tp,0xffff1
1c009cf2:	6f72                	flw	ft10,28(sp)
1c009cf4:	2c72                	fld	fs8,280(sp)
1c009cf6:	6520                	flw	fs0,72(a0)
1c009cf8:	7078                	flw	fa4,100(s0)
1c009cfa:	6365                	lui	t1,0x19
1c009cfc:	7374                	flw	fa3,100(a4)
1c009cfe:	2520                	fld	fs0,72(a0)
1c009d00:	2064                	fld	fs1,192(s0)
1c009d02:	7962                	flw	fs2,56(sp)
1c009d04:	6574                	flw	fa3,76(a0)
1c009d06:	75622073          	csrs	0x756,tp
1c009d0a:	2074                	fld	fa3,192(s0)
1c009d0c:	20746f67          	0x20746f67
1c009d10:	6425                	lui	s0,0x9
1c009d12:	000a                	0xa
1c009d14:	6d49                	lui	s10,0x12
1c009d16:	6761                	lui	a4,0x18
1c009d18:	2065                	jal	0x1c009dc0
1c009d1a:	7325                	lui	t1,0xfffe9
1c009d1c:	202c                	fld	fa1,64(s0)
1c009d1e:	203a575b          	p.mac.zl.zh	a4,s4,gp,a6
1c009d22:	6425                	lui	s0,0x9
1c009d24:	202c                	fld	fa1,64(s0)
1c009d26:	3a48                	fld	fa0,176(a2)
1c009d28:	2520                	fld	fs0,72(a0)
1c009d2a:	5d64                	lw	s1,124(a0)
1c009d2c:	202c                	fld	fa1,64(s0)
1c009d2e:	79617247          	fmsub.s	ft4,ft2,fs6,fa5
1c009d32:	202c                	fld	fa1,64(s0)
1c009d34:	657a6953          	0x657a6953
1c009d38:	203a                	fld	ft0,392(sp)
1c009d3a:	6425                	lui	s0,0x9
1c009d3c:	6220                	flw	fs0,64(a2)
1c009d3e:	7479                	lui	s0,0xffffe
1c009d40:	7365                	lui	t1,0xffff9
1c009d42:	202c                	fld	fa1,64(s0)
1c009d44:	6f4c                	flw	fa1,28(a4)
1c009d46:	6461                	lui	s0,0x18
1c009d48:	6465                	lui	s0,0x19
1c009d4a:	7320                	flw	fs0,96(a4)
1c009d4c:	6375                	lui	t1,0x1d
1c009d4e:	7365                	lui	t1,0xffff9
1c009d50:	6c756673          	csrrsi	a2,0x6c7,10
1c009d54:	796c                	flw	fa1,116(a0)
1c009d56:	000a                	0xa
1c009d58:	6146                	flw	ft2,80(sp)
1c009d5a:	6c69                	lui	s8,0x1a
1c009d5c:	6465                	lui	s0,0x19
1c009d5e:	7420                	flw	fs0,104(s0)
1c009d60:	6f6c206f          	j	0x1c0cc456
1c009d64:	6461                	lui	s0,0x18
1c009d66:	6920                	flw	fs0,80(a0)
1c009d68:	616d                	addi	sp,sp,240
1c009d6a:	25206567          	0x25206567
1c009d6e:	72662073          	csrs	0x726,a2
1c009d72:	66206d6f          	jal	s10,0x1c0103d4
1c009d76:	616c                	flw	fa1,68(a0)
1c009d78:	000a6873          	csrrsi	a6,0x0,20
1c009d7c:	6e4d                	lui	t3,0x13
1c009d7e:	7369                	lui	t1,0xffffa
1c009d80:	5f74                	lw	a3,124(a4)
1c009d82:	334c                	fld	fa1,160(a4)
1c009d84:	465f 616c 6873      	0x6873616c465f
1c009d8a:	435f 6e6f 7473      	0x74736e6f435f
1c009d90:	642e                	flw	fs0,200(sp)
1c009d92:	7461                	lui	s0,0xffff8
1c009d94:	0000                	unimp
1c009d96:	0000                	unimp
1c009d98:	0001                	nop
1c009d9a:	0020                	addi	s0,sp,8
1c009d9c:	0008                	addi	a0,sp,0
1c009d9e:	0040                	addi	s0,sp,4
1c009da0:	0400                	addi	s0,sp,512
1c009da2:	0400                	addi	s0,sp,512
1c009da4:	435f3153          	0x435f3153
1c009da8:	32766e6f          	jal	t3,0x1c0708ce
1c009dac:	5f64                	lw	s1,124(a4)
1c009dae:	31783233          	0x31783233
1c009db2:	3578                	fld	fa4,232(a0)
1c009db4:	3578                	fld	fa4,232(a0)
1c009db6:	4d5f 7861 6f50      	0x6f5078614d5f
1c009dbc:	325f6c6f          	jal	s8,0x1c1008e0
1c009dc0:	3278                	fld	fa4,224(a2)
1c009dc2:	525f 6c65 0075      	0x756c65525f
1c009dc8:	435f3253          	0x435f3253
1c009dcc:	32766e6f          	jal	t3,0x1c0708f2
1c009dd0:	5f64                	lw	s1,124(a4)
1c009dd2:	3436                	fld	fs0,360(sp)
1c009dd4:	3378                	fld	fa4,224(a4)
1c009dd6:	7832                	flw	fa6,44(sp)
1c009dd8:	7835                	lui	a6,0xfffed
1c009dda:	5f35                	li	t5,-19
1c009ddc:	614d                	addi	sp,sp,176
1c009dde:	5078                	lw	a4,100(s0)
1c009de0:	5f6c6f6f          	jal	t5,0x1c0d03d6
1c009de4:	7832                	flw	fa6,44(sp)
1c009de6:	5f32                	lw	t5,44(sp)
1c009de8:	6552                	flw	fa0,20(sp)
1c009dea:	756c                	flw	fa1,108(a0)
1c009dec:	0000                	unimp
1c009dee:	0000                	unimp
1c009df0:	4c5f3353          	0x4c5f3353
1c009df4:	6e69                	lui	t3,0x1a
1c009df6:	6165                	addi	sp,sp,112
1c009df8:	5f72                	lw	t5,60(sp)
1c009dfa:	3031                	jal	0x1c009606
1c009dfc:	3678                	fld	fa4,232(a2)
1c009dfe:	7834                	flw	fa3,112(s0)
1c009e00:	7834                	flw	fa3,112(s0)
1c009e02:	0034                	addi	a3,sp,8
1c009e04:	535f3453          	0x535f3453
1c009e08:	4d74666f          	jal	a2,0x1c050ade
1c009e0c:	7861                	lui	a6,0xffff8
1c009e0e:	0000                	unimp
1c009e10:	0201                	addi	tp,tp,0
1c009e12:	02010403          	lb	s0,32(sp)
1c009e16:	02010503          	lb	a0,32(sp)
1c009e1a:	02010603          	lb	a2,32(sp)
1c009e1e:	01010703          	lb	a4,16(sp)
1c009e22:	0000                	unimp
1c009e24:	0000                	unimp
1c009e26:	5bf1                	li	s7,-4
1c009e28:	31cd                	jal	0x1c009b0a
1c009e2a:	4c900af3          	0x4c900af3
1c009e2e:	34e2                	fld	fs1,56(sp)
1c009e30:	510b36e3          	p.bneimm	s6,-16,0x1c00ab3c
1c009e34:	7a9f 0abe 3b9f      	0x3b9f0abe7a9f
1c009e3a:	1224                	addi	s1,sp,296
1c009e3c:	0001                	nop
1c009e3e:	0002                	0x2
1c009e40:	00140007          	0x140007
1c009e44:	0036                	0x36
1c009e46:	0094                	addi	a3,sp,64
1c009e48:	04480193          	addi	gp,a6,68 # 0xffff8044
1c009e4c:	0ba4                	addi	s1,sp,472
1c009e4e:	560a1fa7          	0x560a1fa7
1c009e52:	e9e2                	fsw	fs8,208(sp)
1c009e54:	335b1b5b          	p.macun	s6,s6,s5,25
1c009e58:	6d35                	lui	s10,0xd
1c009e5a:	5452                	lw	s0,52(sp)
1c009e5c:	2528                	fld	fa0,72(a0)
1c009e5e:	2c64                	fld	fs1,216(s0)
1c009e60:	6425                	lui	s0,0x9
1c009e62:	1b29                	addi	s6,s6,-22
1c009e64:	5d6d305b          	0x5d6d305b
1c009e68:	1b20                	addi	s0,sp,440
1c009e6a:	6d39335b          	0x6d39335b
1c009e6e:	4146                	lw	sp,80(sp)
1c009e70:	4154                	lw	a3,4(a0)
1c009e72:	1b4c                	addi	a1,sp,436
1c009e74:	3a6d305b          	p.subn	zero,s10,t1,29
1c009e78:	5420                	lw	s0,104(s0)
1c009e7a:	6568                	flw	fa0,76(a0)
1c009e7c:	6572                	flw	fa0,28(sp)
1c009e7e:	7720                	flw	fs0,104(a4)
1c009e80:	7361                	lui	t1,0xffff8
1c009e82:	6120                	flw	fs0,64(a0)
1c009e84:	206e                	fld	ft0,216(sp)
1c009e86:	7265                	lui	tp,0xffff9
1c009e88:	6f72                	flw	ft10,28(sp)
1c009e8a:	2072                	fld	ft0,280(sp)
1c009e8c:	7564                	flw	fs1,108(a0)
1c009e8e:	6972                	flw	fs2,28(sp)
1c009e90:	676e                	flw	fa4,216(sp)
1c009e92:	7220                	flw	fs0,96(a2)
1c009e94:	6e75                	lui	t3,0x1d
1c009e96:	6974                	flw	fa3,84(a0)
1c009e98:	656d                	lui	a0,0x1b
1c009e9a:	6920                	flw	fs0,80(a0)
1c009e9c:	696e                	flw	fs2,216(sp)
1c009e9e:	6974                	flw	fa3,84(a0)
1c009ea0:	6c61                	lui	s8,0x18
1c009ea2:	7a69                	lui	s4,0xffffa
1c009ea4:	7461                	lui	s0,0xffff8
1c009ea6:	6f69                	lui	t5,0x1a
1c009ea8:	0a6e                	slli	s4,s4,0x1b
1c009eaa:	0000                	unimp
1c009eac:	335b1b5b          	p.macun	s6,s6,s5,25
1c009eb0:	6d35                	lui	s10,0xd
1c009eb2:	5452                	lw	s0,52(sp)
1c009eb4:	2528                	fld	fa0,72(a0)
1c009eb6:	2c64                	fld	fs1,216(s0)
1c009eb8:	6425                	lui	s0,0x9
1c009eba:	1b29                	addi	s6,s6,-22
1c009ebc:	5d6d305b          	0x5d6d305b
1c009ec0:	1b20                	addi	s0,sp,440
1c009ec2:	6d33335b          	0x6d33335b
1c009ec6:	4e524157          	0x4e524157
1c009eca:	4e49                	li	t3,18
1c009ecc:	305b1b47          	fmsub.s	fs6,fs6,ft5,ft6,rtz
1c009ed0:	3a6d                	jal	0x1c00988a
1c009ed2:	5220                	lw	s0,96(a2)
1c009ed4:	6165                	addi	sp,sp,112
1c009ed6:	64656863          	bltu	a0,t1,0x1c00a526
1c009eda:	6920                	flw	fs0,80(a0)
1c009edc:	6c6c                	flw	fa1,92(s0)
1c009ede:	6765                	lui	a4,0x19
1c009ee0:	6c61                	lui	s8,0x18
1c009ee2:	6920                	flw	fs0,80(a0)
1c009ee4:	736e                	flw	ft6,248(sp)
1c009ee6:	7274                	flw	fa3,100(a2)
1c009ee8:	6375                	lui	t1,0x1d
1c009eea:	6974                	flw	fa3,84(a0)
1c009eec:	28206e6f          	jal	t3,0x1c01016e
1c009ef0:	4350                	lw	a2,4(a4)
1c009ef2:	203a                	fld	ft0,392(sp)
1c009ef4:	7830                	flw	fa2,112(s0)
1c009ef6:	7825                	lui	a6,0xfffe9
1c009ef8:	202c                	fld	fa1,64(s0)
1c009efa:	6f63706f          	j	0x1c0415f0
1c009efe:	6564                	flw	fs1,76(a0)
1c009f00:	203a                	fld	ft0,392(sp)
1c009f02:	7830                	flw	fa2,112(s0)
1c009f04:	7825                	lui	a6,0xfffe9
1c009f06:	000a                	0xa
1c009f08:	335b1b5b          	p.macun	s6,s6,s5,25
1c009f0c:	6d35                	lui	s10,0xd
1c009f0e:	5452                	lw	s0,52(sp)
1c009f10:	2528                	fld	fa0,72(a0)
1c009f12:	2c64                	fld	fs1,216(s0)
1c009f14:	6425                	lui	s0,0x9
1c009f16:	1b29                	addi	s6,s6,-22
1c009f18:	5d6d305b          	0x5d6d305b
1c009f1c:	1b20                	addi	s0,sp,440
1c009f1e:	6d39335b          	0x6d39335b
1c009f22:	4146                	lw	sp,80(sp)
1c009f24:	4154                	lw	a3,4(a0)
1c009f26:	1b4c                	addi	a1,sp,436
1c009f28:	3a6d305b          	p.subn	zero,s10,t1,29
1c009f2c:	5520                	lw	s0,104(a0)
1c009f2e:	616e                	flw	ft2,216(sp)
1c009f30:	6c62                	flw	fs8,24(sp)
1c009f32:	2065                	jal	0x1c009fda
1c009f34:	6f74                	flw	fa3,92(a4)
1c009f36:	6920                	flw	fs0,80(a0)
1c009f38:	696e                	flw	fs2,216(sp)
1c009f3a:	6974                	flw	fa3,84(a0)
1c009f3c:	6c61                	lui	s8,0x18
1c009f3e:	7a69                	lui	s4,0xffffa
1c009f40:	2065                	jal	0x1c009fe8
1c009f42:	6974                	flw	fa3,84(a0)
1c009f44:	656d                	lui	a0,0x1b
1c009f46:	6420                	flw	fs0,72(s0)
1c009f48:	6972                	flw	fs2,28(sp)
1c009f4a:	6576                	flw	fa0,92(sp)
1c009f4c:	0a72                	slli	s4,s4,0x1c
1c009f4e:	0000                	unimp
1c009f50:	335b1b5b          	p.macun	s6,s6,s5,25
1c009f54:	6d35                	lui	s10,0xd
1c009f56:	5452                	lw	s0,52(sp)
1c009f58:	2528                	fld	fa0,72(a0)
1c009f5a:	2c64                	fld	fs1,216(s0)
1c009f5c:	6425                	lui	s0,0x9
1c009f5e:	1b29                	addi	s6,s6,-22
1c009f60:	5d6d305b          	0x5d6d305b
1c009f64:	1b20                	addi	s0,sp,440
1c009f66:	6d39335b          	0x6d39335b
1c009f6a:	4146                	lw	sp,80(sp)
1c009f6c:	4154                	lw	a3,4(a0)
1c009f6e:	1b4c                	addi	a1,sp,436
1c009f70:	3a6d305b          	p.subn	zero,s10,t1,29
1c009f74:	5520                	lw	s0,104(a0)
1c009f76:	616e                	flw	ft2,216(sp)
1c009f78:	6c62                	flw	fs8,24(sp)
1c009f7a:	2065                	jal	0x1c00a022
1c009f7c:	6f74                	flw	fa3,92(a4)
1c009f7e:	6120                	flw	fs0,64(a0)
1c009f80:	6c6c                	flw	fa1,92(s0)
1c009f82:	7461636f          	jal	t1,0x1c0206c8
1c009f86:	2065                	jal	0x1c00a02e
1c009f88:	73756c63          	bltu	a0,s7,0x1c00a6c0
1c009f8c:	6574                	flw	fa3,76(a0)
1c009f8e:	2072                	fld	ft0,280(sp)
1c009f90:	746e6f63          	bltu	t3,t1,0x1c00a6ee
1c009f94:	6f72                	flw	ft10,28(sp)
1c009f96:	206c                	fld	fa1,192(s0)
1c009f98:	75727473          	csrrci	s0,0x757,4
1c009f9c:	72757463          	bleu	t2,a0,0x1c00a6c4
1c009fa0:	0a65                	addi	s4,s4,25
1c009fa2:	0000                	unimp
1c009fa4:	6564                	flw	fs1,76(a0)
1c009fa6:	6166                	flw	ft2,88(sp)
1c009fa8:	6c75                	lui	s8,0x1d
1c009faa:	0074                	addi	a3,sp,12
1c009fac:	7968                	flw	fa0,116(a0)
1c009fae:	6570                	flw	fa2,76(a0)
1c009fb0:	0072                	0x72
1c009fb2:	0000                	unimp
1c009fb4:	7968                	flw	fa0,116(a0)
1c009fb6:	6570                	flw	fa2,76(a0)
1c009fb8:	5f72                	lw	t5,60(sp)
1c009fba:	6f697067          	0x6f697067
1c009fbe:	0000                	unimp
1c009fc0:	335b1b5b          	p.macun	s6,s6,s5,25
1c009fc4:	6d35                	lui	s10,0xd
1c009fc6:	5452                	lw	s0,52(sp)
1c009fc8:	2528                	fld	fa0,72(a0)
1c009fca:	2c64                	fld	fs1,216(s0)
1c009fcc:	6425                	lui	s0,0x9
1c009fce:	1b29                	addi	s6,s6,-22
1c009fd0:	5d6d305b          	0x5d6d305b
1c009fd4:	1b20                	addi	s0,sp,440
1c009fd6:	6d39335b          	0x6d39335b
1c009fda:	4146                	lw	sp,80(sp)
1c009fdc:	4154                	lw	a3,4(a0)
1c009fde:	1b4c                	addi	a1,sp,436
1c009fe0:	3a6d305b          	p.subn	zero,s10,t1,29
1c009fe4:	5520                	lw	s0,104(a0)
1c009fe6:	616e                	flw	ft2,216(sp)
1c009fe8:	6c62                	flw	fs8,24(sp)
1c009fea:	2065                	jal	0x1c00a092
1c009fec:	6f74                	flw	fa3,92(a4)
1c009fee:	6920                	flw	fs0,80(a0)
1c009ff0:	696e                	flw	fs2,216(sp)
1c009ff2:	6974                	flw	fa3,84(a0)
1c009ff4:	6c61                	lui	s8,0x18
1c009ff6:	7a69                	lui	s4,0xffffa
1c009ff8:	2065                	jal	0x1c00a0a0
1c009ffa:	3269                	jal	0x1c009984
1c009ffc:	72642073          	csrs	0x726,s0
1c00a000:	7669                	lui	a2,0xffffa
1c00a002:	7265                	lui	tp,0xffff9
1c00a004:	000a                	0xa
1c00a006:	0000                	unimp
1c00a008:	2b2d                	jal	0x1c00a542
1c00a00a:	2320                	fld	fs0,64(a4)
1c00a00c:	0030                	addi	a2,sp,8
1c00a00e:	0000                	unimp
1c00a010:	6c68                	flw	fa0,92(s0)
1c00a012:	7a4c                	flw	fa1,52(a2)
1c00a014:	0000                	unimp
1c00a016:	0000                	unimp
1c00a018:	335b1b5b          	p.macun	s6,s6,s5,25
1c00a01c:	6d35                	lui	s10,0xd
1c00a01e:	5452                	lw	s0,52(sp)
1c00a020:	2528                	fld	fa0,72(a0)
1c00a022:	2c64                	fld	fs1,216(s0)
1c00a024:	6425                	lui	s0,0x9
1c00a026:	1b29                	addi	s6,s6,-22
1c00a028:	5d6d305b          	0x5d6d305b
1c00a02c:	1b20                	addi	s0,sp,440
1c00a02e:	6d39335b          	0x6d39335b
1c00a032:	4146                	lw	sp,80(sp)
1c00a034:	4154                	lw	a3,4(a0)
1c00a036:	1b4c                	addi	a1,sp,436
1c00a038:	3a6d305b          	p.subn	zero,s10,t1,29
1c00a03c:	5520                	lw	s0,104(a0)
1c00a03e:	616e                	flw	ft2,216(sp)
1c00a040:	6c62                	flw	fs8,24(sp)
1c00a042:	2065                	jal	0x1c00a0ea
1c00a044:	6f74                	flw	fa3,92(a4)
1c00a046:	6920                	flw	fs0,80(a0)
1c00a048:	696e                	flw	fs2,216(sp)
1c00a04a:	6974                	flw	fa3,84(a0)
1c00a04c:	6c61                	lui	s8,0x18
1c00a04e:	7a69                	lui	s4,0xffffa
1c00a050:	2065                	jal	0x1c00a0f8
1c00a052:	6175                	addi	sp,sp,368
1c00a054:	7472                	flw	fs0,60(sp)
1c00a056:	6420                	flw	fs0,72(s0)
1c00a058:	6972                	flw	fs2,28(sp)
1c00a05a:	6576                	flw	fa0,92(sp)
1c00a05c:	0a72                	slli	s4,s4,0x1c
	...

Disassembly of section .data:

1c00a060 <.data>:
1c00a060:	0510                	addi	a2,sp,640
1c00a062:	1c00                	addi	s0,sp,560
1c00a064:	0374                	addi	a3,sp,396
1c00a066:	1c00                	addi	s0,sp,560
1c00a068:	0378                	addi	a4,sp,396
1c00a06a:	1c00                	addi	s0,sp,560
1c00a06c:	031a                	slli	t1,t1,0x6
1c00a06e:	1c00                	addi	s0,sp,560
1c00a070:	0814                	addi	a3,sp,16
1c00a072:	1c00                	addi	s0,sp,560
1c00a074:	0218                	addi	a4,sp,256
1c00a076:	1c00                	addi	s0,sp,560
1c00a078:	0204                	addi	s1,sp,256
1c00a07a:	1c00                	addi	s0,sp,560
1c00a07c:	0208                	addi	a0,sp,256
1c00a07e:	1c00                	addi	s0,sp,560
1c00a080:	0258                	addi	a4,sp,260
1c00a082:	1c00                	addi	s0,sp,560
1c00a084:	0270                	addi	a2,sp,268
1c00a086:	1c00                	addi	s0,sp,560
1c00a088:	09a6                	slli	s3,s3,0x9
1c00a08a:	1c00                	addi	s0,sp,560
1c00a08c:	09aa                	slli	s3,s3,0xa
1c00a08e:	1c00                	addi	s0,sp,560
1c00a090:	0ada                	slli	s5,s5,0x16
1c00a092:	1c00                	addi	s0,sp,560
1c00a094:	0ad2                	slli	s5,s5,0x14
1c00a096:	1c00                	addi	s0,sp,560
1c00a098:	0a62                	slli	s4,s4,0x18
1c00a09a:	1c00                	addi	s0,sp,560
1c00a09c:	0ad0                	addi	a2,sp,340
1c00a09e:	1c00                	addi	s0,sp,560
1c00a0a0:	0a36                	slli	s4,s4,0xd
1c00a0a2:	1c00                	addi	s0,sp,560
1c00a0a4:	09ac                	addi	a1,sp,216
1c00a0a6:	1c00                	addi	s0,sp,560
1c00a0a8:	0a8e                	slli	s5,s5,0x3
1c00a0aa:	1c00                	addi	s0,sp,560
1c00a0ac:	09b4                	addi	a3,sp,216
1c00a0ae:	1c00                	addi	s0,sp,560
1c00a0b0:	1076                	0x1076
1c00a0b2:	1c00                	addi	s0,sp,560
1c00a0b4:	1058                	addi	a4,sp,36
1c00a0b6:	1c00                	addi	s0,sp,560
1c00a0b8:	0b26                	slli	s6,s6,0x9
1c00a0ba:	1c00                	addi	s0,sp,560
1c00a0bc:	0cbc                	addi	a5,sp,600
1c00a0be:	1c00                	addi	s0,sp,560
1c00a0c0:	0fe8                	addi	a0,sp,988
1c00a0c2:	1c00                	addi	s0,sp,560
1c00a0c4:	0eb6                	slli	t4,t4,0xd
1c00a0c6:	1c00                	addi	s0,sp,560
1c00a0c8:	0c18                	addi	a4,sp,528
1c00a0ca:	1c00                	addi	s0,sp,560
1c00a0cc:	10f2                	slli	ra,ra,0x3c
1c00a0ce:	1c00                	addi	s0,sp,560
1c00a0d0:	0e66                	slli	t3,t3,0x19
1c00a0d2:	1c00                	addi	s0,sp,560
1c00a0d4:	0e0a                	slli	t3,t3,0x2
1c00a0d6:	1c00                	addi	s0,sp,560
1c00a0d8:	1042                	0x1042
1c00a0da:	1c00                	addi	s0,sp,560
1c00a0dc:	0bf2                	slli	s7,s7,0x1c
1c00a0de:	1c00                	addi	s0,sp,560
1c00a0e0:	3550                	fld	fa2,168(a0)
1c00a0e2:	320a                	fld	ft4,160(sp)
1c00a0e4:	2038                	fld	fa4,64(s0)
1c00a0e6:	3832                	fld	fa6,296(sp)
1c00a0e8:	320a                	fld	ft4,160(sp)
1c00a0ea:	3535                	jal	0x1c009f16
1c00a0ec:	000a                	0xa
	...
1c00a172:	0000                	unimp
1c00a174:	0000330b          	0x330b
	...
1c00a18c:	0000                	unimp
1c00a18e:	5200                	lw	s0,32(a2)
1c00a190:	fcd5                	bnez	s1,0x1c00a14c
	...
1c00a1a6:	0000                	unimp
1c00a1a8:	2900                	fld	fs0,16(a0)
1c00a1aa:	e999                	bnez	a1,0x1c00a1c0
1c00a1ac:	a2f4                	fsd	fa3,192(a3)
	...
1c00a1c2:	663e                	flw	fa2,204(sp)
1c00a1c4:	abfdf3a3          	0xabfdf3a3
1c00a1c8:	0051                	c.addi	zero,20
	...
1c00a1da:	331f c198 fdfe      	0xfdfec198331f
1c00a1e0:	cbf4                	sw	a3,84(a5)
1c00a1e2:	1466                	slli	s0,s0,0x39
	...
1c00a1f0:	0000                	unimp
1c00a1f2:	6615                	lui	a2,0x5
1c00a1f4:	fce9cb7b          	lp.setup	x22,s3,0x1c00a190
1c00a1f8:	fcfd                	bnez	s1,0x1c00a1f6
1c00a1fa:	97c0                	0x97c0
1c00a1fc:	0028                	addi	a0,sp,8
	...
1c00a20a:	0000                	unimp
1c00a20c:	7b00                	flw	fs0,48(a4)
1c00a20e:	fdd6                	fsw	fs5,248(sp)
1c00a210:	fdfe                	fsw	ft11,248(sp)
1c00a212:	6666cbcb          	0x6666cbcb
	...
1c00a226:	0000                	unimp
1c00a228:	df15                	beqz	a4,0x1c00a164
1c00a22a:	abfd                	j	0x1c00a828
1c00a22c:	00003283          	0x3283
	...
1c00a244:	fd48                	fsw	fa0,60(a0)
1c00a246:	83fe                	mv	t2,t6
	...
1c00a260:	d4fdfc47          	fmsub.h	s8,s11,a5,s10
1c00a264:	0052                	0x52
	...
1c00a27a:	0000                	unimp
1c00a27c:	5200                	lw	s0,32(a2)
1c00a27e:	fdd6                	fsw	fs5,248(sp)
1c00a280:	d5fe                	sw	t6,232(sp)
1c00a282:	4798                	lw	a4,8(a5)
1c00a284:	0015                	c.addi	zero,5
	...
1c00a29a:	5b0a                	lw	s6,160(sp)
1c00a29c:	fcac                	fsw	fa1,120(s1)
1c00a29e:	fcfd                	bnez	s1,0x1c00a29c
1c00a2a0:	a2df 0029 0000      	0x29a2df
	...
1c00a2b6:	0000                	unimp
1c00a2b8:	2900                	fld	fs0,16(a0)
1c00a2ba:	fdeacb7b          	lp.setup	x22,s5,0x1c00a276
1c00a2be:	70ea                	flw	ft1,184(sp)
	...
1c00a2d8:	fcfdc033          	p.bset	zero,s11,30,15
1c00a2dc:	0052                	0x52
	...
1c00a2f6:	fd71                	bnez	a0,0x1c00a2d2
1c00a2f8:	000000a3          	sb	zero,1(zero) # 0x1
	...
1c00a308:	1415                	addi	s0,s0,-27
1c00a30a:	0000                	unimp
1c00a30c:	0000                	unimp
1c00a30e:	0000                	unimp
1c00a310:	b715                	j	0x1c00a234
1c00a312:	fce9                	bnez	s1,0x1c00a2ec
1c00a314:	0028                	addi	a0,sp,8
	...
1c00a322:	fd84                	fsw	fs1,56(a1)
1c00a324:	acff                	0xacff
1c00a326:	3334                	fld	fa3,96(a4)
1c00a328:	3334                	fld	fa3,96(a4)
1c00a32a:	9848                	0x9848
1c00a32c:	fdd6                	fsw	fs5,248(sp)
1c00a32e:	83fe                	mv	t2,t6
	...
1c00a33c:	0000                	unimp
1c00a33e:	e848                	fsw	fa0,20(s0)
1c00a340:	fcfd                	bnez	s1,0x1c00a33e
1c00a342:	fcfd                	bnez	s1,0x1c00a340
1c00a344:	fcfd                	bnez	s1,0x1c00a342
1c00a346:	fcfd                	bnez	s1,0x1c00a344
1c00a348:	abfd                	j	0x1c00a946
1c00a34a:	00000a5b          	p.mac	s4,zero,zero,zero
	...
1c00a35a:	0000                	unimp
1c00a35c:	5200                	lw	s0,32(a2)
1c00a35e:	cbcbcba3          	0xcbcbcba3
1c00a362:	005266b7          	lui	a3,0x526
	...
1c00a3fe:	0000                	unimp
1c00a400:	9da4                	0x9da4
1c00a402:	1c00                	addi	s0,sp,560
1c00a404:	9dc8                	0x9dc8
1c00a406:	1c00                	addi	s0,sp,560
1c00a408:	9df0                	0x9df0
1c00a40a:	1c00                	addi	s0,sp,560
1c00a40c:	9e04                	0x9e04
1c00a40e:	1c00                	addi	s0,sp,560
1c00a410:	6200                	flw	fs0,0(a2)
1c00a412:	14000007          	0x14000007
1c00a416:	0032                	0x32
1c00a418:	2800                	fld	fs0,16(s0)
1c00a41a:	0000                	unimp
1c00a41c:	000a                	0xa
1c00a41e:	0000                	unimp
1c00a420:	5500                	lw	s0,40(a0)
1c00a422:	0005                	c.addi	zero,1
1c00a424:	0000                	unimp
1c00a426:	0000                	unimp
1c00a428:	4000                	lw	s0,0(s0)
1c00a42a:	0005                	c.addi	zero,1
1c00a42c:	0000                	unimp
1c00a42e:	0000                	unimp
1c00a430:	5500                	lw	s0,40(a0)
1c00a432:	0005                	c.addi	zero,1
1c00a434:	0000                	unimp
1c00a436:	0f00                	addi	s0,sp,912
1c00a438:	ffff                	0xffff
1c00a43a:	0000003f 55000000 	0x550000000000003f
1c00a442:	0005                	c.addi	zero,1
1c00a444:	4000                	lw	s0,0(s0)
1c00a446:	0f15                	addi	t5,t5,5
1c00a448:	ffff                	0xffff
1c00a44a:	0000003f 9fa40000 	0x9fa400000000003f
1c00a452:	1c00                	addi	s0,sp,560
1c00a454:	a420                	fsd	fs0,72(s0)
1c00a456:	1c00                	addi	s0,sp,560
1c00a458:	9fac                	0x9fac
1c00a45a:	1c00                	addi	s0,sp,560
1c00a45c:	a430                	fsd	fa2,72(s0)
1c00a45e:	1c00                	addi	s0,sp,560
1c00a460:	9fb4                	0x9fb4
1c00a462:	1c00                	addi	s0,sp,560
1c00a464:	a440                	fsd	fs0,136(s0)
1c00a466:	1c00                	addi	s0,sp,560
1c00a468:	0004                	addi	s1,sp,0
	...
1c00a476:	0000                	unimp
1c00a478:	0001                	nop
	...
1c00a526:	0000                	unimp
1c00a528:	c200                	sw	s0,0(a2)
1c00a52a:	0001                	nop
1c00a52c:	00000003          	lb	zero,0(zero) # 0x0
	...
1c00a53c:	0202                	slli	tp,tp,0x0
1c00a53e:	00010303          	lb	t1,0(sp)
	...
1c00a552:	0000                	unimp
1c00a554:	1000                	addi	s0,sp,32
1c00a556:	0018                	addi	a4,sp,0
	...
1c00a564:	0200                	addi	s0,sp,256
1c00a566:	0200                	addi	s0,sp,256
	...
1c00a590:	008c                	addi	a1,sp,64
1c00a592:	0004                	addi	s1,sp,0
1c00a594:	c040                	sw	s0,4(s0)
1c00a596:	8050804f          	fnmadd.s	ft0,ft1,ft5,fa6,rne
1c00a59a:	0051                	c.addi	zero,20
1c00a59c:	2252                	fld	ft4,272(sp)
1c00a59e:	80545e53          	0x80545e53
1c00a5a2:	80550113          	addi	sp,a0,-2043 # 0x1a805
1c00a5a6:	8056                	0x8056
1c00a5a8:	c055                	beqz	s0,0x1c00a64c
1c00a5aa:	0000                	unimp
1c00a5ac:	003e                	0x3e
1c00a5ae:	4a70                	lw	a2,84(a2)
1c00a5b0:	3571                	jal	0x1c00a43c
1c00a5b2:	1172                	slli	sp,sp,0x3c
1c00a5b4:	1517f173          	csrrci	sp,0x151,15
1c00a5b8:	3d18                	fld	fa4,56(a0)
1c00a5ba:	0032                	0x32
1c00a5bc:	0f19                	addi	t5,t5,6
1c00a5be:	2d1a                	fld	fs10,384(sp)
1c00a5c0:	00000603          	lb	a2,0(zero) # 0x0
1c00a5c4:	043a                	slli	s0,s0,0xe
1c00a5c6:	0412                	slli	s0,s0,0x4
1c00a5c8:	008c                	addi	a1,sp,64
1c00a5ca:	0004                	addi	s1,sp,0
1c00a5cc:	d040                	sw	s0,36(s0)
1c00a5ce:	6a14                	flw	fa3,16(a2)
1c00a5d0:	b350b34f          	fnmadd.d	ft6,ft1,fs5,fs6,rup
1c00a5d4:	0051                	c.addi	zero,20
1c00a5d6:	3d52                	fld	fs10,304(sp)
1c00a5d8:	e454a753          	0xe454a753
1c00a5dc:	403d                	0x403d
1c00a5de:	c055                	beqz	s0,0x1c00a682
	...

Disassembly of section .bss:

1c00a664 <.bss>:
	...

Disassembly of section .data_tiny_l1:

00000004 <.data_tiny_l1>:
	...

Disassembly of section .l1cluster_g:

1000001c <.l1cluster_g>:
	...

Disassembly of section .comment:

00000000 <.comment>:
   0:	3a434347          	fmsub.d	ft6,ft6,ft4,ft7,rmm
   4:	2820                	fld	fs0,80(s0)
   6:	29554e47          	fmsub.s	ft8,fa0,fs5,ft5,rmm
   a:	3720                	fld	fs0,104(a4)
   c:	312e                	fld	ft2,232(sp)
   e:	312e                	fld	ft2,232(sp)
  10:	3220                	fld	fs0,96(a2)
  12:	3130                	fld	fa2,96(a0)
  14:	30353037          	lui	zero,0x30353
  18:	0039                	c.addi	zero,14

Disassembly of section .Pulp_Chip.Info:

00000000 <.Pulp_Chip.Info>:
   0:	000a                	0xa
   2:	0000                	unimp
   4:	0038                	addi	a4,sp,8
   6:	0000                	unimp
   8:	0001                	nop
   a:	0000                	unimp
   c:	7550                	flw	fa2,44(a0)
   e:	706c                	flw	fa1,100(s0)
  10:	495f 666e 006f      	0x6f666e495f
  16:	70696863          	bltu	s2,t1,0x726
  1a:	6e3d                	lui	t3,0xf
  1c:	20656e6f          	jal	t3,0x56222
  20:	3d757063          	bleu	s7,a0,0x3e0
  24:	6f6e                	flw	ft10,216(sp)
  26:	656e                	flw	fa0,216(sp)
  28:	7020                	flw	fs0,96(s0)
  2a:	3d65                	jal	0xfffffee2
  2c:	312d                	jal	0xfffffc56
  2e:	6620                	flw	fs0,72(a2)
  30:	312d3d63          	p.bneimm	s10,-14,0x34a
  34:	6c20                	flw	fs0,88(s0)
  36:	3d32                	fld	fs10,296(sp)
  38:	312d                	jal	0xfffffc62
  3a:	6c20                	flw	fs0,88(s0)
  3c:	6331                	lui	t1,0xc
  3e:	3d6c                	fld	fa1,248(a0)
  40:	312d                	jal	0xfffffc6a
  42:	6c20                	flw	fs0,88(s0)
  44:	6631                	lui	a2,0xc
  46:	312d3d63          	p.bneimm	s10,-14,0x360
  4a:	0000                	unimp
	...
